
SaLAltimeter-1.0.elf:     file format elf32-littlearm

Sections:
Idx Name          Size      VMA       LMA       File off  Algn
  0 .text         00007a3c  00000000  00000000  00008000  2**3
                  CONTENTS, ALLOC, LOAD, READONLY, CODE
  1 .ARM.exidx    00000008  00007a3c  00007a3c  0000fa3c  2**2
                  CONTENTS, ALLOC, LOAD, READONLY, DATA
  2 .relocate     000000b0  20000000  00007a44  00010000  2**2
                  CONTENTS, ALLOC, LOAD, DATA
  3 .bss          00004e64  200000b0  00007af4  000100b0  2**2
                  ALLOC
  4 .stack        00002004  20004f14  0000c958  000100b0  2**0
                  ALLOC
  5 .ARM.attributes 00000028  00000000  00000000  000100b0  2**0
                  CONTENTS, READONLY
  6 .comment      0000005b  00000000  00000000  000100d8  2**0
                  CONTENTS, READONLY
  7 .debug_info   0001352c  00000000  00000000  00010133  2**0
                  CONTENTS, READONLY, DEBUGGING
  8 .debug_abbrev 0000206b  00000000  00000000  0002365f  2**0
                  CONTENTS, READONLY, DEBUGGING
  9 .debug_loc    00001e06  00000000  00000000  000256ca  2**0
                  CONTENTS, READONLY, DEBUGGING
 10 .debug_aranges 00000370  00000000  00000000  000274d0  2**0
                  CONTENTS, READONLY, DEBUGGING
 11 .debug_ranges 00000380  00000000  00000000  00027840  2**0
                  CONTENTS, READONLY, DEBUGGING
 12 .debug_macro  00016451  00000000  00000000  00027bc0  2**0
                  CONTENTS, READONLY, DEBUGGING
 13 .debug_line   00008ed5  00000000  00000000  0003e011  2**0
                  CONTENTS, READONLY, DEBUGGING
 14 .debug_str    000700ec  00000000  00000000  00046ee6  2**0
                  CONTENTS, READONLY, DEBUGGING
 15 .debug_frame  000016f8  00000000  00000000  000b6fd4  2**2
                  CONTENTS, READONLY, DEBUGGING

Disassembly of section .text:

00000000 <_sfixed>:
       0:	20006f18 	.word	0x20006f18
       4:	00000d89 	.word	0x00000d89
       8:	00000d81 	.word	0x00000d81
       c:	00000d81 	.word	0x00000d81
	...
      2c:	00000d81 	.word	0x00000d81
	...
      38:	00000d81 	.word	0x00000d81
      3c:	00000d81 	.word	0x00000d81
      40:	00000d81 	.word	0x00000d81
      44:	00000d81 	.word	0x00000d81
      48:	00000d81 	.word	0x00000d81
      4c:	00000f0d 	.word	0x00000f0d
      50:	00000d81 	.word	0x00000d81
      54:	00000d81 	.word	0x00000d81
      58:	00000d81 	.word	0x00000d81
      5c:	00000d81 	.word	0x00000d81
      60:	00000d81 	.word	0x00000d81
      64:	00000d81 	.word	0x00000d81
      68:	00000d81 	.word	0x00000d81
      6c:	00000d81 	.word	0x00000d81
      70:	00000d81 	.word	0x00000d81
      74:	00000d81 	.word	0x00000d81
      78:	00000d81 	.word	0x00000d81
      7c:	00000d81 	.word	0x00000d81
      80:	00000d81 	.word	0x00000d81
      84:	00000d81 	.word	0x00000d81
      88:	00000d81 	.word	0x00000d81
      8c:	00000d81 	.word	0x00000d81
      90:	00000d81 	.word	0x00000d81
	...
      9c:	00000d81 	.word	0x00000d81
      a0:	00000d81 	.word	0x00000d81
      a4:	00000d81 	.word	0x00000d81
      a8:	00000d81 	.word	0x00000d81
      ac:	00000d81 	.word	0x00000d81
      b0:	00000000 	.word	0x00000000

000000b4 <__do_global_dtors_aux>:
      b4:	b510      	push	{r4, lr}
      b6:	4c06      	ldr	r4, [pc, #24]	; (d0 <__do_global_dtors_aux+0x1c>)
      b8:	7823      	ldrb	r3, [r4, #0]
      ba:	2b00      	cmp	r3, #0
      bc:	d107      	bne.n	ce <__do_global_dtors_aux+0x1a>
      be:	4b05      	ldr	r3, [pc, #20]	; (d4 <__do_global_dtors_aux+0x20>)
      c0:	2b00      	cmp	r3, #0
      c2:	d002      	beq.n	ca <__do_global_dtors_aux+0x16>
      c4:	4804      	ldr	r0, [pc, #16]	; (d8 <__do_global_dtors_aux+0x24>)
      c6:	e000      	b.n	ca <__do_global_dtors_aux+0x16>
      c8:	bf00      	nop
      ca:	2301      	movs	r3, #1
      cc:	7023      	strb	r3, [r4, #0]
      ce:	bd10      	pop	{r4, pc}
      d0:	200000b0 	.word	0x200000b0
      d4:	00000000 	.word	0x00000000
      d8:	00007a44 	.word	0x00007a44

000000dc <frame_dummy>:
      dc:	b508      	push	{r3, lr}
      de:	4b08      	ldr	r3, [pc, #32]	; (100 <frame_dummy+0x24>)
      e0:	2b00      	cmp	r3, #0
      e2:	d003      	beq.n	ec <frame_dummy+0x10>
      e4:	4807      	ldr	r0, [pc, #28]	; (104 <frame_dummy+0x28>)
      e6:	4908      	ldr	r1, [pc, #32]	; (108 <frame_dummy+0x2c>)
      e8:	e000      	b.n	ec <frame_dummy+0x10>
      ea:	bf00      	nop
      ec:	4807      	ldr	r0, [pc, #28]	; (10c <frame_dummy+0x30>)
      ee:	6803      	ldr	r3, [r0, #0]
      f0:	2b00      	cmp	r3, #0
      f2:	d100      	bne.n	f6 <frame_dummy+0x1a>
      f4:	bd08      	pop	{r3, pc}
      f6:	4b06      	ldr	r3, [pc, #24]	; (110 <frame_dummy+0x34>)
      f8:	2b00      	cmp	r3, #0
      fa:	d0fb      	beq.n	f4 <frame_dummy+0x18>
      fc:	4798      	blx	r3
      fe:	e7f9      	b.n	f4 <frame_dummy+0x18>
     100:	00000000 	.word	0x00000000
     104:	00007a44 	.word	0x00007a44
     108:	200000b4 	.word	0x200000b4
     10c:	00007a44 	.word	0x00007a44
     110:	00000000 	.word	0x00000000

00000114 <getADXL345Event>:
    if (negative) {
        Zaccel = ((_byte6 | ~((1 << 8) - 1)) << 8 ) | _byte5;
    } else {
        Zaccel = (_byte6 << 8) | _byte5;
    }
}
     114:	b570      	push	{r4, r5, r6, lr}
     116:	1c05      	adds	r5, r0, #0
     118:	2280      	movs	r2, #128	; 0x80
     11a:	0252      	lsls	r2, r2, #9


    if (level) {
        port->OUTSET.reg = pin_mask;
    } else {
        port->OUTCLR.reg = pin_mask;
     11c:	4b0a      	ldr	r3, [pc, #40]	; (148 <getADXL345Event+0x34>)
     11e:	615a      	str	r2, [r3, #20]
}

void getADXL345Event(uint8_t *values) {

    SaLDigitalOut(ADXL345_SLAVE_SELECT_PIN,false);
    byteOut(ADXL345_SCK_PIN,ADXL345_MOSI_PIN,ADXL345_REG_DATAX0 | 0x80 | 0x40);
     120:	200f      	movs	r0, #15
     122:	210d      	movs	r1, #13
     124:	22f2      	movs	r2, #242	; 0xf2
     126:	4b09      	ldr	r3, [pc, #36]	; (14c <getADXL345Event+0x38>)
     128:	4798      	blx	r3
     12a:	1c2c      	adds	r4, r5, #0
     12c:	3506      	adds	r5, #6
    for (uint8_t i = 0; i < 6; i++) {
        *(values+i) = getByte(ADXL345_SCK_PIN,ADXL345_MISO_PIN);
     12e:	4e08      	ldr	r6, [pc, #32]	; (150 <getADXL345Event+0x3c>)
     130:	200f      	movs	r0, #15
     132:	210e      	movs	r1, #14
     134:	47b0      	blx	r6
     136:	7020      	strb	r0, [r4, #0]
     138:	3401      	adds	r4, #1

void getADXL345Event(uint8_t *values) {

    SaLDigitalOut(ADXL345_SLAVE_SELECT_PIN,false);
    byteOut(ADXL345_SCK_PIN,ADXL345_MOSI_PIN,ADXL345_REG_DATAX0 | 0x80 | 0x40);
    for (uint8_t i = 0; i < 6; i++) {
     13a:	42ac      	cmp	r4, r5
     13c:	d1f8      	bne.n	130 <getADXL345Event+0x1c>
    PortGroup *const port = SaLGetPort(pin);
    uint32_t pin_mask = (1UL << (pin % 32));


    if (level) {
        port->OUTSET.reg = pin_mask;
     13e:	2280      	movs	r2, #128	; 0x80
     140:	0252      	lsls	r2, r2, #9
     142:	4b01      	ldr	r3, [pc, #4]	; (148 <getADXL345Event+0x34>)
     144:	619a      	str	r2, [r3, #24]
        *(values+i) = getByte(ADXL345_SCK_PIN,ADXL345_MISO_PIN);
    }
    SaLDigitalOut(ADXL345_SLAVE_SELECT_PIN,true);
}
     146:	bd70      	pop	{r4, r5, r6, pc}
     148:	41004400 	.word	0x41004400
     14c:	00000875 	.word	0x00000875
     150:	000008d5 	.word	0x000008d5

00000154 <readMS5607AdcResults>:

    return _receive;

}

uint32_t readMS5607AdcResults(){
     154:	b5f0      	push	{r4, r5, r6, r7, lr}
     156:	4647      	mov	r7, r8
     158:	b480      	push	{r7}
     15a:	b082      	sub	sp, #8
    } else {
        port->OUTCLR.reg = pin_mask;
     15c:	4f14      	ldr	r7, [pc, #80]	; (1b0 <readMS5607AdcResults+0x5c>)
     15e:	2380      	movs	r3, #128	; 0x80
     160:	009b      	lsls	r3, r3, #2
     162:	4698      	mov	r8, r3
     164:	617b      	str	r3, [r7, #20]
	
	 SaLDigitalOut(MS5607_SLAVE_SELECT_PIN,false);
	 byteOut(MS5607_SCK_PIN,MS5607_MOSI_PIN,cmdAdcRead_);
     166:	200f      	movs	r0, #15
     168:	210d      	movs	r1, #13
     16a:	2200      	movs	r2, #0
     16c:	4b11      	ldr	r3, [pc, #68]	; (1b4 <readMS5607AdcResults+0x60>)
     16e:	4798      	blx	r3
	 volatile uint8_t _byte1 = getByte(MS5607_SCK_PIN,MS5607_MISO_PIN);
     170:	200f      	movs	r0, #15
     172:	210e      	movs	r1, #14
     174:	4c10      	ldr	r4, [pc, #64]	; (1b8 <readMS5607AdcResults+0x64>)
     176:	47a0      	blx	r4
     178:	466b      	mov	r3, sp
     17a:	1dde      	adds	r6, r3, #7
     17c:	71d8      	strb	r0, [r3, #7]
	 volatile uint8_t _byte2 = getByte(MS5607_SCK_PIN,MS5607_MISO_PIN);
     17e:	200f      	movs	r0, #15
     180:	210e      	movs	r1, #14
     182:	47a0      	blx	r4
     184:	466b      	mov	r3, sp
     186:	1d9d      	adds	r5, r3, #6
     188:	7198      	strb	r0, [r3, #6]
	 volatile uint8_t _byte3 = getByte(MS5607_SCK_PIN,MS5607_MISO_PIN);
     18a:	200f      	movs	r0, #15
     18c:	210e      	movs	r1, #14
     18e:	47a0      	blx	r4
     190:	466b      	mov	r3, sp
     192:	1d5a      	adds	r2, r3, #5
     194:	7158      	strb	r0, [r3, #5]
    PortGroup *const port = SaLGetPort(pin);
    uint32_t pin_mask = (1UL << (pin % 32));


    if (level) {
        port->OUTSET.reg = pin_mask;
     196:	4643      	mov	r3, r8
     198:	61bb      	str	r3, [r7, #24]
	 SaLDigitalOut(MS5607_SLAVE_SELECT_PIN,true);
	 
	 uint32_t _receive = (_byte1 << 16) | (_byte2 << 8) | (_byte3);
     19a:	7830      	ldrb	r0, [r6, #0]
     19c:	782b      	ldrb	r3, [r5, #0]
     19e:	7812      	ldrb	r2, [r2, #0]
     1a0:	0400      	lsls	r0, r0, #16
     1a2:	021b      	lsls	r3, r3, #8
     1a4:	4318      	orrs	r0, r3
     1a6:	4310      	orrs	r0, r2
	 return _receive;
}
     1a8:	b002      	add	sp, #8
     1aa:	bc04      	pop	{r2}
     1ac:	4690      	mov	r8, r2
     1ae:	bdf0      	pop	{r4, r5, r6, r7, pc}
     1b0:	41004400 	.word	0x41004400
     1b4:	00000875 	.word	0x00000875
     1b8:	000008d5 	.word	0x000008d5

000001bc <getMS5607Coeff>:

void getMS5607Coeff(uint16_t *coefficients) {
     1bc:	b5f8      	push	{r3, r4, r5, r6, r7, lr}
     1be:	465f      	mov	r7, fp
     1c0:	4656      	mov	r6, sl
     1c2:	464d      	mov	r5, r9
     1c4:	4644      	mov	r4, r8
     1c6:	b4f0      	push	{r4, r5, r6, r7}
     1c8:	4681      	mov	r9, r0
     1ca:	2400      	movs	r4, #0

    for (uint8_t coeff_num = 0; coeff_num < 6 ; ++coeff_num ) {
        delay_us(600);
     1cc:	4f15      	ldr	r7, [pc, #84]	; (224 <getMS5607Coeff+0x68>)
        uint8_t _cmd = MS5607_CMD_PROM_READ + ((coeff_num+1)*2);
        delay_us(600);
        SaLDigitalOut(MS5607_SLAVE_SELECT_PIN,false);
        byteOut(MS5607_SCK_PIN,MS5607_MOSI_PIN,_cmd);
     1ce:	4b16      	ldr	r3, [pc, #88]	; (228 <getMS5607Coeff+0x6c>)
     1d0:	4698      	mov	r8, r3
        uint8_t _byte1 = getByte(MS5607_SCK_PIN,MS5607_MISO_PIN);
     1d2:	4e16      	ldr	r6, [pc, #88]	; (22c <getMS5607Coeff+0x70>)
}

void getMS5607Coeff(uint16_t *coefficients) {

    for (uint8_t coeff_num = 0; coeff_num < 6 ; ++coeff_num ) {
        delay_us(600);
     1d4:	2596      	movs	r5, #150	; 0x96
     1d6:	00ad      	lsls	r5, r5, #2
     1d8:	1c28      	adds	r0, r5, #0
     1da:	47b8      	blx	r7
        uint8_t _cmd = MS5607_CMD_PROM_READ + ((coeff_num+1)*2);
        delay_us(600);
     1dc:	1c28      	adds	r0, r5, #0
     1de:	47b8      	blx	r7
    } else {
        port->OUTCLR.reg = pin_mask;
     1e0:	4d13      	ldr	r5, [pc, #76]	; (230 <getMS5607Coeff+0x74>)
     1e2:	2380      	movs	r3, #128	; 0x80
     1e4:	009b      	lsls	r3, r3, #2
     1e6:	469b      	mov	fp, r3
     1e8:	616b      	str	r3, [r5, #20]
     1ea:	1c22      	adds	r2, r4, #0
     1ec:	3a5e      	subs	r2, #94	; 0x5e
        SaLDigitalOut(MS5607_SLAVE_SELECT_PIN,false);
        byteOut(MS5607_SCK_PIN,MS5607_MOSI_PIN,_cmd);
     1ee:	b2d2      	uxtb	r2, r2
     1f0:	200f      	movs	r0, #15
     1f2:	210d      	movs	r1, #13
     1f4:	47c0      	blx	r8
        uint8_t _byte1 = getByte(MS5607_SCK_PIN,MS5607_MISO_PIN);
     1f6:	200f      	movs	r0, #15
     1f8:	210e      	movs	r1, #14
     1fa:	47b0      	blx	r6
     1fc:	4682      	mov	sl, r0
        uint8_t _byte2 = getByte(MS5607_SCK_PIN,MS5607_MISO_PIN);
     1fe:	200f      	movs	r0, #15
     200:	210e      	movs	r1, #14
     202:	47b0      	blx	r6
    PortGroup *const port = SaLGetPort(pin);
    uint32_t pin_mask = (1UL << (pin % 32));


    if (level) {
        port->OUTSET.reg = pin_mask;
     204:	465b      	mov	r3, fp
     206:	61ab      	str	r3, [r5, #24]
        SaLDigitalOut(MS5607_SLAVE_SELECT_PIN,true);
        *(coefficients+coeff_num) = (_byte1 << 8) | _byte2;
     208:	4653      	mov	r3, sl
     20a:	021d      	lsls	r5, r3, #8
     20c:	4328      	orrs	r0, r5
     20e:	464b      	mov	r3, r9
     210:	5318      	strh	r0, [r3, r4]
     212:	3402      	adds	r4, #2
	 return _receive;
}

void getMS5607Coeff(uint16_t *coefficients) {

    for (uint8_t coeff_num = 0; coeff_num < 6 ; ++coeff_num ) {
     214:	2c0c      	cmp	r4, #12
     216:	d1dd      	bne.n	1d4 <getMS5607Coeff+0x18>
        uint8_t _byte1 = getByte(MS5607_SCK_PIN,MS5607_MISO_PIN);
        uint8_t _byte2 = getByte(MS5607_SCK_PIN,MS5607_MISO_PIN);
        SaLDigitalOut(MS5607_SLAVE_SELECT_PIN,true);
        *(coefficients+coeff_num) = (_byte1 << 8) | _byte2;
    }
}
     218:	bc3c      	pop	{r2, r3, r4, r5}
     21a:	4690      	mov	r8, r2
     21c:	4699      	mov	r9, r3
     21e:	46a2      	mov	sl, r4
     220:	46ab      	mov	fp, r5
     222:	bdf8      	pop	{r3, r4, r5, r6, r7, pc}
     224:	00000a79 	.word	0x00000a79
     228:	00000875 	.word	0x00000875
     22c:	000008d5 	.word	0x000008d5
     230:	41004400 	.word	0x41004400

00000234 <ConvertPressureTemperature>:
uint32_t ConvertPressureTemperature(uint32_t *pressure, uint32_t *temperature, uint16_t *coefficients) {
     234:	b5f0      	push	{r4, r5, r6, r7, lr}
     236:	4657      	mov	r7, sl
     238:	464e      	mov	r6, r9
     23a:	4645      	mov	r5, r8
     23c:	b4e0      	push	{r5, r6, r7}
     23e:	b088      	sub	sp, #32
     240:	4680      	mov	r8, r0
    const uint64_t C1 = (uint64_t)(*coefficients);
     242:	8813      	ldrh	r3, [r2, #0]
     244:	469a      	mov	sl, r3
    const uint64_t C2 = (uint64_t)(*(coefficients + 1));
     246:	8857      	ldrh	r7, [r2, #2]
    const uint64_t C3 = (uint64_t)(*(coefficients + 2));
     248:	8893      	ldrh	r3, [r2, #4]
     24a:	4699      	mov	r9, r3
    const uint64_t C4 = (uint64_t)(*(coefficients + 3));
     24c:	88d4      	ldrh	r4, [r2, #6]
    const uint64_t C5 = (uint64_t)(*(coefficients + 4));
    const uint64_t C6 = (uint64_t)(*(coefficients + 5));
     24e:	8950      	ldrh	r0, [r2, #10]

    // calculate 1st order pressure and temperature (MS5607 1st order algorithm)
    const volatile int32_t dT    = *temperature - (C5 * 256);
     250:	8913      	ldrh	r3, [r2, #8]
     252:	021b      	lsls	r3, r3, #8
     254:	680a      	ldr	r2, [r1, #0]
     256:	1ad3      	subs	r3, r2, r3
     258:	9307      	str	r3, [sp, #28]
    const volatile int32_t temp  = 2000 + (dT * C6) / (8388608) ;
     25a:	9a07      	ldr	r2, [sp, #28]
     25c:	17d3      	asrs	r3, r2, #31
     25e:	4e26      	ldr	r6, [pc, #152]	; (2f8 <ConvertPressureTemperature+0xc4>)
     260:	2100      	movs	r1, #0
     262:	47b0      	blx	r6
     264:	0249      	lsls	r1, r1, #9
     266:	0dc0      	lsrs	r0, r0, #23
     268:	4308      	orrs	r0, r1
     26a:	23fa      	movs	r3, #250	; 0xfa
     26c:	00db      	lsls	r3, r3, #3
     26e:	469c      	mov	ip, r3
     270:	4460      	add	r0, ip
     272:	9006      	str	r0, [sp, #24]

    const volatile int64_t OFF   = (C2 * (131072)) + ((C4 * dT) / (64));
     274:	9a07      	ldr	r2, [sp, #28]
     276:	17d3      	asrs	r3, r2, #31
     278:	1c20      	adds	r0, r4, #0
     27a:	2100      	movs	r1, #0
     27c:	47b0      	blx	r6
     27e:	068b      	lsls	r3, r1, #26
     280:	0984      	lsrs	r4, r0, #6
     282:	431c      	orrs	r4, r3
     284:	098d      	lsrs	r5, r1, #6
     286:	0bfb      	lsrs	r3, r7, #15
     288:	047a      	lsls	r2, r7, #17
     28a:	1912      	adds	r2, r2, r4
     28c:	416b      	adcs	r3, r5
     28e:	9204      	str	r2, [sp, #16]
     290:	9305      	str	r3, [sp, #20]
    const volatile int64_t SENS  = (C1 * (65536)) + ((C3 * dT) / (128));
     292:	9a07      	ldr	r2, [sp, #28]
     294:	17d3      	asrs	r3, r2, #31
     296:	4648      	mov	r0, r9
     298:	2100      	movs	r1, #0
     29a:	47b0      	blx	r6
     29c:	064c      	lsls	r4, r1, #25
     29e:	09c2      	lsrs	r2, r0, #7
     2a0:	4322      	orrs	r2, r4
     2a2:	09cb      	lsrs	r3, r1, #7
     2a4:	2100      	movs	r1, #0
     2a6:	4654      	mov	r4, sl
     2a8:	0420      	lsls	r0, r4, #16
     2aa:	1812      	adds	r2, r2, r0
     2ac:	414b      	adcs	r3, r1
     2ae:	9202      	str	r2, [sp, #8]
     2b0:	9303      	str	r3, [sp, #12]
    const volatile int32_t press = ((*pressure * SENS / (2097152) - OFF) / (32768));
     2b2:	9a02      	ldr	r2, [sp, #8]
     2b4:	9b03      	ldr	r3, [sp, #12]
     2b6:	9c04      	ldr	r4, [sp, #16]
     2b8:	9d05      	ldr	r5, [sp, #20]
     2ba:	4641      	mov	r1, r8
     2bc:	6808      	ldr	r0, [r1, #0]
     2be:	2100      	movs	r1, #0
     2c0:	47b0      	blx	r6
     2c2:	17ce      	asrs	r6, r1, #31
     2c4:	0af2      	lsrs	r2, r6, #11
     2c6:	2300      	movs	r3, #0
     2c8:	1880      	adds	r0, r0, r2
     2ca:	4159      	adcs	r1, r3
     2cc:	02ce      	lsls	r6, r1, #11
     2ce:	0d42      	lsrs	r2, r0, #21
     2d0:	4332      	orrs	r2, r6
     2d2:	154b      	asrs	r3, r1, #21
     2d4:	1b12      	subs	r2, r2, r4
     2d6:	41ab      	sbcs	r3, r5
     2d8:	17dc      	asrs	r4, r3, #31
     2da:	0c60      	lsrs	r0, r4, #17
     2dc:	2100      	movs	r1, #0
     2de:	1812      	adds	r2, r2, r0
     2e0:	414b      	adcs	r3, r1
     2e2:	045b      	lsls	r3, r3, #17
     2e4:	0bd2      	lsrs	r2, r2, #15
     2e6:	431a      	orrs	r2, r3
     2e8:	9201      	str	r2, [sp, #4]
    return press;
     2ea:	9801      	ldr	r0, [sp, #4]
}
     2ec:	b008      	add	sp, #32
     2ee:	bc1c      	pop	{r2, r3, r4}
     2f0:	4690      	mov	r8, r2
     2f2:	4699      	mov	r9, r3
     2f4:	46a2      	mov	sl, r4
     2f6:	bdf0      	pop	{r4, r5, r6, r7, pc}
     2f8:	00004591 	.word	0x00004591

000002fc <paToFeetNOAA>:
// 
//     return AltFt;
// }


uint32_t paToFeetNOAA(const int32_t pressurePa) {
     2fc:	b538      	push	{r3, r4, r5, lr}
    double pressMillibar = 0.01 *pressurePa;
     2fe:	4b0d      	ldr	r3, [pc, #52]	; (334 <paToFeetNOAA+0x38>)
     300:	4798      	blx	r3
     302:	4c0d      	ldr	r4, [pc, #52]	; (338 <paToFeetNOAA+0x3c>)
     304:	4a0d      	ldr	r2, [pc, #52]	; (33c <paToFeetNOAA+0x40>)
     306:	4b0e      	ldr	r3, [pc, #56]	; (340 <paToFeetNOAA+0x44>)
     308:	47a0      	blx	r4

    double altFeet = (1-pow((pressMillibar/1013.25),(0.190284)))*145366.45;
     30a:	2200      	movs	r2, #0
     30c:	4b0d      	ldr	r3, [pc, #52]	; (344 <paToFeetNOAA+0x48>)
     30e:	4d0e      	ldr	r5, [pc, #56]	; (348 <paToFeetNOAA+0x4c>)
     310:	47a8      	blx	r5
     312:	4a0e      	ldr	r2, [pc, #56]	; (34c <paToFeetNOAA+0x50>)
     314:	4b0e      	ldr	r3, [pc, #56]	; (350 <paToFeetNOAA+0x54>)
     316:	4d0f      	ldr	r5, [pc, #60]	; (354 <paToFeetNOAA+0x58>)
     318:	47a8      	blx	r5
     31a:	1c02      	adds	r2, r0, #0
     31c:	1c0b      	adds	r3, r1, #0
     31e:	2000      	movs	r0, #0
     320:	490d      	ldr	r1, [pc, #52]	; (358 <paToFeetNOAA+0x5c>)
     322:	4d0e      	ldr	r5, [pc, #56]	; (35c <paToFeetNOAA+0x60>)
     324:	47a8      	blx	r5
     326:	4a0e      	ldr	r2, [pc, #56]	; (360 <paToFeetNOAA+0x64>)
     328:	4b0e      	ldr	r3, [pc, #56]	; (364 <paToFeetNOAA+0x68>)
     32a:	47a0      	blx	r4
    return (uint32_t)altFeet;
     32c:	4b0e      	ldr	r3, [pc, #56]	; (368 <paToFeetNOAA+0x6c>)
     32e:	4798      	blx	r3
}
     330:	bd38      	pop	{r3, r4, r5, pc}
     332:	46c0      	nop			; (mov r8, r8)
     334:	00006e45 	.word	0x00006e45
     338:	000061b1 	.word	0x000061b1
     33c:	47ae147b 	.word	0x47ae147b
     340:	3f847ae1 	.word	0x3f847ae1
     344:	408faa00 	.word	0x408faa00
     348:	00005935 	.word	0x00005935
     34c:	e279dd3c 	.word	0xe279dd3c
     350:	3fc85b39 	.word	0x3fc85b39
     354:	000010e9 	.word	0x000010e9
     358:	3ff00000 	.word	0x3ff00000
     35c:	000066e5 	.word	0x000066e5
     360:	9999999a 	.word	0x9999999a
     364:	4101beb3 	.word	0x4101beb3
     368:	00004615 	.word	0x00004615

0000036c <MTK3329ParseGPRMC>:

#include <MTK3329.h>

void MTK3329ParseGPRMC(struct MTK3329Module *const myMTK3329, uint8_t *const message) {
     36c:	b5f0      	push	{r4, r5, r6, r7, lr}
     36e:	465f      	mov	r7, fp
     370:	4656      	mov	r6, sl
     372:	464d      	mov	r5, r9
     374:	4644      	mov	r4, r8
     376:	b4f0      	push	{r4, r5, r6, r7}
     378:	b089      	sub	sp, #36	; 0x24
     37a:	1c04      	adds	r4, r0, #0
    float longitude;
    char *RMCMessage = message;
    char degreebuff[10];

    // parse time
    RMCMessage = strchr(RMCMessage,',')+1;
     37c:	1c08      	adds	r0, r1, #0
     37e:	212c      	movs	r1, #44	; 0x2c
     380:	4f79      	ldr	r7, [pc, #484]	; (568 <MTK3329ParseGPRMC+0x1fc>)
     382:	47b8      	blx	r7
     384:	1c43      	adds	r3, r0, #1
    myMTK3329->timef = atof(RMCMessage);
     386:	9302      	str	r3, [sp, #8]
     388:	1c18      	adds	r0, r3, #0
     38a:	4b78      	ldr	r3, [pc, #480]	; (56c <MTK3329ParseGPRMC+0x200>)
     38c:	4798      	blx	r3
     38e:	4b78      	ldr	r3, [pc, #480]	; (570 <MTK3329ParseGPRMC+0x204>)
     390:	4798      	blx	r3
     392:	6020      	str	r0, [r4, #0]
    uint32_t time = myMTK3329->timef;
     394:	4b77      	ldr	r3, [pc, #476]	; (574 <MTK3329ParseGPRMC+0x208>)
     396:	4798      	blx	r3
    myMTK3329->hour = time/10000;
     398:	4d77      	ldr	r5, [pc, #476]	; (578 <MTK3329ParseGPRMC+0x20c>)
     39a:	9001      	str	r0, [sp, #4]
     39c:	4977      	ldr	r1, [pc, #476]	; (57c <MTK3329ParseGPRMC+0x210>)
     39e:	47a8      	blx	r5
     3a0:	7120      	strb	r0, [r4, #4]
    myMTK3329->minute = (time % 10000)/ 100;
     3a2:	4e77      	ldr	r6, [pc, #476]	; (580 <MTK3329ParseGPRMC+0x214>)
     3a4:	9801      	ldr	r0, [sp, #4]
     3a6:	4975      	ldr	r1, [pc, #468]	; (57c <MTK3329ParseGPRMC+0x210>)
     3a8:	47b0      	blx	r6
     3aa:	1c08      	adds	r0, r1, #0
     3ac:	2164      	movs	r1, #100	; 0x64
     3ae:	47a8      	blx	r5
     3b0:	7160      	strb	r0, [r4, #5]
    myMTK3329->second = (time % 100);
     3b2:	9801      	ldr	r0, [sp, #4]
     3b4:	2164      	movs	r1, #100	; 0x64
     3b6:	47b0      	blx	r6
     3b8:	71a1      	strb	r1, [r4, #6]

    //parse valid data
    RMCMessage = strchr(RMCMessage,',')+1;
     3ba:	9802      	ldr	r0, [sp, #8]
     3bc:	212c      	movs	r1, #44	; 0x2c
     3be:	47b8      	blx	r7
     3c0:	1c03      	adds	r3, r0, #0
     3c2:	3001      	adds	r0, #1
    if (RMCMessage[0] == 'A') {
     3c4:	785b      	ldrb	r3, [r3, #1]
     3c6:	2b41      	cmp	r3, #65	; 0x41
     3c8:	d102      	bne.n	3d0 <MTK3329ParseGPRMC+0x64>
        myMTK3329->validSalad = true;
     3ca:	3b40      	subs	r3, #64	; 0x40
     3cc:	7423      	strb	r3, [r4, #16]
     3ce:	e003      	b.n	3d8 <MTK3329ParseGPRMC+0x6c>
    } else if (RMCMessage[0] == 'V') {
     3d0:	2b56      	cmp	r3, #86	; 0x56
     3d2:	d101      	bne.n	3d8 <MTK3329ParseGPRMC+0x6c>
        myMTK3329->validSalad = false;
     3d4:	2300      	movs	r3, #0
     3d6:	7423      	strb	r3, [r4, #16]
    }

    //parse latitude
    RMCMessage = strchr(RMCMessage,',')+1;
     3d8:	212c      	movs	r1, #44	; 0x2c
     3da:	4b63      	ldr	r3, [pc, #396]	; (568 <MTK3329ParseGPRMC+0x1fc>)
     3dc:	4699      	mov	r9, r3
     3de:	4798      	blx	r3
     3e0:	1c05      	adds	r5, r0, #0
    strncpy(degreebuff, RMCMessage,2);
     3e2:	ae05      	add	r6, sp, #20
    } else if (RMCMessage[0] == 'V') {
        myMTK3329->validSalad = false;
    }

    //parse latitude
    RMCMessage = strchr(RMCMessage,',')+1;
     3e4:	1c41      	adds	r1, r0, #1
    strncpy(degreebuff, RMCMessage,2);
     3e6:	1c30      	adds	r0, r6, #0
     3e8:	2202      	movs	r2, #2
     3ea:	4f66      	ldr	r7, [pc, #408]	; (584 <MTK3329ParseGPRMC+0x218>)
     3ec:	47b8      	blx	r7
    RMCMessage += 2;
    degreebuff[2] = '\0';
     3ee:	2300      	movs	r3, #0
     3f0:	469b      	mov	fp, r3
     3f2:	70b3      	strb	r3, [r6, #2]
    long degree = atol(degreebuff) * 10000000;
     3f4:	1c30      	adds	r0, r6, #0
     3f6:	4b64      	ldr	r3, [pc, #400]	; (588 <MTK3329ParseGPRMC+0x21c>)
     3f8:	469a      	mov	sl, r3
     3fa:	4798      	blx	r3
     3fc:	4680      	mov	r8, r0
    strncpy(degreebuff, RMCMessage, 2); // minutes
     3fe:	1ce9      	adds	r1, r5, #3
     400:	1c30      	adds	r0, r6, #0
     402:	2202      	movs	r2, #2
     404:	47b8      	blx	r7
    RMCMessage += 3; // skip decimal point
     406:	1dab      	adds	r3, r5, #6
    strncpy(degreebuff + 2, RMCMessage, 4);
     408:	aa04      	add	r2, sp, #16
     40a:	1d90      	adds	r0, r2, #6
     40c:	9301      	str	r3, [sp, #4]
     40e:	1c19      	adds	r1, r3, #0
     410:	2204      	movs	r2, #4
     412:	47b8      	blx	r7
    degreebuff[6] = '\0';
     414:	465a      	mov	r2, fp
     416:	71b2      	strb	r2, [r6, #6]
    long minutes = 50 * atol(degreebuff) / 3;
     418:	1c30      	adds	r0, r6, #0
     41a:	47d0      	blx	sl
     41c:	1c06      	adds	r6, r0, #0
    //parse latitude
    RMCMessage = strchr(RMCMessage,',')+1;
    strncpy(degreebuff, RMCMessage,2);
    RMCMessage += 2;
    degreebuff[2] = '\0';
    long degree = atol(degreebuff) * 10000000;
     41e:	485b      	ldr	r0, [pc, #364]	; (58c <MTK3329ParseGPRMC+0x220>)
     420:	4642      	mov	r2, r8
     422:	4350      	muls	r0, r2
    strncpy(degreebuff, RMCMessage, 2); // minutes
    RMCMessage += 3; // skip decimal point
    strncpy(degreebuff + 2, RMCMessage, 4);
    degreebuff[6] = '\0';
    long minutes = 50 * atol(degreebuff) / 3;
    latitude = degree / 100000 + minutes * 0.000006F;
     424:	4f5a      	ldr	r7, [pc, #360]	; (590 <MTK3329ParseGPRMC+0x224>)
     426:	495b      	ldr	r1, [pc, #364]	; (594 <MTK3329ParseGPRMC+0x228>)
     428:	47b8      	blx	r7
     42a:	4d5b      	ldr	r5, [pc, #364]	; (598 <MTK3329ParseGPRMC+0x22c>)
     42c:	47a8      	blx	r5
     42e:	9002      	str	r0, [sp, #8]
    long degree = atol(degreebuff) * 10000000;
    strncpy(degreebuff, RMCMessage, 2); // minutes
    RMCMessage += 3; // skip decimal point
    strncpy(degreebuff + 2, RMCMessage, 4);
    degreebuff[6] = '\0';
    long minutes = 50 * atol(degreebuff) / 3;
     430:	2032      	movs	r0, #50	; 0x32
     432:	4370      	muls	r0, r6
     434:	2103      	movs	r1, #3
     436:	47b8      	blx	r7
    latitude = degree / 100000 + minutes * 0.000006F;
     438:	47a8      	blx	r5
     43a:	4958      	ldr	r1, [pc, #352]	; (59c <MTK3329ParseGPRMC+0x230>)
     43c:	4b58      	ldr	r3, [pc, #352]	; (5a0 <MTK3329ParseGPRMC+0x234>)
     43e:	4798      	blx	r3
     440:	1c01      	adds	r1, r0, #0
     442:	4f58      	ldr	r7, [pc, #352]	; (5a4 <MTK3329ParseGPRMC+0x238>)
     444:	9802      	ldr	r0, [sp, #8]
     446:	47b8      	blx	r7
    myMTK3329->latitude = (latitude-100*(int)(latitude/100))/60.0;
     448:	4e57      	ldr	r6, [pc, #348]	; (5a8 <MTK3329ParseGPRMC+0x23c>)
     44a:	9003      	str	r0, [sp, #12]
     44c:	4957      	ldr	r1, [pc, #348]	; (5ac <MTK3329ParseGPRMC+0x240>)
     44e:	47b0      	blx	r6
     450:	4b57      	ldr	r3, [pc, #348]	; (5b0 <MTK3329ParseGPRMC+0x244>)
     452:	4798      	blx	r3
     454:	1c02      	adds	r2, r0, #0
     456:	2064      	movs	r0, #100	; 0x64
     458:	9202      	str	r2, [sp, #8]
     45a:	4350      	muls	r0, r2
     45c:	47a8      	blx	r5
     45e:	1c01      	adds	r1, r0, #0
     460:	9803      	ldr	r0, [sp, #12]
     462:	4b54      	ldr	r3, [pc, #336]	; (5b4 <MTK3329ParseGPRMC+0x248>)
     464:	4798      	blx	r3
     466:	4954      	ldr	r1, [pc, #336]	; (5b8 <MTK3329ParseGPRMC+0x24c>)
     468:	47b0      	blx	r6
     46a:	1c06      	adds	r6, r0, #0
    myMTK3329->latitude += (int)(latitude/100);
     46c:	9802      	ldr	r0, [sp, #8]
     46e:	47a8      	blx	r5
     470:	1c01      	adds	r1, r0, #0
     472:	1c30      	adds	r0, r6, #0
     474:	47b8      	blx	r7
     476:	1c06      	adds	r6, r0, #0
     478:	60e0      	str	r0, [r4, #12]

    RMCMessage = strchr(RMCMessage, ',')+1;
     47a:	9801      	ldr	r0, [sp, #4]
     47c:	212c      	movs	r1, #44	; 0x2c
     47e:	47c8      	blx	r9
     480:	1c03      	adds	r3, r0, #0
     482:	3001      	adds	r0, #1
    if (',' != *RMCMessage) {
        if (RMCMessage[0] == 'S') {
     484:	785b      	ldrb	r3, [r3, #1]
     486:	2b53      	cmp	r3, #83	; 0x53
     488:	d104      	bne.n	494 <MTK3329ParseGPRMC+0x128>
            myMTK3329->latitude *= -1.0;
     48a:	2380      	movs	r3, #128	; 0x80
     48c:	061b      	lsls	r3, r3, #24
     48e:	469c      	mov	ip, r3
     490:	4466      	add	r6, ip
     492:	60e6      	str	r6, [r4, #12]
        };
    };


//parse longitude
    RMCMessage = strchr(RMCMessage,',')+1;
     494:	212c      	movs	r1, #44	; 0x2c
     496:	4b34      	ldr	r3, [pc, #208]	; (568 <MTK3329ParseGPRMC+0x1fc>)
     498:	4798      	blx	r3
     49a:	1c05      	adds	r5, r0, #0
     49c:	1c47      	adds	r7, r0, #1
    if (',' != *RMCMessage) {
     49e:	7843      	ldrb	r3, [r0, #1]
     4a0:	2b2c      	cmp	r3, #44	; 0x2c
     4a2:	d04c      	beq.n	53e <MTK3329ParseGPRMC+0x1d2>
        strncpy(degreebuff, RMCMessage, 3);
     4a4:	ae05      	add	r6, sp, #20
     4a6:	1c30      	adds	r0, r6, #0
     4a8:	1c39      	adds	r1, r7, #0
     4aa:	2203      	movs	r2, #3
     4ac:	4b35      	ldr	r3, [pc, #212]	; (584 <MTK3329ParseGPRMC+0x218>)
     4ae:	4698      	mov	r8, r3
     4b0:	4798      	blx	r3
        RMCMessage += 3;
        degreebuff[3] = '\0';
     4b2:	2300      	movs	r3, #0
     4b4:	469b      	mov	fp, r3
     4b6:	70f3      	strb	r3, [r6, #3]
        degree = atol(degreebuff) * 10000000;
     4b8:	1c30      	adds	r0, r6, #0
     4ba:	4b33      	ldr	r3, [pc, #204]	; (588 <MTK3329ParseGPRMC+0x21c>)
     4bc:	4699      	mov	r9, r3
     4be:	4798      	blx	r3
     4c0:	4682      	mov	sl, r0
        strncpy(degreebuff, RMCMessage, 2); // minutes
     4c2:	1d29      	adds	r1, r5, #4
     4c4:	1c30      	adds	r0, r6, #0
     4c6:	2202      	movs	r2, #2
     4c8:	47c0      	blx	r8
        RMCMessage += 3; // skip decimal point
     4ca:	1def      	adds	r7, r5, #7
        strncpy(degreebuff + 2, RMCMessage, 4);
     4cc:	ab04      	add	r3, sp, #16
     4ce:	1d98      	adds	r0, r3, #6
     4d0:	1c39      	adds	r1, r7, #0
     4d2:	2204      	movs	r2, #4
     4d4:	47c0      	blx	r8
        degreebuff[6] = '\0';
     4d6:	465b      	mov	r3, fp
     4d8:	71b3      	strb	r3, [r6, #6]
        minutes = 50 * atol(degreebuff) / 3;
     4da:	1c30      	adds	r0, r6, #0
     4dc:	47c8      	blx	r9
     4de:	4681      	mov	r9, r0
    RMCMessage = strchr(RMCMessage,',')+1;
    if (',' != *RMCMessage) {
        strncpy(degreebuff, RMCMessage, 3);
        RMCMessage += 3;
        degreebuff[3] = '\0';
        degree = atol(degreebuff) * 10000000;
     4e0:	482a      	ldr	r0, [pc, #168]	; (58c <MTK3329ParseGPRMC+0x220>)
     4e2:	4653      	mov	r3, sl
     4e4:	4358      	muls	r0, r3
        strncpy(degreebuff, RMCMessage, 2); // minutes
        RMCMessage += 3; // skip decimal point
        strncpy(degreebuff + 2, RMCMessage, 4);
        degreebuff[6] = '\0';
        minutes = 50 * atol(degreebuff) / 3;
        longitude = degree / 100000 + minutes * 0.000006F;
     4e6:	4e2a      	ldr	r6, [pc, #168]	; (590 <MTK3329ParseGPRMC+0x224>)
     4e8:	492a      	ldr	r1, [pc, #168]	; (594 <MTK3329ParseGPRMC+0x228>)
     4ea:	47b0      	blx	r6
     4ec:	4d2a      	ldr	r5, [pc, #168]	; (598 <MTK3329ParseGPRMC+0x22c>)
     4ee:	47a8      	blx	r5
     4f0:	9001      	str	r0, [sp, #4]
        degree = atol(degreebuff) * 10000000;
        strncpy(degreebuff, RMCMessage, 2); // minutes
        RMCMessage += 3; // skip decimal point
        strncpy(degreebuff + 2, RMCMessage, 4);
        degreebuff[6] = '\0';
        minutes = 50 * atol(degreebuff) / 3;
     4f2:	2032      	movs	r0, #50	; 0x32
     4f4:	464b      	mov	r3, r9
     4f6:	4358      	muls	r0, r3
     4f8:	2103      	movs	r1, #3
     4fa:	47b0      	blx	r6
        longitude = degree / 100000 + minutes * 0.000006F;
     4fc:	47a8      	blx	r5
     4fe:	4927      	ldr	r1, [pc, #156]	; (59c <MTK3329ParseGPRMC+0x230>)
     500:	4b27      	ldr	r3, [pc, #156]	; (5a0 <MTK3329ParseGPRMC+0x234>)
     502:	4798      	blx	r3
     504:	1c01      	adds	r1, r0, #0
     506:	4e27      	ldr	r6, [pc, #156]	; (5a4 <MTK3329ParseGPRMC+0x238>)
     508:	9801      	ldr	r0, [sp, #4]
     50a:	47b0      	blx	r6
        myMTK3329->longitude = (longitude-100*(int)(longitude/100))/60.0;
     50c:	4b26      	ldr	r3, [pc, #152]	; (5a8 <MTK3329ParseGPRMC+0x23c>)
     50e:	469a      	mov	sl, r3
     510:	9002      	str	r0, [sp, #8]
     512:	4926      	ldr	r1, [pc, #152]	; (5ac <MTK3329ParseGPRMC+0x240>)
     514:	4798      	blx	r3
     516:	4b26      	ldr	r3, [pc, #152]	; (5b0 <MTK3329ParseGPRMC+0x244>)
     518:	4798      	blx	r3
     51a:	1c03      	adds	r3, r0, #0
     51c:	2064      	movs	r0, #100	; 0x64
     51e:	9301      	str	r3, [sp, #4]
     520:	4358      	muls	r0, r3
     522:	47a8      	blx	r5
     524:	1c01      	adds	r1, r0, #0
     526:	9802      	ldr	r0, [sp, #8]
     528:	4b22      	ldr	r3, [pc, #136]	; (5b4 <MTK3329ParseGPRMC+0x248>)
     52a:	4798      	blx	r3
     52c:	4922      	ldr	r1, [pc, #136]	; (5b8 <MTK3329ParseGPRMC+0x24c>)
     52e:	47d0      	blx	sl
     530:	9002      	str	r0, [sp, #8]
        myMTK3329->longitude += (int)(longitude/100);
     532:	9801      	ldr	r0, [sp, #4]
     534:	47a8      	blx	r5
     536:	1c01      	adds	r1, r0, #0
     538:	9802      	ldr	r0, [sp, #8]
     53a:	47b0      	blx	r6
     53c:	60a0      	str	r0, [r4, #8]
    }

    RMCMessage = strchr(RMCMessage, ',')+1;
     53e:	1c38      	adds	r0, r7, #0
     540:	212c      	movs	r1, #44	; 0x2c
     542:	4b09      	ldr	r3, [pc, #36]	; (568 <MTK3329ParseGPRMC+0x1fc>)
     544:	4798      	blx	r3
    if (',' != *RMCMessage) {
        if (RMCMessage[0] == 'W') {
     546:	7843      	ldrb	r3, [r0, #1]
     548:	2b57      	cmp	r3, #87	; 0x57
     54a:	d105      	bne.n	558 <MTK3329ParseGPRMC+0x1ec>
            myMTK3329->longitude *= -1.0;
     54c:	68a3      	ldr	r3, [r4, #8]
     54e:	2280      	movs	r2, #128	; 0x80
     550:	0612      	lsls	r2, r2, #24
     552:	4694      	mov	ip, r2
     554:	4463      	add	r3, ip
     556:	60a3      	str	r3, [r4, #8]
        };

    }

}
     558:	b009      	add	sp, #36	; 0x24
     55a:	bc3c      	pop	{r2, r3, r4, r5}
     55c:	4690      	mov	r8, r2
     55e:	4699      	mov	r9, r3
     560:	46a2      	mov	sl, r4
     562:	46ab      	mov	fp, r5
     564:	bdf0      	pop	{r4, r5, r6, r7, pc}
     566:	46c0      	nop			; (mov r8, r8)
     568:	00002411 	.word	0x00002411
     56c:	00002391 	.word	0x00002391
     570:	00006f21 	.word	0x00006f21
     574:	000045e5 	.word	0x000045e5
     578:	000041d1 	.word	0x000041d1
     57c:	00002710 	.word	0x00002710
     580:	000042dd 	.word	0x000042dd
     584:	0000242d 	.word	0x0000242d
     588:	0000239b 	.word	0x0000239b
     58c:	00989680 	.word	0x00989680
     590:	000042f1 	.word	0x000042f1
     594:	000186a0 	.word	0x000186a0
     598:	000051c5 	.word	0x000051c5
     59c:	36c9539c 	.word	0x36c9539c
     5a0:	00004c25 	.word	0x00004c25
     5a4:	000046bd 	.word	0x000046bd
     5a8:	000049b5 	.word	0x000049b5
     5ac:	42c80000 	.word	0x42c80000
     5b0:	00005185 	.word	0x00005185
     5b4:	00004e89 	.word	0x00004e89
     5b8:	42700000 	.word	0x42700000

000005bc <MTK3329ParseMessage>:




void MTK3329ParseMessage(struct MTK3329Module *const myMTK3329,uint8_t *const messageToParse) {
     5bc:	b5f0      	push	{r4, r5, r6, r7, lr}
     5be:	b085      	sub	sp, #20
     5c0:	9001      	str	r0, [sp, #4]
     5c2:	1c0c      	adds	r4, r1, #0
     5c4:	1c0e      	adds	r6, r1, #0
     5c6:	36ff      	adds	r6, #255	; 0xff
            header[1] = messageToParse[i+4];
            header[2] = messageToParse[i+5];


            if ((header[0] == 0x52) & (header[1] == 0x4d) & (header[2] == 0x43)) {
                MTK3329ParseGPRMC(myMTK3329, &messageToParse[i]);
     5c8:	4f11      	ldr	r7, [pc, #68]	; (610 <MTK3329ParseMessage+0x54>)


void MTK3329ParseMessage(struct MTK3329Module *const myMTK3329,uint8_t *const messageToParse) {
    int32_t i = 0;
    do {
        if (messageToParse[i] == 0x24) {
     5ca:	1c21      	adds	r1, r4, #0
     5cc:	7823      	ldrb	r3, [r4, #0]
     5ce:	2b24      	cmp	r3, #36	; 0x24
     5d0:	d118      	bne.n	604 <MTK3329ParseMessage+0x48>
            volatile uint8_t header[3];
            header[0] = messageToParse[i+3];
     5d2:	78e2      	ldrb	r2, [r4, #3]
     5d4:	ab03      	add	r3, sp, #12
     5d6:	701a      	strb	r2, [r3, #0]
            header[1] = messageToParse[i+4];
     5d8:	7922      	ldrb	r2, [r4, #4]
     5da:	705a      	strb	r2, [r3, #1]
            header[2] = messageToParse[i+5];
     5dc:	7962      	ldrb	r2, [r4, #5]
     5de:	709a      	strb	r2, [r3, #2]


            if ((header[0] == 0x52) & (header[1] == 0x4d) & (header[2] == 0x43)) {
     5e0:	7818      	ldrb	r0, [r3, #0]
     5e2:	785a      	ldrb	r2, [r3, #1]
     5e4:	789b      	ldrb	r3, [r3, #2]
     5e6:	b2dd      	uxtb	r5, r3
     5e8:	1c13      	adds	r3, r2, #0
     5ea:	3b4d      	subs	r3, #77	; 0x4d
     5ec:	425a      	negs	r2, r3
     5ee:	4153      	adcs	r3, r2
     5f0:	1c02      	adds	r2, r0, #0
     5f2:	3a52      	subs	r2, #82	; 0x52
     5f4:	4250      	negs	r0, r2
     5f6:	4142      	adcs	r2, r0
     5f8:	421a      	tst	r2, r3
     5fa:	d003      	beq.n	604 <MTK3329ParseMessage+0x48>
     5fc:	2d43      	cmp	r5, #67	; 0x43
     5fe:	d101      	bne.n	604 <MTK3329ParseMessage+0x48>
                MTK3329ParseGPRMC(myMTK3329, &messageToParse[i]);
     600:	9801      	ldr	r0, [sp, #4]
     602:	47b8      	blx	r7
     604:	3401      	adds	r4, #1
            } else {
            }

        }

    }  while (++i < 255);
     606:	42b4      	cmp	r4, r6
     608:	d1df      	bne.n	5ca <MTK3329ParseMessage+0xe>
}
     60a:	b005      	add	sp, #20
     60c:	bdf0      	pop	{r4, r5, r6, r7, pc}
     60e:	46c0      	nop			; (mov r8, r8)
     610:	0000036d 	.word	0x0000036d

00000614 <_sbrk>:

/**
 * \brief Replacement of C library of _sbrk
 */
extern caddr_t _sbrk(int incr)
{
     614:	1c03      	adds	r3, r0, #0
	static unsigned char *heap = NULL;
	unsigned char *prev_heap;

	if (heap == NULL) {
     616:	4a06      	ldr	r2, [pc, #24]	; (630 <_sbrk+0x1c>)
     618:	6812      	ldr	r2, [r2, #0]
     61a:	2a00      	cmp	r2, #0
     61c:	d102      	bne.n	624 <_sbrk+0x10>
		heap = (unsigned char *)&_end;
     61e:	4905      	ldr	r1, [pc, #20]	; (634 <_sbrk+0x20>)
     620:	4a03      	ldr	r2, [pc, #12]	; (630 <_sbrk+0x1c>)
     622:	6011      	str	r1, [r2, #0]
	}
	prev_heap = heap;
     624:	4a02      	ldr	r2, [pc, #8]	; (630 <_sbrk+0x1c>)
     626:	6810      	ldr	r0, [r2, #0]

	heap += incr;
     628:	18c3      	adds	r3, r0, r3
     62a:	6013      	str	r3, [r2, #0]

	return (caddr_t) prev_heap;
}
     62c:	4770      	bx	lr
     62e:	46c0      	nop			; (mov r8, r8)
     630:	200000cc 	.word	0x200000cc
     634:	20006f18 	.word	0x20006f18

00000638 <initAccelerometer>:

#include <SaLAccelerometer.h>



void initAccelerometer(struct AccelerometerModule *myAccelerometer) {
     638:	b5f8      	push	{r3, r4, r5, r6, r7, lr}
     63a:	1c07      	adds	r7, r0, #0

#ifdef HAS_ADXL345

    SaLPinMode(ADXL345_SLAVE_SELECT_PIN,OUTPUT);
     63c:	2010      	movs	r0, #16
     63e:	2101      	movs	r1, #1
     640:	4e1e      	ldr	r6, [pc, #120]	; (6bc <initAccelerometer+0x84>)
     642:	47b0      	blx	r6
     644:	4c1e      	ldr	r4, [pc, #120]	; (6c0 <initAccelerometer+0x88>)
     646:	2580      	movs	r5, #128	; 0x80
     648:	026d      	lsls	r5, r5, #9
     64a:	61a5      	str	r5, [r4, #24]
    SaLDigitalOut(ADXL345_SLAVE_SELECT_PIN,true);
    SaLPinMode(ADXL345_MOSI_PIN,OUTPUT);
     64c:	200d      	movs	r0, #13
     64e:	2101      	movs	r1, #1
     650:	47b0      	blx	r6
    SaLPinMode(ADXL345_SCK_PIN,OUTPUT);
     652:	200f      	movs	r0, #15
     654:	2101      	movs	r1, #1
     656:	47b0      	blx	r6
    SaLPinMode(ADXL345_MISO_PIN,INPUT);
     658:	200e      	movs	r0, #14
     65a:	2100      	movs	r1, #0
     65c:	47b0      	blx	r6

    myAccelerometer->rate_ = MY_ADXL345_DATA_RATE;
     65e:	230e      	movs	r3, #14
     660:	707b      	strb	r3, [r7, #1]
    myAccelerometer->range_ = MY_ADXL345_RANGE;
     662:	3b06      	subs	r3, #6
     664:	703b      	strb	r3, [r7, #0]
    } else {
        port->OUTCLR.reg = pin_mask;
     666:	6165      	str	r5, [r4, #20]

    SaLDigitalOut(ADXL345_SLAVE_SELECT_PIN,false);
    byteOut(ADXL345_SCK_PIN,ADXL345_MOSI_PIN,ADXL345_REG_POWER_CTL);
     668:	200f      	movs	r0, #15
     66a:	210d      	movs	r1, #13
     66c:	222d      	movs	r2, #45	; 0x2d
     66e:	4e15      	ldr	r6, [pc, #84]	; (6c4 <initAccelerometer+0x8c>)
     670:	47b0      	blx	r6
    byteOut(ADXL345_SCK_PIN,ADXL345_MOSI_PIN,0x00); // disable
     672:	200f      	movs	r0, #15
     674:	210d      	movs	r1, #13
     676:	2200      	movs	r2, #0
     678:	47b0      	blx	r6
    PortGroup *const port = SaLGetPort(pin);
    uint32_t pin_mask = (1UL << (pin % 32));


    if (level) {
        port->OUTSET.reg = pin_mask;
     67a:	61a5      	str	r5, [r4, #24]
    } else {
        port->OUTCLR.reg = pin_mask;
     67c:	6165      	str	r5, [r4, #20]
    SaLDigitalOut(ADXL345_SLAVE_SELECT_PIN,true);

    SaLDigitalOut(ADXL345_SLAVE_SELECT_PIN,false);
    byteOut(ADXL345_SCK_PIN,ADXL345_MOSI_PIN,ADXL345_REG_BW_RATE);
     67e:	200f      	movs	r0, #15
     680:	210d      	movs	r1, #13
     682:	222c      	movs	r2, #44	; 0x2c
     684:	47b0      	blx	r6
    byteOut(ADXL345_SCK_PIN,ADXL345_MOSI_PIN,myAccelerometer->rate_);
     686:	787a      	ldrb	r2, [r7, #1]
     688:	200f      	movs	r0, #15
     68a:	210d      	movs	r1, #13
     68c:	47b0      	blx	r6
    PortGroup *const port = SaLGetPort(pin);
    uint32_t pin_mask = (1UL << (pin % 32));


    if (level) {
        port->OUTSET.reg = pin_mask;
     68e:	61a5      	str	r5, [r4, #24]
    } else {
        port->OUTCLR.reg = pin_mask;
     690:	6165      	str	r5, [r4, #20]
    SaLDigitalOut(ADXL345_SLAVE_SELECT_PIN,true);

    SaLDigitalOut(ADXL345_SLAVE_SELECT_PIN,false);
    byteOut(ADXL345_SCK_PIN,ADXL345_MOSI_PIN,ADXL345_REG_BW_RATE);
     692:	200f      	movs	r0, #15
     694:	210d      	movs	r1, #13
     696:	222c      	movs	r2, #44	; 0x2c
     698:	47b0      	blx	r6
    byteOut(ADXL345_SCK_PIN,ADXL345_MOSI_PIN,myAccelerometer->range_);
     69a:	783a      	ldrb	r2, [r7, #0]
     69c:	200f      	movs	r0, #15
     69e:	210d      	movs	r1, #13
     6a0:	47b0      	blx	r6
    PortGroup *const port = SaLGetPort(pin);
    uint32_t pin_mask = (1UL << (pin % 32));


    if (level) {
        port->OUTSET.reg = pin_mask;
     6a2:	61a5      	str	r5, [r4, #24]
    } else {
        port->OUTCLR.reg = pin_mask;
     6a4:	6165      	str	r5, [r4, #20]
    SaLDigitalOut(ADXL345_SLAVE_SELECT_PIN,true);

    SaLDigitalOut(ADXL345_SLAVE_SELECT_PIN,false);
    byteOut(ADXL345_SCK_PIN,ADXL345_MOSI_PIN,ADXL345_REG_POWER_CTL);
     6a6:	200f      	movs	r0, #15
     6a8:	210d      	movs	r1, #13
     6aa:	222d      	movs	r2, #45	; 0x2d
     6ac:	47b0      	blx	r6
    byteOut(ADXL345_SCK_PIN,ADXL345_MOSI_PIN,0x08); // enable
     6ae:	200f      	movs	r0, #15
     6b0:	210d      	movs	r1, #13
     6b2:	2208      	movs	r2, #8
     6b4:	47b0      	blx	r6
    PortGroup *const port = SaLGetPort(pin);
    uint32_t pin_mask = (1UL << (pin % 32));


    if (level) {
        port->OUTSET.reg = pin_mask;
     6b6:	61a5      	str	r5, [r4, #24]





}
     6b8:	bdf8      	pop	{r3, r4, r5, r6, r7, pc}
     6ba:	46c0      	nop			; (mov r8, r8)
     6bc:	00000b01 	.word	0x00000b01
     6c0:	41004400 	.word	0x41004400
     6c4:	00000875 	.word	0x00000875

000006c8 <getAccelEvent>:

void getAccelEvent(struct AccelerometerModule *myAccelerometer) {
     6c8:	b5f0      	push	{r4, r5, r6, r7, lr}
     6ca:	464f      	mov	r7, r9
     6cc:	4646      	mov	r6, r8
     6ce:	b4c0      	push	{r6, r7}
     6d0:	b083      	sub	sp, #12
     6d2:	1c06      	adds	r6, r0, #0

#ifdef HAS_ADXL345

    uint8_t regAccelData[6];

    getADXL345Event(&regAccelData[0]);
     6d4:	4668      	mov	r0, sp
     6d6:	4b2d      	ldr	r3, [pc, #180]	; (78c <getAccelEvent+0xc4>)
     6d8:	4798      	blx	r3
#define SALCONV2C_H_

static inline int16_t Convert2C(uint8_t *values) {
    int16_t result = 0;

    int16_t negative = (*(values + 1) & (1 <<7)) != 0;
     6da:	466b      	mov	r3, sp
     6dc:	785b      	ldrb	r3, [r3, #1]
    if (negative) {
     6de:	b25a      	sxtb	r2, r3
     6e0:	2a00      	cmp	r2, #0
     6e2:	da07      	bge.n	6f4 <getAccelEvent+0x2c>
        // if negative then preform 2's complement to int conversion
        result = ((*(values + 1) | ~((1 << 8) - 1)) << 8 ) | *values;
     6e4:	482a      	ldr	r0, [pc, #168]	; (790 <getAccelEvent+0xc8>)
     6e6:	4303      	orrs	r3, r0
     6e8:	021b      	lsls	r3, r3, #8
     6ea:	466a      	mov	r2, sp
     6ec:	7810      	ldrb	r0, [r2, #0]
     6ee:	4303      	orrs	r3, r0
     6f0:	b29b      	uxth	r3, r3
     6f2:	e004      	b.n	6fe <getAccelEvent+0x36>
    } else {
        result = (*(values + 1) << 8) + *values;
     6f4:	021b      	lsls	r3, r3, #8
     6f6:	466a      	mov	r2, sp
     6f8:	7810      	ldrb	r0, [r2, #0]
     6fa:	18c3      	adds	r3, r0, r3
     6fc:	b29b      	uxth	r3, r3

    myAccelerometer->acceleration.X = Convert2C(&regAccelData[0]);
     6fe:	80b3      	strh	r3, [r6, #4]
#define SALCONV2C_H_

static inline int16_t Convert2C(uint8_t *values) {
    int16_t result = 0;

    int16_t negative = (*(values + 1) & (1 <<7)) != 0;
     700:	466a      	mov	r2, sp
     702:	78d4      	ldrb	r4, [r2, #3]
    if (negative) {
     704:	b262      	sxtb	r2, r4
     706:	2a00      	cmp	r2, #0
     708:	da07      	bge.n	71a <getAccelEvent+0x52>
        // if negative then preform 2's complement to int conversion
        result = ((*(values + 1) | ~((1 << 8) - 1)) << 8 ) | *values;
     70a:	4821      	ldr	r0, [pc, #132]	; (790 <getAccelEvent+0xc8>)
     70c:	4304      	orrs	r4, r0
     70e:	0224      	lsls	r4, r4, #8
     710:	466a      	mov	r2, sp
     712:	7890      	ldrb	r0, [r2, #2]
     714:	4304      	orrs	r4, r0
     716:	b2a4      	uxth	r4, r4
     718:	e004      	b.n	724 <getAccelEvent+0x5c>
    } else {
        result = (*(values + 1) << 8) + *values;
     71a:	0224      	lsls	r4, r4, #8
     71c:	466a      	mov	r2, sp
     71e:	7890      	ldrb	r0, [r2, #2]
     720:	1904      	adds	r4, r0, r4
     722:	b2a4      	uxth	r4, r4
    myAccelerometer->acceleration.Y = Convert2C(&regAccelData[2]);
     724:	80f4      	strh	r4, [r6, #6]
#define SALCONV2C_H_

static inline int16_t Convert2C(uint8_t *values) {
    int16_t result = 0;

    int16_t negative = (*(values + 1) & (1 <<7)) != 0;
     726:	466a      	mov	r2, sp
     728:	7955      	ldrb	r5, [r2, #5]
    if (negative) {
     72a:	b26a      	sxtb	r2, r5
     72c:	2a00      	cmp	r2, #0
     72e:	da07      	bge.n	740 <getAccelEvent+0x78>
        // if negative then preform 2's complement to int conversion
        result = ((*(values + 1) | ~((1 << 8) - 1)) << 8 ) | *values;
     730:	4817      	ldr	r0, [pc, #92]	; (790 <getAccelEvent+0xc8>)
     732:	4305      	orrs	r5, r0
     734:	022d      	lsls	r5, r5, #8
     736:	466a      	mov	r2, sp
     738:	7910      	ldrb	r0, [r2, #4]
     73a:	4305      	orrs	r5, r0
     73c:	b2ad      	uxth	r5, r5
     73e:	e004      	b.n	74a <getAccelEvent+0x82>
    } else {
        result = (*(values + 1) << 8) + *values;
     740:	022d      	lsls	r5, r5, #8
     742:	466a      	mov	r2, sp
     744:	7910      	ldrb	r0, [r2, #4]
     746:	1945      	adds	r5, r0, r5
     748:	b2ad      	uxth	r5, r5
    myAccelerometer->acceleration.Z = Convert2C(&regAccelData[4]);
     74a:	8135      	strh	r5, [r6, #8]

    myAccelerometer->acceleration.Xf = myAccelerometer->acceleration.X * ADXL345_MG2G_MULTIPLIER;
     74c:	b218      	sxth	r0, r3
     74e:	4b11      	ldr	r3, [pc, #68]	; (794 <getAccelEvent+0xcc>)
     750:	4698      	mov	r8, r3
     752:	4798      	blx	r3
     754:	4b10      	ldr	r3, [pc, #64]	; (798 <getAccelEvent+0xd0>)
     756:	4699      	mov	r9, r3
     758:	4a10      	ldr	r2, [pc, #64]	; (79c <getAccelEvent+0xd4>)
     75a:	4b11      	ldr	r3, [pc, #68]	; (7a0 <getAccelEvent+0xd8>)
     75c:	47c8      	blx	r9
     75e:	4f11      	ldr	r7, [pc, #68]	; (7a4 <getAccelEvent+0xdc>)
     760:	47b8      	blx	r7
     762:	60f0      	str	r0, [r6, #12]
    myAccelerometer->acceleration.Yf = myAccelerometer->acceleration.Y * ADXL345_MG2G_MULTIPLIER;
     764:	b220      	sxth	r0, r4
     766:	47c0      	blx	r8
     768:	4a0c      	ldr	r2, [pc, #48]	; (79c <getAccelEvent+0xd4>)
     76a:	4b0d      	ldr	r3, [pc, #52]	; (7a0 <getAccelEvent+0xd8>)
     76c:	47c8      	blx	r9
     76e:	47b8      	blx	r7
     770:	6130      	str	r0, [r6, #16]
    myAccelerometer->acceleration.Zf = myAccelerometer->acceleration.Z * ADXL345_MG2G_MULTIPLIER;
     772:	b228      	sxth	r0, r5
     774:	47c0      	blx	r8
     776:	4a09      	ldr	r2, [pc, #36]	; (79c <getAccelEvent+0xd4>)
     778:	4b09      	ldr	r3, [pc, #36]	; (7a0 <getAccelEvent+0xd8>)
     77a:	47c8      	blx	r9
     77c:	47b8      	blx	r7
     77e:	6170      	str	r0, [r6, #20]



#endif

     780:	b003      	add	sp, #12
     782:	bc0c      	pop	{r2, r3}
     784:	4690      	mov	r8, r2
     786:	4699      	mov	r9, r3
     788:	bdf0      	pop	{r4, r5, r6, r7, pc}
     78a:	46c0      	nop			; (mov r8, r8)
     78c:	00000115 	.word	0x00000115
     790:	ffffff00 	.word	0xffffff00
     794:	00006e45 	.word	0x00006e45
     798:	000061b1 	.word	0x000061b1
     79c:	8e8a71de 	.word	0x8e8a71de
     7a0:	3f6ff2e4 	.word	0x3f6ff2e4
     7a4:	00006f21 	.word	0x00006f21

000007a8 <initBarometer>:

#include <SaLBarometer.h>



void initBarometer(struct BarometerModule *const myBarometer) {
     7a8:	b570      	push	{r4, r5, r6, lr}
     7aa:	1c05      	adds	r5, r0, #0

#ifdef HAS_MS5607
    SaLPinMode(MS5607_SLAVE_SELECT_PIN,OUTPUT);
     7ac:	2009      	movs	r0, #9
     7ae:	2101      	movs	r1, #1
     7b0:	4c0f      	ldr	r4, [pc, #60]	; (7f0 <initBarometer+0x48>)
     7b2:	47a0      	blx	r4
    SaLPinMode(MS5607_SLAVE_SELECT_PIN,TRUE);
     7b4:	2009      	movs	r0, #9
     7b6:	2101      	movs	r1, #1
     7b8:	47a0      	blx	r4
    SaLPinMode(MS5607_MOSI_PIN,OUTPUT);
     7ba:	200d      	movs	r0, #13
     7bc:	2101      	movs	r1, #1
     7be:	47a0      	blx	r4
    SaLPinMode(MS5607_SCK_PIN,OUTPUT);
     7c0:	200f      	movs	r0, #15
     7c2:	2101      	movs	r1, #1
     7c4:	47a0      	blx	r4
    SaLPinMode(MS5607_MISO_PIN,INPUT);
     7c6:	200e      	movs	r0, #14
     7c8:	2100      	movs	r1, #0
     7ca:	47a0      	blx	r4
    } else {
        port->OUTCLR.reg = pin_mask;
     7cc:	4c09      	ldr	r4, [pc, #36]	; (7f4 <initBarometer+0x4c>)
     7ce:	2680      	movs	r6, #128	; 0x80
     7d0:	00b6      	lsls	r6, r6, #2
     7d2:	6166      	str	r6, [r4, #20]

    SaLDigitalOut(MS5607_SLAVE_SELECT_PIN,FALSE);
    byteOut(MS5607_SCK_PIN,MS5607_MOSI_PIN,MS5607_CMD_RES);
     7d4:	200f      	movs	r0, #15
     7d6:	210d      	movs	r1, #13
     7d8:	221e      	movs	r2, #30
     7da:	4b07      	ldr	r3, [pc, #28]	; (7f8 <initBarometer+0x50>)
     7dc:	4798      	blx	r3
    PortGroup *const port = SaLGetPort(pin);
    uint32_t pin_mask = (1UL << (pin % 32));


    if (level) {
        port->OUTSET.reg = pin_mask;
     7de:	61a6      	str	r6, [r4, #24]
    SaLDigitalOut(MS5607_SLAVE_SELECT_PIN,TRUE);
    delay_us(600);
     7e0:	2096      	movs	r0, #150	; 0x96
     7e2:	0080      	lsls	r0, r0, #2
     7e4:	4b05      	ldr	r3, [pc, #20]	; (7fc <initBarometer+0x54>)
     7e6:	4798      	blx	r3
    getMS5607Coeff(&myBarometer->coefficients_[0]);
     7e8:	1d28      	adds	r0, r5, #4
     7ea:	4b05      	ldr	r3, [pc, #20]	; (800 <initBarometer+0x58>)
     7ec:	4798      	blx	r3
#endif

}
     7ee:	bd70      	pop	{r4, r5, r6, pc}
     7f0:	00000b01 	.word	0x00000b01
     7f4:	41004400 	.word	0x41004400
     7f8:	00000875 	.word	0x00000875
     7fc:	00000a79 	.word	0x00000a79
     800:	000001bd 	.word	0x000001bd

00000804 <sendMS5607D2ReadReq>:

void sendMS5607D2ReadReq(uint8_t _cmd) {
     804:	b538      	push	{r3, r4, r5, lr}
     806:	1c02      	adds	r2, r0, #0
    } else {
        port->OUTCLR.reg = pin_mask;
     808:	4c04      	ldr	r4, [pc, #16]	; (81c <sendMS5607D2ReadReq+0x18>)
     80a:	2580      	movs	r5, #128	; 0x80
     80c:	00ad      	lsls	r5, r5, #2
     80e:	6165      	str	r5, [r4, #20]

    SaLDigitalOut(MS5607_SLAVE_SELECT_PIN,FALSE);
    byteOut(MS5607_SCK_PIN,MS5607_MOSI_PIN,_cmd);
     810:	200f      	movs	r0, #15
     812:	210d      	movs	r1, #13
     814:	4b02      	ldr	r3, [pc, #8]	; (820 <sendMS5607D2ReadReq+0x1c>)
     816:	4798      	blx	r3
    PortGroup *const port = SaLGetPort(pin);
    uint32_t pin_mask = (1UL << (pin % 32));


    if (level) {
        port->OUTSET.reg = pin_mask;
     818:	61a5      	str	r5, [r4, #24]
    SaLDigitalOut(MS5607_SLAVE_SELECT_PIN,TRUE);
}
     81a:	bd38      	pop	{r3, r4, r5, pc}
     81c:	41004400 	.word	0x41004400
     820:	00000875 	.word	0x00000875

00000824 <getMS5607PressureSlow>:

void getMS5607PressureSlow(struct BarometerModule *const myBarometer) {
     824:	b5f8      	push	{r3, r4, r5, r6, r7, lr}
     826:	1c04      	adds	r4, r0, #0

    sendMS5607D2ReadReq(cmdAdcD1_);
     828:	2040      	movs	r0, #64	; 0x40
     82a:	4f0d      	ldr	r7, [pc, #52]	; (860 <getMS5607PressureSlow+0x3c>)
     82c:	47b8      	blx	r7
    delay_us(700);
     82e:	20af      	movs	r0, #175	; 0xaf
     830:	0080      	lsls	r0, r0, #2
     832:	4e0c      	ldr	r6, [pc, #48]	; (864 <getMS5607PressureSlow+0x40>)
     834:	47b0      	blx	r6
    myBarometer->pressure = readMS5607AdcResults();
     836:	4d0c      	ldr	r5, [pc, #48]	; (868 <getMS5607PressureSlow+0x44>)
     838:	47a8      	blx	r5
     83a:	6160      	str	r0, [r4, #20]

    sendMS5607D2ReadReq(cmdAdcD2_);
     83c:	2050      	movs	r0, #80	; 0x50
     83e:	47b8      	blx	r7
    delay_us(700);
     840:	20af      	movs	r0, #175	; 0xaf
     842:	0080      	lsls	r0, r0, #2
     844:	47b0      	blx	r6
    myBarometer->temperature = readMS5607AdcResults();
     846:	47a8      	blx	r5
     848:	6120      	str	r0, [r4, #16]

    const uint32_t pressConv   = ConvertPressureTemperature(&myBarometer->pressure, &myBarometer->temperature,&myBarometer->coefficients_[0]);
     84a:	1c20      	adds	r0, r4, #0
     84c:	3014      	adds	r0, #20
     84e:	1c21      	adds	r1, r4, #0
     850:	3110      	adds	r1, #16
     852:	1d22      	adds	r2, r4, #4
     854:	4b05      	ldr	r3, [pc, #20]	; (86c <getMS5607PressureSlow+0x48>)
     856:	4798      	blx	r3

    myBarometer->currentAltInFt = paToFeetNOAA(pressConv);
     858:	4b05      	ldr	r3, [pc, #20]	; (870 <getMS5607PressureSlow+0x4c>)
     85a:	4798      	blx	r3
     85c:	61a0      	str	r0, [r4, #24]

     85e:	bdf8      	pop	{r3, r4, r5, r6, r7, pc}
     860:	00000805 	.word	0x00000805
     864:	00000a79 	.word	0x00000a79
     868:	00000155 	.word	0x00000155
     86c:	00000235 	.word	0x00000235
     870:	000002fd 	.word	0x000002fd

00000874 <byteOut>:



void byteOut(uint8_t SCK_PIN,
             uint8_t MOSI_PIN,
             uint8_t byte) {
     874:	b570      	push	{r4, r5, r6, lr}
     876:	09c3      	lsrs	r3, r0, #7
     878:	2400      	movs	r4, #0
     87a:	2b00      	cmp	r3, #0
     87c:	d104      	bne.n	888 <byteOut+0x14>
    uint8_t group_index = (gpio_pin / 32);
    /* Array of available ports */
    Port *const ports[PORT_INST_NUM] = PORT_INSTS;

    if (port_index < PORT_INST_NUM) {
        return &(ports[port_index]->Group[group_index]);
     87e:	0944      	lsrs	r4, r0, #5
     880:	01e4      	lsls	r4, r4, #7
     882:	4b13      	ldr	r3, [pc, #76]	; (8d0 <byteOut+0x5c>)
     884:	469c      	mov	ip, r3
     886:	4464      	add	r4, ip

void SaLPinMode(uint8_t pin,uint8_t DIR);

static inline void SaLDigitalOut(uint8_t pin, bool level) {
    PortGroup *const port = SaLGetPort(pin);
    uint32_t pin_mask = (1UL << (pin % 32));
     888:	231f      	movs	r3, #31
     88a:	4018      	ands	r0, r3
     88c:	3b1e      	subs	r3, #30
     88e:	4083      	lsls	r3, r0
     890:	1c18      	adds	r0, r3, #0
     892:	09cb      	lsrs	r3, r1, #7
     894:	2600      	movs	r6, #0
     896:	2b00      	cmp	r3, #0
     898:	d104      	bne.n	8a4 <byteOut+0x30>
    uint8_t group_index = (gpio_pin / 32);
    /* Array of available ports */
    Port *const ports[PORT_INST_NUM] = PORT_INSTS;

    if (port_index < PORT_INST_NUM) {
        return &(ports[port_index]->Group[group_index]);
     89a:	094e      	lsrs	r6, r1, #5
     89c:	01f6      	lsls	r6, r6, #7
     89e:	4b0c      	ldr	r3, [pc, #48]	; (8d0 <byteOut+0x5c>)
     8a0:	469c      	mov	ip, r3
     8a2:	4466      	add	r6, ip

void SaLPinMode(uint8_t pin,uint8_t DIR);

static inline void SaLDigitalOut(uint8_t pin, bool level) {
    PortGroup *const port = SaLGetPort(pin);
    uint32_t pin_mask = (1UL << (pin % 32));
     8a4:	231f      	movs	r3, #31
     8a6:	4019      	ands	r1, r3
     8a8:	3b1e      	subs	r3, #30
     8aa:	408b      	lsls	r3, r1
     8ac:	1c19      	adds	r1, r3, #0
     8ae:	2308      	movs	r3, #8


    if (level) {
        port->OUTSET.reg = pin_mask;
    } else {
        port->OUTCLR.reg = pin_mask;
     8b0:	6160      	str	r0, [r4, #20]

    for (uint8_t i = 0; i<8; ++i) {
        SaLDigitalOut(SCK_PIN,FALSE);
        if (byte & 0x80) {
     8b2:	b255      	sxtb	r5, r2
     8b4:	2d00      	cmp	r5, #0
     8b6:	da01      	bge.n	8bc <byteOut+0x48>
    PortGroup *const port = SaLGetPort(pin);
    uint32_t pin_mask = (1UL << (pin % 32));


    if (level) {
        port->OUTSET.reg = pin_mask;
     8b8:	61b1      	str	r1, [r6, #24]
     8ba:	e000      	b.n	8be <byteOut+0x4a>
    } else {
        port->OUTCLR.reg = pin_mask;
     8bc:	6171      	str	r1, [r6, #20]
    PortGroup *const port = SaLGetPort(pin);
    uint32_t pin_mask = (1UL << (pin % 32));


    if (level) {
        port->OUTSET.reg = pin_mask;
     8be:	61a0      	str	r0, [r4, #24]
            SaLDigitalOut(MOSI_PIN,true);
        } else {
            SaLDigitalOut(MOSI_PIN,false);
        }
        SaLDigitalOut(SCK_PIN,TRUE);
        byte <<= 1;
     8c0:	0052      	lsls	r2, r2, #1
     8c2:	b2d2      	uxtb	r2, r2
     8c4:	3b01      	subs	r3, #1
     8c6:	b2db      	uxtb	r3, r3

void byteOut(uint8_t SCK_PIN,
             uint8_t MOSI_PIN,
             uint8_t byte) {

    for (uint8_t i = 0; i<8; ++i) {
     8c8:	2b00      	cmp	r3, #0
     8ca:	d1f1      	bne.n	8b0 <byteOut+0x3c>
        }
        SaLDigitalOut(SCK_PIN,TRUE);
        byte <<= 1;
    }

}
     8cc:	bd70      	pop	{r4, r5, r6, pc}
     8ce:	46c0      	nop			; (mov r8, r8)
     8d0:	41004400 	.word	0x41004400

000008d4 <getByte>:
    }

}

uint8_t getByte(uint8_t SCK_PIN,
                uint8_t MISO_PIN) {
     8d4:	b5f0      	push	{r4, r5, r6, r7, lr}
     8d6:	09c3      	lsrs	r3, r0, #7
     8d8:	2400      	movs	r4, #0
     8da:	2b00      	cmp	r3, #0
     8dc:	d104      	bne.n	8e8 <getByte+0x14>
    uint8_t group_index = (gpio_pin / 32);
    /* Array of available ports */
    Port *const ports[PORT_INST_NUM] = PORT_INSTS;

    if (port_index < PORT_INST_NUM) {
        return &(ports[port_index]->Group[group_index]);
     8de:	0944      	lsrs	r4, r0, #5
     8e0:	01e4      	lsls	r4, r4, #7
     8e2:	4b12      	ldr	r3, [pc, #72]	; (92c <getByte+0x58>)
     8e4:	469c      	mov	ip, r3
     8e6:	4464      	add	r4, ip

void SaLPinMode(uint8_t pin,uint8_t DIR);

static inline void SaLDigitalOut(uint8_t pin, bool level) {
    PortGroup *const port = SaLGetPort(pin);
    uint32_t pin_mask = (1UL << (pin % 32));
     8e8:	251f      	movs	r5, #31
     8ea:	4028      	ands	r0, r5
     8ec:	3d1e      	subs	r5, #30
     8ee:	4085      	lsls	r5, r0
     8f0:	09cb      	lsrs	r3, r1, #7
     8f2:	2600      	movs	r6, #0
     8f4:	2b00      	cmp	r3, #0
     8f6:	d104      	bne.n	902 <getByte+0x2e>
    uint8_t group_index = (gpio_pin / 32);
    /* Array of available ports */
    Port *const ports[PORT_INST_NUM] = PORT_INSTS;

    if (port_index < PORT_INST_NUM) {
        return &(ports[port_index]->Group[group_index]);
     8f8:	094e      	lsrs	r6, r1, #5
     8fa:	01f6      	lsls	r6, r6, #7
     8fc:	4b0b      	ldr	r3, [pc, #44]	; (92c <getByte+0x58>)
     8fe:	469c      	mov	ip, r3
     900:	4466      	add	r6, ip
    }
}

static inline bool SaLDigitalIn(uint8_t pin) {
    PortGroup *const port = SaLGetPort(pin);
    uint32_t pin_mask = (1UL << (pin % 32));
     902:	231f      	movs	r3, #31
     904:	4019      	ands	r1, r3
     906:	3b1e      	subs	r3, #30
     908:	408b      	lsls	r3, r1
     90a:	1c19      	adds	r1, r3, #0
     90c:	2208      	movs	r2, #8
    uint8_t byte = 0x00;
     90e:	2000      	movs	r0, #0


    if (level) {
        port->OUTSET.reg = pin_mask;
    } else {
        port->OUTCLR.reg = pin_mask;
     910:	6165      	str	r5, [r4, #20]
}

static inline bool SaLDigitalIn(uint8_t pin) {
    PortGroup *const port = SaLGetPort(pin);
    uint32_t pin_mask = (1UL << (pin % 32));
    bool level = (port->IN.reg & pin_mask);
     912:	6a33      	ldr	r3, [r6, #32]
     914:	400b      	ands	r3, r1
     916:	1e5f      	subs	r7, r3, #1
     918:	41bb      	sbcs	r3, r7

    for (uint8_t i = 0; i<8; ++i) {
        SaLDigitalOut(SCK_PIN,FALSE);
        byte = (byte << 1 ) | SaLDigitalIn(MISO_PIN);
     91a:	0040      	lsls	r0, r0, #1
     91c:	4318      	orrs	r0, r3
     91e:	b2c0      	uxtb	r0, r0
    PortGroup *const port = SaLGetPort(pin);
    uint32_t pin_mask = (1UL << (pin % 32));


    if (level) {
        port->OUTSET.reg = pin_mask;
     920:	61a5      	str	r5, [r4, #24]
     922:	3a01      	subs	r2, #1
     924:	b2d2      	uxtb	r2, r2

uint8_t getByte(uint8_t SCK_PIN,
                uint8_t MISO_PIN) {
    uint8_t byte = 0x00;

    for (uint8_t i = 0; i<8; ++i) {
     926:	2a00      	cmp	r2, #0
     928:	d1f2      	bne.n	910 <getByte+0x3c>
        SaLDigitalOut(SCK_PIN,FALSE);
        byte = (byte << 1 ) | SaLDigitalIn(MISO_PIN);
        SaLDigitalOut(SCK_PIN,TRUE);
    }
    return byte;
}
     92a:	bdf0      	pop	{r4, r5, r6, r7, pc}
     92c:	41004400 	.word	0x41004400

00000930 <SalGclkInit>:

#include <SaLClocks.h>

void SalGclkInit() {

    SYSCTRL->INTFLAG.reg = SYSCTRL_INTFLAG_BOD33RDY | SYSCTRL_INTFLAG_BOD33DET |
     930:	491e      	ldr	r1, [pc, #120]	; (9ac <SalGclkInit+0x7c>)
     932:	23c2      	movs	r3, #194	; 0xc2
     934:	00db      	lsls	r3, r3, #3
     936:	608b      	str	r3, [r1, #8]
                           SYSCTRL_INTFLAG_DFLLRDY;
    NVMCTRL->CTRLB.bit.RWS = 1;
     938:	481d      	ldr	r0, [pc, #116]	; (9b0 <SalGclkInit+0x80>)
     93a:	6843      	ldr	r3, [r0, #4]
     93c:	221e      	movs	r2, #30
     93e:	4393      	bics	r3, r2
     940:	3a1c      	subs	r2, #28
     942:	4313      	orrs	r3, r2
     944:	6043      	str	r3, [r0, #4]

// start and enable external 32k crystal
    SYSCTRL->XOSC32K.reg = SYSCTRL_XOSC32K_ENABLE |
     946:	4b1b      	ldr	r3, [pc, #108]	; (9b4 <SalGclkInit+0x84>)
     948:	828b      	strh	r3, [r1, #20]
                           SYSCTRL_XOSC32K_XTALEN |
                           SYSCTRL_XOSC32K_EN32K |
                           ( 6 << SYSCTRL_XOSC32K_STARTUP_Pos);
//wait for crystal to warm up
    while((SYSCTRL->PCLKSR.reg & (SYSCTRL_PCLKSR_XOSC32KRDY)) == 0);
     94a:	68cb      	ldr	r3, [r1, #12]
     94c:	421a      	tst	r2, r3
     94e:	d0fc      	beq.n	94a <SalGclkInit+0x1a>

//config xosc32k for the dfll via gen1
    GCLK->GENDIV.reg =  GCLK_GENDIV_ID(1) |
     950:	4b19      	ldr	r3, [pc, #100]	; (9b8 <SalGclkInit+0x88>)
     952:	2202      	movs	r2, #2
     954:	32ff      	adds	r2, #255	; 0xff
     956:	609a      	str	r2, [r3, #8]
                        GCLK_GENDIV_DIV(1);
    GCLK->GENCTRL.reg = GCLK_GENCTRL_ID(1) |
     958:	4a18      	ldr	r2, [pc, #96]	; (9bc <SalGclkInit+0x8c>)
     95a:	605a      	str	r2, [r3, #4]
                        GCLK_GENCTRL_SRC_XOSC32K |
                        GCLK_GENCTRL_GENEN;
    GCLK->CLKCTRL.reg = GCLK_CLKCTRL_GEN(1) |
     95c:	2282      	movs	r2, #130	; 0x82
     95e:	01d2      	lsls	r2, r2, #7
     960:	805a      	strh	r2, [r3, #2]
                        GCLK_CLKCTRL_CLKEN |
                        GCLK_CLKCTRL_ID_DFLL48;

    GCLK->GENDIV.reg =  GCLK_GENDIV_ID(2) |
     962:	2281      	movs	r2, #129	; 0x81
     964:	0052      	lsls	r2, r2, #1
     966:	609a      	str	r2, [r3, #8]
                        GCLK_GENDIV_DIV(1);
    GCLK->GENCTRL.reg = GCLK_GENCTRL_ID(2) |
     968:	4a15      	ldr	r2, [pc, #84]	; (9c0 <SalGclkInit+0x90>)
     96a:	605a      	str	r2, [r3, #4]
                        GCLK_GENCTRL_SRC_OSC32K |
                        GCLK_GENCTRL_GENEN;
    GCLK->CLKCTRL.reg = GCLK_CLKCTRL_GEN(2) |
     96c:	4a15      	ldr	r2, [pc, #84]	; (9c4 <SalGclkInit+0x94>)
     96e:	805a      	strh	r2, [r3, #2]
                        GCLK_CLKCTRL_CLKEN |
                        GCLK_CLKCTRL_ID(TC3_GCLK_ID);

//Configure the FDLL48MHz FLL, we will use this to provide a clock to the CPU
//Set the course and fine step sizes, these should be less than 50% of the values used for the course and fine values (P150)
    SYSCTRL->DFLLCTRL.reg = (SYSCTRL_DFLLCTRL_ENABLE); //Enable the DFLL
     970:	4b0e      	ldr	r3, [pc, #56]	; (9ac <SalGclkInit+0x7c>)
     972:	2202      	movs	r2, #2
     974:	849a      	strh	r2, [r3, #36]	; 0x24
    SYSCTRL->DFLLMUL.reg = (SYSCTRL_DFLLMUL_CSTEP(7) | SYSCTRL_DFLLMUL_FSTEP(30));
     976:	4a14      	ldr	r2, [pc, #80]	; (9c8 <SalGclkInit+0x98>)
     978:	62da      	str	r2, [r3, #44]	; 0x2c
    SYSCTRL->DFLLMUL.reg |= (SYSCTRL_DFLLMUL_MUL(1280));
     97a:	6ada      	ldr	r2, [r3, #44]	; 0x2c
     97c:	21a0      	movs	r1, #160	; 0xa0
     97e:	00c9      	lsls	r1, r1, #3
     980:	430a      	orrs	r2, r1
     982:	62da      	str	r2, [r3, #44]	; 0x2c
    SYSCTRL->DFLLCTRL.reg |= (SYSCTRL_DFLLCTRL_MODE);
     984:	8c99      	ldrh	r1, [r3, #36]	; 0x24
     986:	2204      	movs	r2, #4
     988:	430a      	orrs	r2, r1
     98a:	849a      	strh	r2, [r3, #36]	; 0x24
//Wait and see if the DFLL output is good . . .
    while((SYSCTRL->PCLKSR.reg & (SYSCTRL_PCLKSR_DFLLRDY)) == 0);
     98c:	1c19      	adds	r1, r3, #0
     98e:	2210      	movs	r2, #16
     990:	68cb      	ldr	r3, [r1, #12]
     992:	421a      	tst	r2, r3
     994:	d0fc      	beq.n	990 <SalGclkInit+0x60>
//For generic clock generator 0, select the DFLL48 Clock as input
    GCLK->GENDIV.reg  = (GCLK_GENDIV_DIV(1)  | GCLK_GENDIV_ID(0));
     996:	4b08      	ldr	r3, [pc, #32]	; (9b8 <SalGclkInit+0x88>)
     998:	2280      	movs	r2, #128	; 0x80
     99a:	0052      	lsls	r2, r2, #1
     99c:	609a      	str	r2, [r3, #8]
    GCLK->GENCTRL.reg = (GCLK_GENCTRL_ID(0)  | (GCLK_GENCTRL_SRC_DFLL48M) | (GCLK_GENCTRL_GENEN));
     99e:	4a0b      	ldr	r2, [pc, #44]	; (9cc <SalGclkInit+0x9c>)
     9a0:	605a      	str	r2, [r3, #4]
    GCLK->CLKCTRL.reg = (GCLK_CLKCTRL_GEN(0) | GCLK_CLKCTRL_CLKEN ) ;
     9a2:	2280      	movs	r2, #128	; 0x80
     9a4:	01d2      	lsls	r2, r2, #7
     9a6:	805a      	strh	r2, [r3, #2]
//set up OSC8M

}
     9a8:	4770      	bx	lr
     9aa:	46c0      	nop			; (mov r8, r8)
     9ac:	40000800 	.word	0x40000800
     9b0:	41004000 	.word	0x41004000
     9b4:	0000060e 	.word	0x0000060e
     9b8:	40000c00 	.word	0x40000c00
     9bc:	00010501 	.word	0x00010501
     9c0:	00010402 	.word	0x00010402
     9c4:	0000421b 	.word	0x0000421b
     9c8:	1c1e0000 	.word	0x1c1e0000
     9cc:	00010700 	.word	0x00010700

000009d0 <SaLRtcInit>:

void SaLRtcInit() {
GCLK->GENDIV.reg = GCLK_GENDIV_ID(2) | GCLK_GENDIV_DIV(1);
     9d0:	4b19      	ldr	r3, [pc, #100]	; (a38 <SaLRtcInit+0x68>)
     9d2:	2281      	movs	r2, #129	; 0x81
     9d4:	0052      	lsls	r2, r2, #1
     9d6:	609a      	str	r2, [r3, #8]

GCLK->GENCTRL.reg = GCLK_GENCTRL_ID(2) | GCLK_GENCTRL_SRC(GCLK_GENCTRL_SRC_XOSC32K) |
     9d8:	4a18      	ldr	r2, [pc, #96]	; (a3c <SaLRtcInit+0x6c>)
     9da:	605a      	str	r2, [r3, #4]
GCLK_GENCTRL_IDC | GCLK_GENCTRL_RUNSTDBY | GCLK_GENCTRL_GENEN;
while (GCLK->STATUS.reg & GCLK_STATUS_SYNCBUSY);
     9dc:	1c1a      	adds	r2, r3, #0
     9de:	7853      	ldrb	r3, [r2, #1]
     9e0:	b25b      	sxtb	r3, r3
     9e2:	2b00      	cmp	r3, #0
     9e4:	dbfb      	blt.n	9de <SaLRtcInit+0xe>

// Configure RTC
GCLK->CLKCTRL.reg = GCLK_CLKCTRL_ID(RTC_GCLK_ID) |
     9e6:	4a16      	ldr	r2, [pc, #88]	; (a40 <SaLRtcInit+0x70>)
     9e8:	4b13      	ldr	r3, [pc, #76]	; (a38 <SaLRtcInit+0x68>)
     9ea:	805a      	strh	r2, [r3, #2]
GCLK_CLKCTRL_CLKEN | GCLK_CLKCTRL_GEN(2);

RTC->MODE1.CTRL.reg = RTC_MODE1_CTRL_MODE_COUNT16 |
     9ec:	4a15      	ldr	r2, [pc, #84]	; (a44 <SaLRtcInit+0x74>)
     9ee:	4b16      	ldr	r3, [pc, #88]	; (a48 <SaLRtcInit+0x78>)
     9f0:	801a      	strh	r2, [r3, #0]
RTC_MODE1_CTRL_PRESCALER_DIV32;
while (RTC->MODE1.STATUS.bit.SYNCBUSY);
     9f2:	1c1a      	adds	r2, r3, #0
     9f4:	7a93      	ldrb	r3, [r2, #10]
     9f6:	09db      	lsrs	r3, r3, #7
     9f8:	d1fc      	bne.n	9f4 <SaLRtcInit+0x24>

// Prescaler needs to be enabled separately from the mode for some reason
//  RTC->MODE1.CTRL.reg |= RTC_MODE1_CTRL_PRESCALER_DIV1;
while (RTC->MODE1.STATUS.bit.SYNCBUSY);
     9fa:	4a13      	ldr	r2, [pc, #76]	; (a48 <SaLRtcInit+0x78>)
     9fc:	7a93      	ldrb	r3, [r2, #10]
     9fe:	09db      	lsrs	r3, r3, #7
     a00:	d1fc      	bne.n	9fc <SaLRtcInit+0x2c>

RTC->MODE1.PER.reg = 998;
     a02:	4a12      	ldr	r2, [pc, #72]	; (a4c <SaLRtcInit+0x7c>)
     a04:	4b10      	ldr	r3, [pc, #64]	; (a48 <SaLRtcInit+0x78>)
     a06:	829a      	strh	r2, [r3, #20]
while (RTC->MODE1.STATUS.bit.SYNCBUSY);
     a08:	1c1a      	adds	r2, r3, #0
     a0a:	7a93      	ldrb	r3, [r2, #10]
     a0c:	09db      	lsrs	r3, r3, #7
     a0e:	d1fc      	bne.n	a0a <SaLRtcInit+0x3a>

RTC->MODE1.READREQ.reg |= RTC_READREQ_RCONT | RTC_READREQ_ADDR(0x10);
     a10:	4b0d      	ldr	r3, [pc, #52]	; (a48 <SaLRtcInit+0x78>)
     a12:	8859      	ldrh	r1, [r3, #2]
     a14:	4a0e      	ldr	r2, [pc, #56]	; (a50 <SaLRtcInit+0x80>)
     a16:	430a      	orrs	r2, r1
     a18:	805a      	strh	r2, [r3, #2]

RTC->MODE1.INTENSET.reg = RTC_MODE1_INTENSET_OVF;
     a1a:	2280      	movs	r2, #128	; 0x80
     a1c:	71da      	strb	r2, [r3, #7]

RTC->MODE1.CTRL.bit.ENABLE = 1;
     a1e:	8819      	ldrh	r1, [r3, #0]
     a20:	2202      	movs	r2, #2
     a22:	430a      	orrs	r2, r1
     a24:	801a      	strh	r2, [r3, #0]
while (RTC->MODE1.STATUS.bit.SYNCBUSY);
     a26:	1c1a      	adds	r2, r3, #0
     a28:	7a93      	ldrb	r3, [r2, #10]
     a2a:	09db      	lsrs	r3, r3, #7
     a2c:	d1fc      	bne.n	a28 <SaLRtcInit+0x58>

    \param [in]      IRQn  External interrupt number. Value cannot be negative.
 */
__STATIC_INLINE void NVIC_EnableIRQ(IRQn_Type IRQn)
{
  NVIC->ISER[0] = (1 << ((uint32_t)(IRQn) & 0x1F));
     a2e:	2208      	movs	r2, #8
     a30:	4b08      	ldr	r3, [pc, #32]	; (a54 <SaLRtcInit+0x84>)
     a32:	601a      	str	r2, [r3, #0]

NVIC_EnableIRQ(RTC_IRQn);
     a34:	4770      	bx	lr
     a36:	46c0      	nop			; (mov r8, r8)
     a38:	40000c00 	.word	0x40000c00
     a3c:	00230002 	.word	0x00230002
     a40:	00004204 	.word	0x00004204
     a44:	00000504 	.word	0x00000504
     a48:	40001400 	.word	0x40001400
     a4c:	000003e6 	.word	0x000003e6
     a50:	00004010 	.word	0x00004010
     a54:	e000e100 	.word	0xe000e100

00000a58 <SaLDelayInit>:
static uint32_t cycles_per_ms = 48000000UL / 1000;
static uint32_t cycles_per_us = 48000000UL / 1000000;

void SaLDelayInit(void) {
    cycles_per_ms = 41900000UL;
    cycles_per_ms /= 1000;
     a58:	4b04      	ldr	r3, [pc, #16]	; (a6c <SaLDelayInit+0x14>)
     a5a:	4a05      	ldr	r2, [pc, #20]	; (a70 <SaLDelayInit+0x18>)
     a5c:	601a      	str	r2, [r3, #0]
    cycles_per_us = cycles_per_ms / 1000;
     a5e:	2229      	movs	r2, #41	; 0x29
     a60:	605a      	str	r2, [r3, #4]

    SysTick->CTRL = SysTick_CTRL_CLKSOURCE_Msk | SysTick_CTRL_ENABLE_Msk;
     a62:	3a24      	subs	r2, #36	; 0x24
     a64:	4b03      	ldr	r3, [pc, #12]	; (a74 <SaLDelayInit+0x1c>)
     a66:	601a      	str	r2, [r3, #0]
}
     a68:	4770      	bx	lr
     a6a:	46c0      	nop			; (mov r8, r8)
     a6c:	20000000 	.word	0x20000000
     a70:	0000a3ac 	.word	0x0000a3ac
     a74:	e000e010 	.word	0xe000e010

00000a78 <delay_us>:
 * \brief Delay loop to delay at least n number of microseconds
 *
 * \param n  Number of microseconds to wait
 */
void delay_us(
    uint32_t n) {
     a78:	b530      	push	{r4, r5, lr}
    while (n--) {
        /* Devide up to blocks of 10u */
        delay_cycles(cycles_per_us);
     a7a:	4b08      	ldr	r3, [pc, #32]	; (a9c <delay_us+0x24>)
     a7c:	685c      	ldr	r4, [r3, #4]
void SaLDelayInit(void);

static inline void delay_cycles(
    const uint32_t n) {
    if (n > 0) {
        SysTick->LOAD = n;
     a7e:	4a08      	ldr	r2, [pc, #32]	; (aa0 <delay_us+0x28>)
        SysTick->VAL = 0;
     a80:	2500      	movs	r5, #0

        while (!(SysTick->CTRL & SysTick_CTRL_COUNTFLAG_Msk)) {
     a82:	2180      	movs	r1, #128	; 0x80
     a84:	0249      	lsls	r1, r1, #9
 *
 * \param n  Number of microseconds to wait
 */
void delay_us(
    uint32_t n) {
    while (n--) {
     a86:	e006      	b.n	a96 <delay_us+0x1e>

void SaLDelayInit(void);

static inline void delay_cycles(
    const uint32_t n) {
    if (n > 0) {
     a88:	2c00      	cmp	r4, #0
     a8a:	d004      	beq.n	a96 <delay_us+0x1e>
        SysTick->LOAD = n;
     a8c:	6054      	str	r4, [r2, #4]
        SysTick->VAL = 0;
     a8e:	6095      	str	r5, [r2, #8]

        while (!(SysTick->CTRL & SysTick_CTRL_COUNTFLAG_Msk)) {
     a90:	6813      	ldr	r3, [r2, #0]
     a92:	420b      	tst	r3, r1
     a94:	d0fc      	beq.n	a90 <delay_us+0x18>
     a96:	3801      	subs	r0, #1
     a98:	d2f6      	bcs.n	a88 <delay_us+0x10>
        /* Devide up to blocks of 10u */
        delay_cycles(cycles_per_us);
    }
}
     a9a:	bd30      	pop	{r4, r5, pc}
     a9c:	20000000 	.word	0x20000000
     aa0:	e000e010 	.word	0xe000e010

00000aa4 <SaLIoRead>:
    return IoDescr->write(IoDescr,buf,length);
}

int32_t SaLIoRead(struct IoDescriptor *const IoDescr,
                  uint8_t *const buf,
                  const uint16_t length) {
     aa4:	b508      	push	{r3, lr}

    return IoDescr->read(IoDescr,buf,length);
     aa6:	6843      	ldr	r3, [r0, #4]
     aa8:	4798      	blx	r3
};
     aaa:	bd08      	pop	{r3, pc}

00000aac <addSampleToVariance>:

#include <SaLMath.h>


void addSampleToVariance(struct sVar *var, uint32_t newSample) {
     aac:	b5f8      	push	{r3, r4, r5, r6, r7, lr}
     aae:	1c05      	adds	r5, r0, #0
     ab0:	1c0f      	adds	r7, r1, #0
    int16_t delta = newSample - var->mean;
     ab2:	6806      	ldr	r6, [r0, #0]
     ab4:	1b8c      	subs	r4, r1, r6
    var->numSamples++;
     ab6:	8901      	ldrh	r1, [r0, #8]
     ab8:	3101      	adds	r1, #1
     aba:	b289      	uxth	r1, r1
     abc:	8101      	strh	r1, [r0, #8]
    var->mean += delta/var->numSamples;
     abe:	b224      	sxth	r4, r4
     ac0:	1c20      	adds	r0, r4, #0
     ac2:	4b05      	ldr	r3, [pc, #20]	; (ad8 <addSampleToVariance+0x2c>)
     ac4:	4798      	blx	r3
     ac6:	1986      	adds	r6, r0, r6
     ac8:	602e      	str	r6, [r5, #0]
    var->M2 += delta * (newSample - var->mean);
     aca:	1bbe      	subs	r6, r7, r6
     acc:	4374      	muls	r4, r6
     ace:	686b      	ldr	r3, [r5, #4]
     ad0:	469c      	mov	ip, r3
     ad2:	4464      	add	r4, ip
     ad4:	606c      	str	r4, [r5, #4]
}
     ad6:	bdf8      	pop	{r3, r4, r5, r6, r7, pc}
     ad8:	000042f1 	.word	0x000042f1

00000adc <GetVariance>:

uint32_t GetVariance(struct sVar *var, uint32_t *average) {
     adc:	b538      	push	{r3, r4, r5, lr}
     ade:	1c04      	adds	r4, r0, #0
     ae0:	1c0d      	adds	r5, r1, #0
    uint16_t variance = var->M2/var->numSamples;
     ae2:	8901      	ldrh	r1, [r0, #8]
     ae4:	6840      	ldr	r0, [r0, #4]
     ae6:	4b05      	ldr	r3, [pc, #20]	; (afc <GetVariance+0x20>)
     ae8:	4798      	blx	r3
    *average = var->mean;
     aea:	6823      	ldr	r3, [r4, #0]
     aec:	602b      	str	r3, [r5, #0]

    var->numSamples = 0;
     aee:	2300      	movs	r3, #0
     af0:	8123      	strh	r3, [r4, #8]
    var->mean = 0;
     af2:	6023      	str	r3, [r4, #0]
    var->M2 = 0;
     af4:	6063      	str	r3, [r4, #4]
     af6:	0400      	lsls	r0, r0, #16
     af8:	0c00      	lsrs	r0, r0, #16

    return variance;
     afa:	bd38      	pop	{r3, r4, r5, pc}
     afc:	000042f1 	.word	0x000042f1

00000b00 <SaLPinMode>:


#include <SaLPort.h>

void SaLPinMode(uint8_t pin,uint8_t DIR) {
     b00:	b510      	push	{r4, lr}
    uint8_t port_index  = (gpio_pin / 128);
    uint8_t group_index = (gpio_pin / 32);
    /* Array of available ports */
    Port *const ports[PORT_INST_NUM] = PORT_INSTS;

    if (port_index < PORT_INST_NUM) {
     b02:	09c2      	lsrs	r2, r0, #7
        return &(ports[port_index]->Group[group_index]);
    } else {
        return NULL;
     b04:	2300      	movs	r3, #0
    uint8_t port_index  = (gpio_pin / 128);
    uint8_t group_index = (gpio_pin / 32);
    /* Array of available ports */
    Port *const ports[PORT_INST_NUM] = PORT_INSTS;

    if (port_index < PORT_INST_NUM) {
     b06:	2a00      	cmp	r2, #0
     b08:	d104      	bne.n	b14 <SaLPinMode+0x14>
        return &(ports[port_index]->Group[group_index]);
     b0a:	0943      	lsrs	r3, r0, #5
     b0c:	01db      	lsls	r3, r3, #7
     b0e:	4a11      	ldr	r2, [pc, #68]	; (b54 <SaLPinMode+0x54>)
     b10:	4694      	mov	ip, r2
     b12:	4463      	add	r3, ip
    PortGroup *const port = SaLGetPort(pin);
    uint32_t pin_mask = (1UL << (pin % 32));
     b14:	221f      	movs	r2, #31
     b16:	4002      	ands	r2, r0
     b18:	2401      	movs	r4, #1
     b1a:	4094      	lsls	r4, r2

    if ( DIR == OUTPUT) {
     b1c:	2901      	cmp	r1, #1
     b1e:	d105      	bne.n	b2c <SaLPinMode+0x2c>
        port->DIRSET.reg = pin_mask;
     b20:	609c      	str	r4, [r3, #8]
        port->PINCFG[pin].reg = 0;
     b22:	1818      	adds	r0, r3, r0
     b24:	3040      	adds	r0, #64	; 0x40
     b26:	2300      	movs	r3, #0
     b28:	7003      	strb	r3, [r0, #0]
     b2a:	e012      	b.n	b52 <SaLPinMode+0x52>

    } else if(DIR == INPUT) {
     b2c:	2900      	cmp	r1, #0
     b2e:	d109      	bne.n	b44 <SaLPinMode+0x44>
        port->DIRCLR.reg = pin_mask;
     b30:	605c      	str	r4, [r3, #4]
        port->PINCFG[pin].reg = PORT_PINCFG_INEN;
     b32:	1818      	adds	r0, r3, r0
     b34:	3040      	adds	r0, #64	; 0x40
     b36:	2302      	movs	r3, #2
     b38:	7003      	strb	r3, [r0, #0]
        port->PINCFG[pin].reg |= PORT_PINCFG_PULLEN;
     b3a:	7802      	ldrb	r2, [r0, #0]
     b3c:	3302      	adds	r3, #2
     b3e:	4313      	orrs	r3, r2
     b40:	7003      	strb	r3, [r0, #0]
     b42:	e006      	b.n	b52 <SaLPinMode+0x52>
    } else if (DIR == OUTSTRONG) {
     b44:	2903      	cmp	r1, #3
     b46:	d104      	bne.n	b52 <SaLPinMode+0x52>
        port->DIRSET.reg = pin_mask;
     b48:	609c      	str	r4, [r3, #8]
        port->PINCFG[pin].reg = 0x40;
     b4a:	1818      	adds	r0, r3, r0
     b4c:	3040      	adds	r0, #64	; 0x40
     b4e:	2340      	movs	r3, #64	; 0x40
     b50:	7003      	strb	r3, [r0, #0]

    }
     b52:	bd10      	pop	{r4, pc}
     b54:	41004400 	.word	0x41004400

00000b58 <getSample>:
#include <SaLSample.h>


struct sample getSample(struct AltimeterModule altimeter) {
     b58:	b084      	sub	sp, #16
     b5a:	b5f8      	push	{r3, r4, r5, r6, r7, lr}
     b5c:	465f      	mov	r7, fp
     b5e:	4656      	mov	r6, sl
     b60:	464d      	mov	r5, r9
     b62:	4644      	mov	r4, r8
     b64:	b4f0      	push	{r4, r5, r6, r7}
     b66:	1c04      	adds	r4, r0, #0
     b68:	1c0e      	adds	r6, r1, #0
     b6a:	910b      	str	r1, [sp, #44]	; 0x2c
     b6c:	1c17      	adds	r7, r2, #0
     b6e:	920c      	str	r2, [sp, #48]	; 0x30
     b70:	1c1d      	adds	r5, r3, #0
     b72:	930d      	str	r3, [sp, #52]	; 0x34
    struct sample s;
    s.pressure			= altimeter.myAltimetersBarometer->pressure;
    s.altitude			= altimeter.myAltimetersBarometer->currentAltInFt;
     b74:	6990      	ldr	r0, [r2, #24]
     b76:	4b17      	ldr	r3, [pc, #92]	; (bd4 <getSample+0x7c>)
     b78:	4798      	blx	r3
     b7a:	4682      	mov	sl, r0
    s.groundLevel		= altimeter.groundHeight;
     b7c:	9b0e      	ldr	r3, [sp, #56]	; 0x38
     b7e:	4699      	mov	r9, r3
    s.accelerationInX	= altimeter.myAltimetersAccelerometer->acceleration.Xf;
     b80:	68f3      	ldr	r3, [r6, #12]
     b82:	4698      	mov	r8, r3
    s.accelerationInY	= altimeter.myAltimetersAccelerometer->acceleration.Yf;
     b84:	6933      	ldr	r3, [r6, #16]
     b86:	469c      	mov	ip, r3
    s.accelerationInZ	= altimeter.myAltimetersAccelerometer->acceleration.Zf;
     b88:	6973      	ldr	r3, [r6, #20]
     b8a:	469b      	mov	fp, r3
    s.hour				= altimeter.myAltimetersGps->MTK3329.hour;
     b8c:	7928      	ldrb	r0, [r5, #4]
    s.minute			= altimeter.myAltimetersGps->MTK3329.minute;
     b8e:	796e      	ldrb	r6, [r5, #5]
    s.second			= altimeter.myAltimetersGps->MTK3329.second;
     b90:	79a9      	ldrb	r1, [r5, #6]
    s.longitude			= altimeter.myAltimetersGps->MTK3329.longitude;
     b92:	68aa      	ldr	r2, [r5, #8]
    s.latitude			= altimeter.myAltimetersGps->MTK3329.latitude;
     b94:	68eb      	ldr	r3, [r5, #12]
	s.GPSvalid			= altimeter.myAltimetersGps->MTK3329.validSalad; 
     b96:	7c2d      	ldrb	r5, [r5, #16]

    return s;
     b98:	697f      	ldr	r7, [r7, #20]
     b9a:	6027      	str	r7, [r4, #0]
     b9c:	4657      	mov	r7, sl
     b9e:	6067      	str	r7, [r4, #4]
     ba0:	464f      	mov	r7, r9
     ba2:	60a7      	str	r7, [r4, #8]
     ba4:	4647      	mov	r7, r8
     ba6:	60e7      	str	r7, [r4, #12]
     ba8:	4667      	mov	r7, ip
     baa:	6127      	str	r7, [r4, #16]
     bac:	465f      	mov	r7, fp
     bae:	6167      	str	r7, [r4, #20]
     bb0:	7620      	strb	r0, [r4, #24]
     bb2:	7666      	strb	r6, [r4, #25]
     bb4:	76a1      	strb	r1, [r4, #26]
     bb6:	61e2      	str	r2, [r4, #28]
     bb8:	6223      	str	r3, [r4, #32]
     bba:	2324      	movs	r3, #36	; 0x24
     bbc:	54e5      	strb	r5, [r4, r3]
     bbe:	1c20      	adds	r0, r4, #0
     bc0:	bc3c      	pop	{r2, r3, r4, r5}
     bc2:	4690      	mov	r8, r2
     bc4:	4699      	mov	r9, r3
     bc6:	46a2      	mov	sl, r4
     bc8:	46ab      	mov	fp, r5
     bca:	bcf8      	pop	{r3, r4, r5, r6, r7}
     bcc:	bc08      	pop	{r3}
     bce:	b004      	add	sp, #16
     bd0:	4718      	bx	r3
     bd2:	46c0      	nop			; (mov r8, r8)
     bd4:	00005255 	.word	0x00005255

00000bd8 <uart_init>:


#include <SaLUSART.h>

void uart_init(uint32_t baud) {
     bd8:	b510      	push	{r4, lr}

    uint32_t UART_CLKGEN_F = 8000000UL;
    uint64_t br = (uint64_t)65536 * (UART_CLKGEN_F - 16 * baud) / UART_CLKGEN_F;
     bda:	0100      	lsls	r0, r0, #4
     bdc:	4b2c      	ldr	r3, [pc, #176]	; (c90 <uart_init+0xb8>)
     bde:	1a18      	subs	r0, r3, r0
     be0:	0c01      	lsrs	r1, r0, #16
     be2:	0400      	lsls	r0, r0, #16
     be4:	4a2a      	ldr	r2, [pc, #168]	; (c90 <uart_init+0xb8>)
     be6:	2300      	movs	r3, #0
     be8:	4c2a      	ldr	r4, [pc, #168]	; (c94 <uart_init+0xbc>)
     bea:	47a0      	blx	r4

    //enable GPS pins
    //  SaLPinMode(MTK3339_RX_PIN,INPUT);
    //  SaLPinMode(MTK3339_TX_PIN,OUTPUT);
    SYSCTRL->OSC8M.reg -= SYSCTRL_OSC8M_ENABLE;
     bec:	4b2a      	ldr	r3, [pc, #168]	; (c98 <uart_init+0xc0>)
     bee:	6a1a      	ldr	r2, [r3, #32]
     bf0:	3a02      	subs	r2, #2
     bf2:	621a      	str	r2, [r3, #32]
    SYSCTRL->OSC8M.reg -= SYSCTRL_OSC8M_PRESC_3;
     bf4:	6a1a      	ldr	r2, [r3, #32]
     bf6:	4929      	ldr	r1, [pc, #164]	; (c9c <uart_init+0xc4>)
     bf8:	468c      	mov	ip, r1
     bfa:	4462      	add	r2, ip
     bfc:	621a      	str	r2, [r3, #32]
    SYSCTRL->OSC8M.reg |= SYSCTRL_OSC8M_ENABLE;
     bfe:	6a19      	ldr	r1, [r3, #32]
     c00:	2202      	movs	r2, #2
     c02:	430a      	orrs	r2, r1
     c04:	621a      	str	r2, [r3, #32]



    //portB22->PINCFG->reg = 0x44;
    // portB23->PINCFG->reg = 0x44;
    ((Port *)PORT)->Group[1].PINCFG[22].reg = 0x41;
     c06:	4b26      	ldr	r3, [pc, #152]	; (ca0 <uart_init+0xc8>)
     c08:	2241      	movs	r2, #65	; 0x41
     c0a:	21d6      	movs	r1, #214	; 0xd6
     c0c:	545a      	strb	r2, [r3, r1]
    ((Port *)PORT)->Group[1].PINCFG[23].reg = 0x41;
     c0e:	3101      	adds	r1, #1
     c10:	545a      	strb	r2, [r3, r1]
    ((Port *)PORT)->Group[1].PMUX[11].reg = 0x32;
     c12:	39a5      	subs	r1, #165	; 0xa5
     c14:	327a      	adds	r2, #122	; 0x7a
     c16:	5499      	strb	r1, [r3, r2]



    //enable power to sercom 5 module
    PM->APBCMASK.reg |= PM_APBCMASK_SERCOM5;
     c18:	4a22      	ldr	r2, [pc, #136]	; (ca4 <uart_init+0xcc>)
     c1a:	6a11      	ldr	r1, [r2, #32]
     c1c:	2380      	movs	r3, #128	; 0x80
     c1e:	430b      	orrs	r3, r1
     c20:	6213      	str	r3, [r2, #32]
    //enable and configure the sercom clock
    GCLK->GENDIV.reg =  GCLK_GENDIV_ID(3) |
     c22:	4b21      	ldr	r3, [pc, #132]	; (ca8 <uart_init+0xd0>)
     c24:	2204      	movs	r2, #4
     c26:	32ff      	adds	r2, #255	; 0xff
     c28:	609a      	str	r2, [r3, #8]
                        GCLK_GENDIV_DIV(1);
    GCLK->GENCTRL.reg = GCLK_GENCTRL_ID(3) |
     c2a:	4a20      	ldr	r2, [pc, #128]	; (cac <uart_init+0xd4>)
     c2c:	605a      	str	r2, [r3, #4]
                        GCLK_GENCTRL_SRC_OSC8M |
                        GCLK_GENCTRL_IDC |
                        GCLK_GENCTRL_RUNSTDBY |
                        GCLK_GENCTRL_GENEN;
    GCLK->CLKCTRL.reg = GCLK_CLKCTRL_ID_SERCOM5_CORE |
     c2e:	4a20      	ldr	r2, [pc, #128]	; (cb0 <uart_init+0xd8>)
     c30:	805a      	strh	r2, [r3, #2]
                        GCLK_CLKCTRL_CLKEN;
    //     GCLK->CLKCTRL.reg = GCLK_CLKCTRL_ID_SERCOMX_SLOW |
    //                         GCLK_CLKCTRL_GEN_GCLK3 |
    //                         GCLK_CLKCTRL_CLKEN;
    //configure the sercom module for the gps (sercom 5)
    SERCOM5->USART.CTRLA.reg = SERCOM_USART_CTRLA_DORD |
     c32:	4a20      	ldr	r2, [pc, #128]	; (cb4 <uart_init+0xdc>)
     c34:	4b20      	ldr	r3, [pc, #128]	; (cb8 <uart_init+0xe0>)
     c36:	601a      	str	r2, [r3, #0]
#include <SaLIo.h>

typedef uint16_t SaLSercomUsartDataReg_t;

static inline void uart_sync(void) {
    while (SERCOM5->USART.SYNCBUSY.bit.CTRLB);
     c38:	1c19      	adds	r1, r3, #0
     c3a:	2201      	movs	r2, #1
     c3c:	69cb      	ldr	r3, [r1, #28]
     c3e:	089b      	lsrs	r3, r3, #2
     c40:	421a      	tst	r2, r3
     c42:	d1fb      	bne.n	c3c <uart_init+0x64>
                               SERCOM_USART_CTRLA_MODE_USART_INT_CLK |
                               SERCOM_USART_CTRLA_RXPO(3) |
                               SERCOM_USART_CTRLA_TXPO(1);
    uart_sync();
    SERCOM5->USART.CTRLB.reg = SERCOM_USART_CTRLB_RXEN | SERCOM_USART_CTRLB_TXEN |
     c44:	22c0      	movs	r2, #192	; 0xc0
     c46:	0292      	lsls	r2, r2, #10
     c48:	4b1b      	ldr	r3, [pc, #108]	; (cb8 <uart_init+0xe0>)
     c4a:	605a      	str	r2, [r3, #4]
     c4c:	1c19      	adds	r1, r3, #0
     c4e:	2201      	movs	r2, #1
     c50:	69cb      	ldr	r3, [r1, #28]
     c52:	089b      	lsrs	r3, r3, #2
     c54:	421a      	tst	r2, r3
     c56:	d1fb      	bne.n	c50 <uart_init+0x78>
                               SERCOM_USART_CTRLB_CHSIZE(0/*8 bits*/);
    // SERCOM_USART_CTRLB_SFDE;
    uart_sync();
    SERCOM5->USART.BAUD.reg = (uint16_t)br;
     c58:	b280      	uxth	r0, r0
     c5a:	4b17      	ldr	r3, [pc, #92]	; (cb8 <uart_init+0xe0>)
     c5c:	8198      	strh	r0, [r3, #12]
     c5e:	1c19      	adds	r1, r3, #0
     c60:	2201      	movs	r2, #1
     c62:	69cb      	ldr	r3, [r1, #28]
     c64:	089b      	lsrs	r3, r3, #2
     c66:	421a      	tst	r2, r3
     c68:	d1fb      	bne.n	c62 <uart_init+0x8a>
    uart_sync();
    SERCOM5->USART.CTRLA.reg |= SERCOM_USART_CTRLA_ENABLE;
     c6a:	4a13      	ldr	r2, [pc, #76]	; (cb8 <uart_init+0xe0>)
     c6c:	6811      	ldr	r1, [r2, #0]
     c6e:	2302      	movs	r3, #2
     c70:	430b      	orrs	r3, r1
     c72:	6013      	str	r3, [r2, #0]
     c74:	1c11      	adds	r1, r2, #0
     c76:	2201      	movs	r2, #1
     c78:	69cb      	ldr	r3, [r1, #28]
     c7a:	089b      	lsrs	r3, r3, #2
     c7c:	421a      	tst	r2, r3
     c7e:	d1fb      	bne.n	c78 <uart_init+0xa0>
                                 const uint16_t length);

int32_t SaLInitUsart(struct SaLUsartDescriptor *const descr,
                     void *const hw) {

    descr->device.hw = hw;
     c80:	4b0e      	ldr	r3, [pc, #56]	; (cbc <uart_init+0xe4>)
     c82:	4a0d      	ldr	r2, [pc, #52]	; (cb8 <uart_init+0xe0>)
     c84:	609a      	str	r2, [r3, #8]
    descr->io.read = SaLUsartDataRead;
     c86:	4a0e      	ldr	r2, [pc, #56]	; (cc0 <uart_init+0xe8>)
     c88:	605a      	str	r2, [r3, #4]
    descr->io.write = SaLUsartDataWrite;
     c8a:	4a0e      	ldr	r2, [pc, #56]	; (cc4 <uart_init+0xec>)
     c8c:	601a      	str	r2, [r3, #0]
    SERCOM5->USART.CTRLA.reg |= SERCOM_USART_CTRLA_ENABLE;
    uart_sync();

    SaLInitUsart(&USART_0,SERCOM5);

}
     c8e:	bd10      	pop	{r4, pc}
     c90:	007a1200 	.word	0x007a1200
     c94:	00004551 	.word	0x00004551
     c98:	40000800 	.word	0x40000800
     c9c:	fffffd00 	.word	0xfffffd00
     ca0:	41004400 	.word	0x41004400
     ca4:	40000400 	.word	0x40000400
     ca8:	40000c00 	.word	0x40000c00
     cac:	00230603 	.word	0x00230603
     cb0:	00004319 	.word	0x00004319
     cb4:	40310004 	.word	0x40310004
     cb8:	42001c00 	.word	0x42001c00
     cbc:	200000e0 	.word	0x200000e0
     cc0:	00000cd9 	.word	0x00000cd9
     cc4:	00000d29 	.word	0x00000d29

00000cc8 <SaLSyncUsartIo>:
};


void SaLSyncUsartIo(struct SaLUsartDescriptor *const descr,
                    struct IoDescriptor **Io) {
    *Io = &descr->io;
     cc8:	6008      	str	r0, [r1, #0]
};
     cca:	4770      	bx	lr

00000ccc <_usartByteRecieved>:

bool _usartByteRecieved(const struct _UsartDevice *const device) {
    return _usartGetInteruptRCX(device->hw);
     ccc:	6803      	ldr	r3, [r0, #0]
static inline SaLSercomUsartDataReg_t _usartGetDataReg(const void *const hw) {
    return     ((Sercom *)hw)->USART.DATA.reg;
}

static inline bool _usartGetInteruptRCX(const void *const hw) {
    return (((Sercom *)hw)->USART.INTFLAG.reg & SERCOM_USART_INTFLAG_RXC) >> SERCOM_USART_INTFLAG_RXC_Pos;
     cce:	7e18      	ldrb	r0, [r3, #24]
     cd0:	0740      	lsls	r0, r0, #29
     cd2:	0fc0      	lsrs	r0, r0, #31
};
     cd4:	4770      	bx	lr
     cd6:	46c0      	nop			; (mov r8, r8)

00000cd8 <SaLUsartDataRead>:



static int32_t SaLUsartDataRead(struct IoDescriptor *const ioDescr,
                                uint8_t *const buf,
                                const uint16_t length) {
     cd8:	b5f8      	push	{r3, r4, r5, r6, r7, lr}
     cda:	464f      	mov	r7, r9
     cdc:	4646      	mov	r6, r8
     cde:	b4c0      	push	{r6, r7}
     ce0:	4680      	mov	r8, r0
     ce2:	4689      	mov	r9, r1
     ce4:	1c17      	adds	r7, r2, #0

    int32_t offset = 0;
     ce6:	2600      	movs	r6, #0
    struct SaLUsartDescriptor *descr = CONTAINER_OF(ioDescr,struct SaLUsartDescriptor, io);

    do {
        while (!_usartByteRecieved(&descr->device));
     ce8:	1c05      	adds	r5, r0, #0
     cea:	3508      	adds	r5, #8
     cec:	4c0a      	ldr	r4, [pc, #40]	; (d18 <SaLUsartDataRead+0x40>)
     cee:	1c28      	adds	r0, r5, #0
     cf0:	47a0      	blx	r4
     cf2:	2800      	cmp	r0, #0
     cf4:	d0fb      	beq.n	cee <SaLUsartDataRead+0x16>
    ((Sercom *)hw)->USART.DATA.reg = data;
    ATOMIC_SECTION_LEAVE
}

static inline SaLSercomUsartDataReg_t _usartGetDataReg(const void *const hw) {
    return     ((Sercom *)hw)->USART.DATA.reg;
     cf6:	4643      	mov	r3, r8
     cf8:	689b      	ldr	r3, [r3, #8]
     cfa:	8d1b      	ldrh	r3, [r3, #40]	; 0x28
bool _usartByteRecieved(const struct _UsartDevice *const device) {
    return _usartGetInteruptRCX(device->hw);
};

uint8_t _usartGetData(const struct _UsartDevice *const device) {
    return _usartGetDataReg(device->hw);
     cfc:	464a      	mov	r2, r9
     cfe:	5593      	strb	r3, [r2, r6]
    struct SaLUsartDescriptor *descr = CONTAINER_OF(ioDescr,struct SaLUsartDescriptor, io);

    do {
        while (!_usartByteRecieved(&descr->device));
        buf[offset] = _usartGetData(&descr->device);
    } while (++offset < length);
     d00:	3601      	adds	r6, #1
     d02:	1c38      	adds	r0, r7, #0
     d04:	42be      	cmp	r6, r7
     d06:	dbf2      	blt.n	cee <SaLUsartDataRead+0x16>
     d08:	2f00      	cmp	r7, #0
     d0a:	dc00      	bgt.n	d0e <SaLUsartDataRead+0x36>
     d0c:	2001      	movs	r0, #1

    return (int32_t)offset;
}
     d0e:	bc0c      	pop	{r2, r3}
     d10:	4690      	mov	r8, r2
     d12:	4699      	mov	r9, r3
     d14:	bdf8      	pop	{r3, r4, r5, r6, r7, pc}
     d16:	46c0      	nop			; (mov r8, r8)
     d18:	00000ccd 	.word	0x00000ccd

00000d1c <_usartGetDreInterupt>:
uint8_t _usartGetData(const struct _UsartDevice *const device) {
    return _usartGetDataReg(device->hw);
}

bool _usartGetDreInterupt(const struct _UsartDevice *const device) {
    return _usartGetDreInteruptReg(device->hw);
     d1c:	6803      	ldr	r3, [r0, #0]
static inline bool _usartGetInteruptRCX(const void *const hw) {
    return (((Sercom *)hw)->USART.INTFLAG.reg & SERCOM_USART_INTFLAG_RXC) >> SERCOM_USART_INTFLAG_RXC_Pos;

};
static inline bool _usartGetDreInteruptReg(const void *const hw) {
    return (((Sercom *)hw)->USART.INTFLAG.reg & SERCOM_USART_INTFLAG_DRE) >> SERCOM_USART_INTFLAG_DRE_Pos;
     d1e:	7e18      	ldrb	r0, [r3, #24]
     d20:	2301      	movs	r3, #1
     d22:	4018      	ands	r0, r3
}
     d24:	4770      	bx	lr
     d26:	46c0      	nop			; (mov r8, r8)

00000d28 <SaLUsartDataWrite>:
    return (int32_t)offset;
}

static int32_t SaLUsartDataWrite(struct IoDescriptor *const ioDescr,
                                 const uint8_t *const buf,
                                 const uint16_t length) {
     d28:	b5f8      	push	{r3, r4, r5, r6, r7, lr}
     d2a:	464f      	mov	r7, r9
     d2c:	4646      	mov	r6, r8
     d2e:	b4c0      	push	{r6, r7}
     d30:	4680      	mov	r8, r0
     d32:	4689      	mov	r9, r1
     d34:	1c17      	adds	r7, r2, #0

    int32_t offset = 0;
    struct SaLUsartDescriptor *descr = CONTAINER_OF(ioDescr,struct SaLUsartDescriptor, io);

    while (!_usartGetDreInterupt(&descr->device));
     d36:	1c05      	adds	r5, r0, #0
     d38:	3508      	adds	r5, #8
     d3a:	4e10      	ldr	r6, [pc, #64]	; (d7c <SaLUsartDataWrite+0x54>)
     d3c:	1c2c      	adds	r4, r5, #0
     d3e:	1c28      	adds	r0, r5, #0
     d40:	47b0      	blx	r6
     d42:	2800      	cmp	r0, #0
     d44:	d0fa      	beq.n	d3c <SaLUsartDataWrite+0x14>
     d46:	2600      	movs	r6, #0
    do {
        _usartSetDataReg(&descr->device,buf[offset]);
        while (!_usartGetDreInterupt(&descr->device));
     d48:	4d0c      	ldr	r5, [pc, #48]	; (d7c <SaLUsartDataWrite+0x54>)

void SaLSyncUsartIo(struct SaLUsartDescriptor *const descr,
                    struct IoDescriptor **Io);

static inline void _usartSetDataReg(const void *const hw, uint8_t data ) {
    ATOMIC_SECTION_ENTER
     d4a:	f3ef 8310 	mrs	r3, PRIMASK
     d4e:	b672      	cpsid	i
    ((Sercom *)hw)->USART.DATA.reg = data;
     d50:	464a      	mov	r2, r9
     d52:	5d92      	ldrb	r2, [r2, r6]
     d54:	4641      	mov	r1, r8
     d56:	860a      	strh	r2, [r1, #48]	; 0x30
    ATOMIC_SECTION_LEAVE
     d58:	f383 8810 	msr	PRIMASK, r3
     d5c:	1c20      	adds	r0, r4, #0
     d5e:	47a8      	blx	r5
     d60:	2800      	cmp	r0, #0
     d62:	d0fb      	beq.n	d5c <SaLUsartDataWrite+0x34>
    } while (++offset < length);
     d64:	3601      	adds	r6, #1
     d66:	1c38      	adds	r0, r7, #0
     d68:	42be      	cmp	r6, r7
     d6a:	dbee      	blt.n	d4a <SaLUsartDataWrite+0x22>
     d6c:	2f00      	cmp	r7, #0
     d6e:	dc00      	bgt.n	d72 <SaLUsartDataWrite+0x4a>
     d70:	2001      	movs	r0, #1
    return offset;

}
     d72:	bc0c      	pop	{r2, r3}
     d74:	4690      	mov	r8, r2
     d76:	4699      	mov	r9, r3
     d78:	bdf8      	pop	{r3, r4, r5, r6, r7, pc}
     d7a:	46c0      	nop			; (mov r8, r8)
     d7c:	00000d1d 	.word	0x00000d1d

00000d80 <Dummy_Handler>:
 */
__attribute__( ( always_inline ) ) __STATIC_INLINE uint32_t __get_IPSR(void)
{
  uint32_t result;

  __ASM volatile ("MRS %0, ipsr" : "=r" (result) );
     d80:	f3ef 8305 	mrs	r3, IPSR
     d84:	e7fc      	b.n	d80 <Dummy_Handler>
     d86:	46c0      	nop			; (mov r8, r8)

00000d88 <Reset_Handler>:
/**
 * \brief This is the code that gets called on processor reset.
 * To initialize the device, and call the main() routine.
 */
void Reset_Handler(void)
{
     d88:	b570      	push	{r4, r5, r6, lr}

        /* Initialize the relocate segment */
        pSrc = &_etext;
        pDest = &_srelocate;

        if (pSrc != pDest) {
     d8a:	4b2e      	ldr	r3, [pc, #184]	; (e44 <Reset_Handler+0xbc>)
     d8c:	4a2e      	ldr	r2, [pc, #184]	; (e48 <Reset_Handler+0xc0>)
     d8e:	429a      	cmp	r2, r3
     d90:	d003      	beq.n	d9a <Reset_Handler+0x12>
                for (; pDest < &_erelocate;) {
     d92:	4b2e      	ldr	r3, [pc, #184]	; (e4c <Reset_Handler+0xc4>)
     d94:	4a2b      	ldr	r2, [pc, #172]	; (e44 <Reset_Handler+0xbc>)
     d96:	429a      	cmp	r2, r3
     d98:	d304      	bcc.n	da4 <Reset_Handler+0x1c>
                        *pDest++ = *pSrc++;
                }
        }

        /* Clear the zero segment */
        for (pDest = &_szero; pDest < &_ezero;) {
     d9a:	4b2d      	ldr	r3, [pc, #180]	; (e50 <Reset_Handler+0xc8>)
     d9c:	4a2d      	ldr	r2, [pc, #180]	; (e54 <Reset_Handler+0xcc>)
     d9e:	429a      	cmp	r2, r3
     da0:	d310      	bcc.n	dc4 <Reset_Handler+0x3c>
     da2:	e01e      	b.n	de2 <Reset_Handler+0x5a>
     da4:	4a2c      	ldr	r2, [pc, #176]	; (e58 <Reset_Handler+0xd0>)
     da6:	4b29      	ldr	r3, [pc, #164]	; (e4c <Reset_Handler+0xc4>)
     da8:	3303      	adds	r3, #3
     daa:	1a9b      	subs	r3, r3, r2
     dac:	089b      	lsrs	r3, r3, #2
     dae:	3301      	adds	r3, #1
     db0:	009b      	lsls	r3, r3, #2
        /* Initialize the relocate segment */
        pSrc = &_etext;
        pDest = &_srelocate;

        if (pSrc != pDest) {
                for (; pDest < &_erelocate;) {
     db2:	2200      	movs	r2, #0
                        *pDest++ = *pSrc++;
     db4:	4823      	ldr	r0, [pc, #140]	; (e44 <Reset_Handler+0xbc>)
     db6:	4924      	ldr	r1, [pc, #144]	; (e48 <Reset_Handler+0xc0>)
     db8:	588c      	ldr	r4, [r1, r2]
     dba:	5084      	str	r4, [r0, r2]
     dbc:	3204      	adds	r2, #4
        /* Initialize the relocate segment */
        pSrc = &_etext;
        pDest = &_srelocate;

        if (pSrc != pDest) {
                for (; pDest < &_erelocate;) {
     dbe:	429a      	cmp	r2, r3
     dc0:	d1fa      	bne.n	db8 <Reset_Handler+0x30>
     dc2:	e7ea      	b.n	d9a <Reset_Handler+0x12>
     dc4:	4a25      	ldr	r2, [pc, #148]	; (e5c <Reset_Handler+0xd4>)
     dc6:	4b22      	ldr	r3, [pc, #136]	; (e50 <Reset_Handler+0xc8>)
     dc8:	3303      	adds	r3, #3
     dca:	1a9b      	subs	r3, r3, r2
     dcc:	089b      	lsrs	r3, r3, #2
     dce:	3301      	adds	r3, #1
     dd0:	009b      	lsls	r3, r3, #2
                        *pDest++ = *pSrc++;
                }
        }

        /* Clear the zero segment */
        for (pDest = &_szero; pDest < &_ezero;) {
     dd2:	2200      	movs	r2, #0
                *pDest++ = 0;
     dd4:	481f      	ldr	r0, [pc, #124]	; (e54 <Reset_Handler+0xcc>)
     dd6:	2100      	movs	r1, #0
     dd8:	1814      	adds	r4, r2, r0
     dda:	6021      	str	r1, [r4, #0]
     ddc:	3204      	adds	r2, #4
                        *pDest++ = *pSrc++;
                }
        }

        /* Clear the zero segment */
        for (pDest = &_szero; pDest < &_ezero;) {
     dde:	429a      	cmp	r2, r3
     de0:	d1fa      	bne.n	dd8 <Reset_Handler+0x50>
                *pDest++ = 0;
        }

        /* Set the vector table base address */
        pSrc = (uint32_t *) & _sfixed;
        SCB->VTOR = ((uint32_t) pSrc & SCB_VTOR_TBLOFF_Msk);
     de2:	4a1f      	ldr	r2, [pc, #124]	; (e60 <Reset_Handler+0xd8>)
     de4:	21ff      	movs	r1, #255	; 0xff
     de6:	4b1f      	ldr	r3, [pc, #124]	; (e64 <Reset_Handler+0xdc>)
     de8:	438b      	bics	r3, r1
     dea:	6093      	str	r3, [r2, #8]

        /* Change default QOS values to have the best performance and correct USB behaviour */
        SBMATRIX->SFR[SBMATRIX_SLAVE_HMCRAMC0].reg = 2;
     dec:	39fd      	subs	r1, #253	; 0xfd
     dee:	2390      	movs	r3, #144	; 0x90
     df0:	005b      	lsls	r3, r3, #1
     df2:	4a1d      	ldr	r2, [pc, #116]	; (e68 <Reset_Handler+0xe0>)
     df4:	50d1      	str	r1, [r2, r3]
#if defined(ID_USB)
        USB->DEVICE.QOSCTRL.bit.CQOS = 2;
     df6:	481d      	ldr	r0, [pc, #116]	; (e6c <Reset_Handler+0xe4>)
     df8:	78c3      	ldrb	r3, [r0, #3]
     dfa:	2403      	movs	r4, #3
     dfc:	43a3      	bics	r3, r4
     dfe:	2202      	movs	r2, #2
     e00:	4313      	orrs	r3, r2
     e02:	70c3      	strb	r3, [r0, #3]
        USB->DEVICE.QOSCTRL.bit.DQOS = 2;
     e04:	78c3      	ldrb	r3, [r0, #3]
     e06:	260c      	movs	r6, #12
     e08:	43b3      	bics	r3, r6
     e0a:	2108      	movs	r1, #8
     e0c:	430b      	orrs	r3, r1
     e0e:	70c3      	strb	r3, [r0, #3]
#endif
        DMAC->QOSCTRL.bit.DQOS = 2;
     e10:	4b17      	ldr	r3, [pc, #92]	; (e70 <Reset_Handler+0xe8>)
     e12:	7b98      	ldrb	r0, [r3, #14]
     e14:	2530      	movs	r5, #48	; 0x30
     e16:	43a8      	bics	r0, r5
     e18:	1c05      	adds	r5, r0, #0
     e1a:	2020      	movs	r0, #32
     e1c:	4328      	orrs	r0, r5
     e1e:	7398      	strb	r0, [r3, #14]
        DMAC->QOSCTRL.bit.FQOS = 2;
     e20:	7b98      	ldrb	r0, [r3, #14]
     e22:	43b0      	bics	r0, r6
     e24:	4301      	orrs	r1, r0
     e26:	7399      	strb	r1, [r3, #14]
        DMAC->QOSCTRL.bit.WRBQOS = 2;
     e28:	7b99      	ldrb	r1, [r3, #14]
     e2a:	43a1      	bics	r1, r4
     e2c:	430a      	orrs	r2, r1
     e2e:	739a      	strb	r2, [r3, #14]

        /* Overwriting the default value of the NVMCTRL.CTRLB.MANW bit (errata reference 13134) */
        NVMCTRL->CTRLB.bit.MANW = 1;
     e30:	4a10      	ldr	r2, [pc, #64]	; (e74 <Reset_Handler+0xec>)
     e32:	6851      	ldr	r1, [r2, #4]
     e34:	2380      	movs	r3, #128	; 0x80
     e36:	430b      	orrs	r3, r1
     e38:	6053      	str	r3, [r2, #4]

        /* Initialize the C library */
        __libc_init_array();
     e3a:	4b0f      	ldr	r3, [pc, #60]	; (e78 <Reset_Handler+0xf0>)
     e3c:	4798      	blx	r3

        /* Branch to main function */
        main();
     e3e:	4b0f      	ldr	r3, [pc, #60]	; (e7c <Reset_Handler+0xf4>)
     e40:	4798      	blx	r3

        /* Infinite loop */
        while (1);
     e42:	e7fe      	b.n	e42 <Reset_Handler+0xba>
     e44:	20000000 	.word	0x20000000
     e48:	00007a44 	.word	0x00007a44
     e4c:	200000b0 	.word	0x200000b0
     e50:	20004f14 	.word	0x20004f14
     e54:	200000b0 	.word	0x200000b0
     e58:	20000004 	.word	0x20000004
     e5c:	200000b4 	.word	0x200000b4
     e60:	e000ed00 	.word	0xe000ed00
     e64:	00000000 	.word	0x00000000
     e68:	41007000 	.word	0x41007000
     e6c:	41005000 	.word	0x41005000
     e70:	41004800 	.word	0x41004800
     e74:	41004000 	.word	0x41004000
     e78:	000023b5 	.word	0x000023b5
     e7c:	00000f2d 	.word	0x00000f2d

00000e80 <SystemInit>:
 *         Initialize the System and update the SystemCoreClock variable.
 */
void SystemInit(void)
{
	// Keep the default device state after reset
	SystemCoreClock = __SYSTEM_CLOCK;
     e80:	4a01      	ldr	r2, [pc, #4]	; (e88 <SystemInit+0x8>)
     e82:	4b02      	ldr	r3, [pc, #8]	; (e8c <SystemInit+0xc>)
     e84:	601a      	str	r2, [r3, #0]
	return;
}
     e86:	4770      	bx	lr
     e88:	000f4240 	.word	0x000f4240
     e8c:	20000008 	.word	0x20000008

00000e90 <millis>:
    RTC->MODE1.INTFLAG.reg = 0xFF;
}

static uint32_t millis(void) {
    uint32_t ms;
    ATOMIC_SECTION_ENTER
     e90:	f3ef 8110 	mrs	r1, PRIMASK
     e94:	b672      	cpsid	i
    ms = time_ms + RTC->MODE1.COUNT.reg;
     e96:	4a0b      	ldr	r2, [pc, #44]	; (ec4 <millis+0x34>)
     e98:	8a10      	ldrh	r0, [r2, #16]
     e9a:	b280      	uxth	r0, r0
     e9c:	4b0a      	ldr	r3, [pc, #40]	; (ec8 <millis+0x38>)
     e9e:	681b      	ldr	r3, [r3, #0]
    if (RTC->MODE1.INTFLAG.bit.OVF)
     ea0:	7a12      	ldrb	r2, [r2, #8]
     ea2:	09d2      	lsrs	r2, r2, #7
}

static uint32_t millis(void) {
    uint32_t ms;
    ATOMIC_SECTION_ENTER
    ms = time_ms + RTC->MODE1.COUNT.reg;
     ea4:	18c0      	adds	r0, r0, r3
    if (RTC->MODE1.INTFLAG.bit.OVF)
     ea6:	2a00      	cmp	r2, #0
     ea8:	d008      	beq.n	ebc <millis+0x2c>
        ms = time_ms + RTC->MODE1.COUNT.reg + 1000;
     eaa:	4b06      	ldr	r3, [pc, #24]	; (ec4 <millis+0x34>)
     eac:	8a1b      	ldrh	r3, [r3, #16]
     eae:	4a06      	ldr	r2, [pc, #24]	; (ec8 <millis+0x38>)
     eb0:	6810      	ldr	r0, [r2, #0]
     eb2:	22fa      	movs	r2, #250	; 0xfa
     eb4:	0092      	lsls	r2, r2, #2
     eb6:	4694      	mov	ip, r2
     eb8:	4460      	add	r0, ip
     eba:	1818      	adds	r0, r3, r0
    ATOMIC_SECTION_LEAVE
     ebc:	f381 8810 	msr	PRIMASK, r1
    return ms;
}
     ec0:	4770      	bx	lr
     ec2:	46c0      	nop			; (mov r8, r8)
     ec4:	40001400 	.word	0x40001400
     ec8:	200000d0 	.word	0x200000d0

00000ecc <PinConfig>:
float accelDataY[1000];
float accelDataZ[1000];
float currentHeight[1000];
uint8_t bytesRead;

void PinConfig() {
     ecc:	b538      	push	{r3, r4, r5, lr}
    /* temp SS HIGH for other peripherals */
    SaLPinMode(PIN_PA07,INPUT);
     ece:	2007      	movs	r0, #7
     ed0:	2100      	movs	r1, #0
     ed2:	4c0c      	ldr	r4, [pc, #48]	; (f04 <PinConfig+0x38>)
     ed4:	47a0      	blx	r4
    SaLPinMode(PIN_PA10,OUTPUT);
     ed6:	200a      	movs	r0, #10
     ed8:	2101      	movs	r1, #1
     eda:	47a0      	blx	r4
    SaLPinMode(PIN_PA08,OUTPUT);
     edc:	2008      	movs	r0, #8
     ede:	2101      	movs	r1, #1
     ee0:	47a0      	blx	r4
    SaLPinMode(BUZZER,OUTSTRONG);
     ee2:	200c      	movs	r0, #12
     ee4:	2103      	movs	r1, #3
     ee6:	47a0      	blx	r4
    PortGroup *const port = SaLGetPort(pin);
    uint32_t pin_mask = (1UL << (pin % 32));


    if (level) {
        port->OUTSET.reg = pin_mask;
     ee8:	4d07      	ldr	r5, [pc, #28]	; (f08 <PinConfig+0x3c>)
     eea:	2380      	movs	r3, #128	; 0x80
     eec:	00db      	lsls	r3, r3, #3
     eee:	61ab      	str	r3, [r5, #24]
     ef0:	2380      	movs	r3, #128	; 0x80
     ef2:	005b      	lsls	r3, r3, #1
     ef4:	61ab      	str	r3, [r5, #24]
    SaLDigitalOut(PIN_PA10,true);
    SaLDigitalOut(PIN_PA08,true);
    SaLPinMode(MS5607_SLAVE_SELECT_PIN,OUTPUT);
     ef6:	2009      	movs	r0, #9
     ef8:	2101      	movs	r1, #1
     efa:	47a0      	blx	r4
     efc:	2380      	movs	r3, #128	; 0x80
     efe:	009b      	lsls	r3, r3, #2
     f00:	61ab      	str	r3, [r5, #24]
    SaLDigitalOut(MS5607_SLAVE_SELECT_PIN,TRUE);
}
     f02:	bd38      	pop	{r3, r4, r5, pc}
     f04:	00000b01 	.word	0x00000b01
     f08:	41004400 	.word	0x41004400

00000f0c <RTC_Handler>:

void RTC_Handler(void) {
    time_ms += 1000;
     f0c:	4a05      	ldr	r2, [pc, #20]	; (f24 <RTC_Handler+0x18>)
     f0e:	6813      	ldr	r3, [r2, #0]
     f10:	21fa      	movs	r1, #250	; 0xfa
     f12:	0089      	lsls	r1, r1, #2
     f14:	468c      	mov	ip, r1
     f16:	4463      	add	r3, ip
     f18:	6013      	str	r3, [r2, #0]
    RTC->MODE1.INTFLAG.reg = 0xFF;
     f1a:	22ff      	movs	r2, #255	; 0xff
     f1c:	4b02      	ldr	r3, [pc, #8]	; (f28 <RTC_Handler+0x1c>)
     f1e:	721a      	strb	r2, [r3, #8]
}
     f20:	4770      	bx	lr
     f22:	46c0      	nop			; (mov r8, r8)
     f24:	200000d0 	.word	0x200000d0
     f28:	40001400 	.word	0x40001400

00000f2c <main>:
    return ms;
}

volatile uint32_t counter = 0;

int main(void) {
     f2c:	b5f0      	push	{r4, r5, r6, r7, lr}
     f2e:	464f      	mov	r7, r9
     f30:	4646      	mov	r6, r8
     f32:	b4c0      	push	{r6, r7}
     f34:	b0f1      	sub	sp, #452	; 0x1c4
    SystemInit();
     f36:	4b50      	ldr	r3, [pc, #320]	; (1078 <main+0x14c>)
     f38:	4798      	blx	r3
    SaLDelayInit();
     f3a:	4b50      	ldr	r3, [pc, #320]	; (107c <main+0x150>)
     f3c:	4798      	blx	r3
    SalGclkInit();
     f3e:	4b50      	ldr	r3, [pc, #320]	; (1080 <main+0x154>)
     f40:	4798      	blx	r3
    SaLRtcInit();
     f42:	4b50      	ldr	r3, [pc, #320]	; (1084 <main+0x158>)
     f44:	4798      	blx	r3
    PinConfig();
     f46:	4b50      	ldr	r3, [pc, #320]	; (1088 <main+0x15c>)
     f48:	4798      	blx	r3
    uart_init(9600);
     f4a:	2096      	movs	r0, #150	; 0x96
     f4c:	0180      	lsls	r0, r0, #6
     f4e:	4b4f      	ldr	r3, [pc, #316]	; (108c <main+0x160>)
     f50:	4798      	blx	r3
    struct AccelerometerModule myAccelerometer;
    struct BarometerModule myBarometer;
    struct AltimeterModule myAltimeter;
    struct sample currentSample;

    SaLSyncUsartIo(&USART_0, &UsartIoModule);
     f52:	484f      	ldr	r0, [pc, #316]	; (1090 <main+0x164>)
     f54:	a96f      	add	r1, sp, #444	; 0x1bc
     f56:	4b4f      	ldr	r3, [pc, #316]	; (1094 <main+0x168>)
     f58:	4798      	blx	r3
    initAccelerometer(&myAccelerometer);
     f5a:	a85f      	add	r0, sp, #380	; 0x17c
     f5c:	4b4e      	ldr	r3, [pc, #312]	; (1098 <main+0x16c>)
     f5e:	4798      	blx	r3
    initBarometer(&myBarometer);
     f60:	ac58      	add	r4, sp, #352	; 0x160
     f62:	1c20      	adds	r0, r4, #0
     f64:	4b4d      	ldr	r3, [pc, #308]	; (109c <main+0x170>)
     f66:	4798      	blx	r3
    getAccelEvent(&myAccelerometer);
     f68:	a85f      	add	r0, sp, #380	; 0x17c
     f6a:	4b4d      	ldr	r3, [pc, #308]	; (10a0 <main+0x174>)
     f6c:	4798      	blx	r3

    myGPS.MTK3329 = MTK3329Instance;
     f6e:	aa6a      	add	r2, sp, #424	; 0x1a8
     f70:	ab65      	add	r3, sp, #404	; 0x194
     f72:	1c11      	adds	r1, r2, #0
     f74:	cb61      	ldmia	r3!, {r0, r5, r6}
     f76:	c161      	stmia	r1!, {r0, r5, r6}
     f78:	cb21      	ldmia	r3!, {r0, r5}
     f7a:	c121      	stmia	r1!, {r0, r5}
    myAltimeter.myAltimetersAccelerometer = &myAccelerometer;
    myAltimeter.myAltimetersBarometer = &myBarometer;
     f7c:	9455      	str	r4, [sp, #340]	; 0x154
    myAltimeter.myAltimetersGps = &myGPS;
     f7e:	9256      	str	r2, [sp, #344]	; 0x158
     f80:	2208      	movs	r2, #8
     f82:	4b48      	ldr	r3, [pc, #288]	; (10a4 <main+0x178>)
     f84:	601a      	str	r2, [r3, #0]

    //startUpTone();
    NVIC_EnableIRQ(RTC_IRQn);
    uint32_t index = 0;
    volatile uint32_t milliseconds = 0;
     f86:	2300      	movs	r3, #0
     f88:	9349      	str	r3, [sp, #292]	; 0x124
     f8a:	2464      	movs	r4, #100	; 0x64
    uint8_t message[255];

    struct sVar groundHeight;

    for (uint8_t i = 0; i < 100; i++) {
        getMS5607PressureSlow(&myBarometer);
     f8c:	4e46      	ldr	r6, [pc, #280]	; (10a8 <main+0x17c>)
        uint32_t tempheight = myBarometer.currentAltInFt;
        addSampleToVariance(&groundHeight,tempheight);
     f8e:	4d47      	ldr	r5, [pc, #284]	; (10ac <main+0x180>)
    uint8_t message[255];

    struct sVar groundHeight;

    for (uint8_t i = 0; i < 100; i++) {
        getMS5607PressureSlow(&myBarometer);
     f90:	a858      	add	r0, sp, #352	; 0x160
     f92:	47b0      	blx	r6
        uint32_t tempheight = myBarometer.currentAltInFt;
        addSampleToVariance(&groundHeight,tempheight);
     f94:	9b5e      	ldr	r3, [sp, #376]	; 0x178
     f96:	9303      	str	r3, [sp, #12]
     f98:	a806      	add	r0, sp, #24
     f9a:	1c19      	adds	r1, r3, #0
     f9c:	47a8      	blx	r5
     f9e:	3c01      	subs	r4, #1
     fa0:	b2e4      	uxtb	r4, r4

    uint8_t message[255];

    struct sVar groundHeight;

    for (uint8_t i = 0; i < 100; i++) {
     fa2:	2c00      	cmp	r4, #0
     fa4:	d1f4      	bne.n	f90 <main+0x64>
        getMS5607PressureSlow(&myBarometer);
        uint32_t tempheight = myBarometer.currentAltInFt;
        addSampleToVariance(&groundHeight,tempheight);
    }
    volatile uint32_t variance = GetVariance(&groundHeight,&groundHeight.mean);
     fa6:	a806      	add	r0, sp, #24
     fa8:	1c01      	adds	r1, r0, #0
     faa:	4b41      	ldr	r3, [pc, #260]	; (10b0 <main+0x184>)
     fac:	4798      	blx	r3
     fae:	9005      	str	r0, [sp, #20]
     fb0:	34c8      	adds	r4, #200	; 0xc8


    for (uint8_t i = 0; i < 200; i++) {
        getMS5607PressureSlow(&myBarometer);
     fb2:	4e3d      	ldr	r6, [pc, #244]	; (10a8 <main+0x17c>)
        uint32_t tempheight = myBarometer.currentAltInFt;
        addSampleToVariance(&groundHeight,tempheight);
     fb4:	4d3d      	ldr	r5, [pc, #244]	; (10ac <main+0x180>)
    }
    volatile uint32_t variance = GetVariance(&groundHeight,&groundHeight.mean);


    for (uint8_t i = 0; i < 200; i++) {
        getMS5607PressureSlow(&myBarometer);
     fb6:	a858      	add	r0, sp, #352	; 0x160
     fb8:	47b0      	blx	r6
        uint32_t tempheight = myBarometer.currentAltInFt;
        addSampleToVariance(&groundHeight,tempheight);
     fba:	9b5e      	ldr	r3, [sp, #376]	; 0x178
     fbc:	9303      	str	r3, [sp, #12]
     fbe:	a806      	add	r0, sp, #24
     fc0:	1c19      	adds	r1, r3, #0
     fc2:	47a8      	blx	r5
     fc4:	3c01      	subs	r4, #1
     fc6:	b2e4      	uxtb	r4, r4
        addSampleToVariance(&groundHeight,tempheight);
    }
    volatile uint32_t variance = GetVariance(&groundHeight,&groundHeight.mean);


    for (uint8_t i = 0; i < 200; i++) {
     fc8:	2c00      	cmp	r4, #0
     fca:	d1f4      	bne.n	fb6 <main+0x8a>
        uint32_t tempheight = myBarometer.currentAltInFt;
        addSampleToVariance(&groundHeight,tempheight);

    }

    volatile uint32_t groundAlt = groundHeight.mean;
     fcc:	9b06      	ldr	r3, [sp, #24]
     fce:	9304      	str	r3, [sp, #16]
    variance = GetVariance(&groundHeight,&groundHeight.mean);
     fd0:	a806      	add	r0, sp, #24
     fd2:	1c01      	adds	r1, r0, #0
     fd4:	4b36      	ldr	r3, [pc, #216]	; (10b0 <main+0x184>)
     fd6:	4798      	blx	r3
     fd8:	9005      	str	r0, [sp, #20]

    uint32_t lasttime = millis();
     fda:	4b36      	ldr	r3, [pc, #216]	; (10b4 <main+0x188>)
     fdc:	4798      	blx	r3
     fde:	1c06      	adds	r6, r0, #0

    while (1) {

        counter++;
     fe0:	4d35      	ldr	r5, [pc, #212]	; (10b8 <main+0x18c>)
        index++;
        milliseconds = millis();
     fe2:	4b34      	ldr	r3, [pc, #208]	; (10b4 <main+0x188>)
     fe4:	4699      	mov	r9, r3

        if (milliseconds - lasttime > 10000) {
            lasttime = milliseconds;
            bytesRead = SaLIoRead(UsartIoModule,&message[0],225);
     fe6:	4b35      	ldr	r3, [pc, #212]	; (10bc <main+0x190>)
     fe8:	4698      	mov	r8, r3

    uint32_t lasttime = millis();

    while (1) {

        counter++;
     fea:	686b      	ldr	r3, [r5, #4]
     fec:	3301      	adds	r3, #1
     fee:	606b      	str	r3, [r5, #4]
        index++;
     ff0:	3401      	adds	r4, #1
        milliseconds = millis();
     ff2:	47c8      	blx	r9
     ff4:	9049      	str	r0, [sp, #292]	; 0x124

        if (milliseconds - lasttime > 10000) {
     ff6:	9b49      	ldr	r3, [sp, #292]	; 0x124
     ff8:	1b9b      	subs	r3, r3, r6
     ffa:	4a31      	ldr	r2, [pc, #196]	; (10c0 <main+0x194>)
     ffc:	4293      	cmp	r3, r2
     ffe:	d918      	bls.n	1032 <main+0x106>
            lasttime = milliseconds;
    1000:	9e49      	ldr	r6, [sp, #292]	; 0x124
            bytesRead = SaLIoRead(UsartIoModule,&message[0],225);
    1002:	986f      	ldr	r0, [sp, #444]	; 0x1bc
    1004:	a909      	add	r1, sp, #36	; 0x24
    1006:	22e1      	movs	r2, #225	; 0xe1
    1008:	47c0      	blx	r8
    100a:	4b2e      	ldr	r3, [pc, #184]	; (10c4 <main+0x198>)
    100c:	7018      	strb	r0, [r3, #0]
            MTK3329ParseMessage(&myGPS.MTK3329,&message[0]);
    100e:	a86a      	add	r0, sp, #424	; 0x1a8
    1010:	a909      	add	r1, sp, #36	; 0x24
    1012:	4b2d      	ldr	r3, [pc, #180]	; (10c8 <main+0x19c>)
    1014:	4798      	blx	r3
            //SaLPlayTone(400);
            currentSample = getSample(myAltimeter);
    1016:	ab5f      	add	r3, sp, #380	; 0x17c
    1018:	1c19      	adds	r1, r3, #0
    101a:	9354      	str	r3, [sp, #336]	; 0x150
    101c:	9b57      	ldr	r3, [sp, #348]	; 0x15c
    101e:	9303      	str	r3, [sp, #12]
    1020:	9300      	str	r3, [sp, #0]
    1022:	9a55      	ldr	r2, [sp, #340]	; 0x154
    1024:	9b56      	ldr	r3, [sp, #344]	; 0x158
    1026:	a84a      	add	r0, sp, #296	; 0x128
    1028:	4f28      	ldr	r7, [pc, #160]	; (10cc <main+0x1a0>)
    102a:	47b8      	blx	r7
            counter = 0;
    102c:	2200      	movs	r2, #0
    102e:	4b22      	ldr	r3, [pc, #136]	; (10b8 <main+0x18c>)
    1030:	605a      	str	r2, [r3, #4]
        }

        getMS5607PressureSlow(&myBarometer);
    1032:	a858      	add	r0, sp, #352	; 0x160
    1034:	4b1c      	ldr	r3, [pc, #112]	; (10a8 <main+0x17c>)
    1036:	4798      	blx	r3
        currentHeight[index] = groundAlt - myBarometer.currentAltInFt;
    1038:	9b04      	ldr	r3, [sp, #16]
    103a:	00a7      	lsls	r7, r4, #2
    103c:	985e      	ldr	r0, [sp, #376]	; 0x178
    103e:	1a18      	subs	r0, r3, r0
    1040:	4b23      	ldr	r3, [pc, #140]	; (10d0 <main+0x1a4>)
    1042:	4798      	blx	r3
    1044:	4b23      	ldr	r3, [pc, #140]	; (10d4 <main+0x1a8>)
    1046:	50f8      	str	r0, [r7, r3]

        getAccelEvent(myAltimeter.myAltimetersAccelerometer);
    1048:	a85f      	add	r0, sp, #380	; 0x17c
    104a:	4b15      	ldr	r3, [pc, #84]	; (10a0 <main+0x174>)
    104c:	4798      	blx	r3
        accelDataX[index] = myAccelerometer.acceleration.Xf;
    104e:	9b62      	ldr	r3, [sp, #392]	; 0x188
    1050:	9303      	str	r3, [sp, #12]
    1052:	4b21      	ldr	r3, [pc, #132]	; (10d8 <main+0x1ac>)
    1054:	9a03      	ldr	r2, [sp, #12]
    1056:	50fa      	str	r2, [r7, r3]
        accelDataY[index] = myAccelerometer.acceleration.Yf;
    1058:	9b63      	ldr	r3, [sp, #396]	; 0x18c
    105a:	9303      	str	r3, [sp, #12]
    105c:	4b1f      	ldr	r3, [pc, #124]	; (10dc <main+0x1b0>)
    105e:	9a03      	ldr	r2, [sp, #12]
    1060:	50fa      	str	r2, [r7, r3]
        accelDataZ[index] = myAccelerometer.acceleration.Zf;
    1062:	9a64      	ldr	r2, [sp, #400]	; 0x190
    1064:	4b1e      	ldr	r3, [pc, #120]	; (10e0 <main+0x1b4>)
    1066:	50fa      	str	r2, [r7, r3]

        if (index == 1000) {
            index = 0;
    1068:	4b1e      	ldr	r3, [pc, #120]	; (10e4 <main+0x1b8>)
    106a:	18e3      	adds	r3, r4, r3
    106c:	1e5a      	subs	r2, r3, #1
    106e:	4193      	sbcs	r3, r2
    1070:	425b      	negs	r3, r3
    1072:	401c      	ands	r4, r3
    1074:	e7b9      	b.n	fea <main+0xbe>
    1076:	46c0      	nop			; (mov r8, r8)
    1078:	00000e81 	.word	0x00000e81
    107c:	00000a59 	.word	0x00000a59
    1080:	00000931 	.word	0x00000931
    1084:	000009d1 	.word	0x000009d1
    1088:	00000ecd 	.word	0x00000ecd
    108c:	00000bd9 	.word	0x00000bd9
    1090:	200000e0 	.word	0x200000e0
    1094:	00000cc9 	.word	0x00000cc9
    1098:	00000639 	.word	0x00000639
    109c:	000007a9 	.word	0x000007a9
    10a0:	000006c9 	.word	0x000006c9
    10a4:	e000e100 	.word	0xe000e100
    10a8:	00000825 	.word	0x00000825
    10ac:	00000aad 	.word	0x00000aad
    10b0:	00000add 	.word	0x00000add
    10b4:	00000e91 	.word	0x00000e91
    10b8:	200000d0 	.word	0x200000d0
    10bc:	00000aa5 	.word	0x00000aa5
    10c0:	00002710 	.word	0x00002710
    10c4:	200000ec 	.word	0x200000ec
    10c8:	000005bd 	.word	0x000005bd
    10cc:	00000b59 	.word	0x00000b59
    10d0:	00005255 	.word	0x00005255
    10d4:	20003f70 	.word	0x20003f70
    10d8:	20002fd0 	.word	0x20002fd0
    10dc:	200000f0 	.word	0x200000f0
    10e0:	20001090 	.word	0x20001090
    10e4:	fffffc18 	.word	0xfffffc18

000010e8 <pow>:
    10e8:	b5f0      	push	{r4, r5, r6, r7, lr}
    10ea:	4646      	mov	r6, r8
    10ec:	4657      	mov	r7, sl
    10ee:	b4c0      	push	{r6, r7}
    10f0:	b08f      	sub	sp, #60	; 0x3c
    10f2:	1c1f      	adds	r7, r3, #0
    10f4:	9002      	str	r0, [sp, #8]
    10f6:	9103      	str	r1, [sp, #12]
    10f8:	1c16      	adds	r6, r2, #0
    10fa:	f000 f9a3 	bl	1444 <__ieee754_pow>
    10fe:	1c04      	adds	r4, r0, #0
    1100:	1c0d      	adds	r5, r1, #0
    1102:	4bc8      	ldr	r3, [pc, #800]	; (1424 <pow+0x33c>)
    1104:	9400      	str	r4, [sp, #0]
    1106:	9501      	str	r5, [sp, #4]
    1108:	4698      	mov	r8, r3
    110a:	781b      	ldrb	r3, [r3, #0]
    110c:	b25b      	sxtb	r3, r3
    110e:	3301      	adds	r3, #1
    1110:	d005      	beq.n	111e <pow+0x36>
    1112:	1c30      	adds	r0, r6, #0
    1114:	1c39      	adds	r1, r7, #0
    1116:	f000 ffdf 	bl	20d8 <__fpclassifyd>
    111a:	2800      	cmp	r0, #0
    111c:	d106      	bne.n	112c <pow+0x44>
    111e:	9800      	ldr	r0, [sp, #0]
    1120:	9901      	ldr	r1, [sp, #4]
    1122:	b00f      	add	sp, #60	; 0x3c
    1124:	bc0c      	pop	{r2, r3}
    1126:	4690      	mov	r8, r2
    1128:	469a      	mov	sl, r3
    112a:	bdf0      	pop	{r4, r5, r6, r7, pc}
    112c:	9802      	ldr	r0, [sp, #8]
    112e:	9903      	ldr	r1, [sp, #12]
    1130:	f000 ffd2 	bl	20d8 <__fpclassifyd>
    1134:	4682      	mov	sl, r0
    1136:	2800      	cmp	r0, #0
    1138:	d131      	bne.n	119e <pow+0xb6>
    113a:	1c30      	adds	r0, r6, #0
    113c:	1c39      	adds	r1, r7, #0
    113e:	2200      	movs	r2, #0
    1140:	2300      	movs	r3, #0
    1142:	f003 f9d7 	bl	44f4 <__aeabi_dcmpeq>
    1146:	2800      	cmp	r0, #0
    1148:	d0e9      	beq.n	111e <pow+0x36>
    114a:	2301      	movs	r3, #1
    114c:	9304      	str	r3, [sp, #16]
    114e:	4bb6      	ldr	r3, [pc, #728]	; (1428 <pow+0x340>)
    1150:	ad04      	add	r5, sp, #16
    1152:	606b      	str	r3, [r5, #4]
    1154:	4653      	mov	r3, sl
    1156:	2200      	movs	r2, #0
    1158:	622b      	str	r3, [r5, #32]
    115a:	9b02      	ldr	r3, [sp, #8]
    115c:	9c03      	ldr	r4, [sp, #12]
    115e:	60ab      	str	r3, [r5, #8]
    1160:	60ec      	str	r4, [r5, #12]
    1162:	4bb2      	ldr	r3, [pc, #712]	; (142c <pow+0x344>)
    1164:	612e      	str	r6, [r5, #16]
    1166:	616f      	str	r7, [r5, #20]
    1168:	61aa      	str	r2, [r5, #24]
    116a:	61eb      	str	r3, [r5, #28]
    116c:	4643      	mov	r3, r8
    116e:	781b      	ldrb	r3, [r3, #0]
    1170:	b25b      	sxtb	r3, r3
    1172:	1c5a      	adds	r2, r3, #1
    1174:	d00e      	beq.n	1194 <pow+0xac>
    1176:	2b02      	cmp	r3, #2
    1178:	d00c      	beq.n	1194 <pow+0xac>
    117a:	1c28      	adds	r0, r5, #0
    117c:	f000 ffda 	bl	2134 <matherr>
    1180:	2800      	cmp	r0, #0
    1182:	d100      	bne.n	1186 <pow+0x9e>
    1184:	e080      	b.n	1288 <pow+0x1a0>
    1186:	6a2b      	ldr	r3, [r5, #32]
    1188:	2b00      	cmp	r3, #0
    118a:	d003      	beq.n	1194 <pow+0xac>
    118c:	f001 f90c 	bl	23a8 <__errno>
    1190:	6a2b      	ldr	r3, [r5, #32]
    1192:	6003      	str	r3, [r0, #0]
    1194:	69ab      	ldr	r3, [r5, #24]
    1196:	69ec      	ldr	r4, [r5, #28]
    1198:	9300      	str	r3, [sp, #0]
    119a:	9401      	str	r4, [sp, #4]
    119c:	e7bf      	b.n	111e <pow+0x36>
    119e:	9802      	ldr	r0, [sp, #8]
    11a0:	9903      	ldr	r1, [sp, #12]
    11a2:	2200      	movs	r2, #0
    11a4:	2300      	movs	r3, #0
    11a6:	f003 f9a5 	bl	44f4 <__aeabi_dcmpeq>
    11aa:	2800      	cmp	r0, #0
    11ac:	d022      	beq.n	11f4 <pow+0x10c>
    11ae:	1c30      	adds	r0, r6, #0
    11b0:	1c39      	adds	r1, r7, #0
    11b2:	2200      	movs	r2, #0
    11b4:	2300      	movs	r3, #0
    11b6:	f003 f99d 	bl	44f4 <__aeabi_dcmpeq>
    11ba:	1e04      	subs	r4, r0, #0
    11bc:	d02c      	beq.n	1218 <pow+0x130>
    11be:	2301      	movs	r3, #1
    11c0:	9304      	str	r3, [sp, #16]
    11c2:	4b99      	ldr	r3, [pc, #612]	; (1428 <pow+0x340>)
    11c4:	ad04      	add	r5, sp, #16
    11c6:	606b      	str	r3, [r5, #4]
    11c8:	2300      	movs	r3, #0
    11ca:	622b      	str	r3, [r5, #32]
    11cc:	9b02      	ldr	r3, [sp, #8]
    11ce:	9c03      	ldr	r4, [sp, #12]
    11d0:	60ab      	str	r3, [r5, #8]
    11d2:	60ec      	str	r4, [r5, #12]
    11d4:	2300      	movs	r3, #0
    11d6:	2400      	movs	r4, #0
    11d8:	61ab      	str	r3, [r5, #24]
    11da:	61ec      	str	r4, [r5, #28]
    11dc:	4643      	mov	r3, r8
    11de:	781b      	ldrb	r3, [r3, #0]
    11e0:	612e      	str	r6, [r5, #16]
    11e2:	616f      	str	r7, [r5, #20]
    11e4:	b25b      	sxtb	r3, r3
    11e6:	2b00      	cmp	r3, #0
    11e8:	d0c7      	beq.n	117a <pow+0x92>
    11ea:	2200      	movs	r2, #0
    11ec:	4b8f      	ldr	r3, [pc, #572]	; (142c <pow+0x344>)
    11ee:	61aa      	str	r2, [r5, #24]
    11f0:	61eb      	str	r3, [r5, #28]
    11f2:	e7cf      	b.n	1194 <pow+0xac>
    11f4:	1c20      	adds	r0, r4, #0
    11f6:	1c29      	adds	r1, r5, #0
    11f8:	f000 ff64 	bl	20c4 <finite>
    11fc:	4682      	mov	sl, r0
    11fe:	2800      	cmp	r0, #0
    1200:	d047      	beq.n	1292 <pow+0x1aa>
    1202:	1c20      	adds	r0, r4, #0
    1204:	1c29      	adds	r1, r5, #0
    1206:	2200      	movs	r2, #0
    1208:	2300      	movs	r3, #0
    120a:	f003 f973 	bl	44f4 <__aeabi_dcmpeq>
    120e:	2800      	cmp	r0, #0
    1210:	d166      	bne.n	12e0 <pow+0x1f8>
    1212:	9400      	str	r4, [sp, #0]
    1214:	9501      	str	r5, [sp, #4]
    1216:	e782      	b.n	111e <pow+0x36>
    1218:	1c30      	adds	r0, r6, #0
    121a:	1c39      	adds	r1, r7, #0
    121c:	f000 ff52 	bl	20c4 <finite>
    1220:	2800      	cmp	r0, #0
    1222:	d100      	bne.n	1226 <pow+0x13e>
    1224:	e77b      	b.n	111e <pow+0x36>
    1226:	1c30      	adds	r0, r6, #0
    1228:	1c39      	adds	r1, r7, #0
    122a:	2200      	movs	r2, #0
    122c:	2300      	movs	r3, #0
    122e:	f003 f967 	bl	4500 <__aeabi_dcmplt>
    1232:	2800      	cmp	r0, #0
    1234:	d100      	bne.n	1238 <pow+0x150>
    1236:	e772      	b.n	111e <pow+0x36>
    1238:	2301      	movs	r3, #1
    123a:	9304      	str	r3, [sp, #16]
    123c:	4b7a      	ldr	r3, [pc, #488]	; (1428 <pow+0x340>)
    123e:	ad04      	add	r5, sp, #16
    1240:	606b      	str	r3, [r5, #4]
    1242:	622c      	str	r4, [r5, #32]
    1244:	9b02      	ldr	r3, [sp, #8]
    1246:	9c03      	ldr	r4, [sp, #12]
    1248:	60ab      	str	r3, [r5, #8]
    124a:	60ec      	str	r4, [r5, #12]
    124c:	4643      	mov	r3, r8
    124e:	781b      	ldrb	r3, [r3, #0]
    1250:	612e      	str	r6, [r5, #16]
    1252:	616f      	str	r7, [r5, #20]
    1254:	2b00      	cmp	r3, #0
    1256:	d175      	bne.n	1344 <pow+0x25c>
    1258:	2300      	movs	r3, #0
    125a:	2400      	movs	r4, #0
    125c:	61ab      	str	r3, [r5, #24]
    125e:	61ec      	str	r4, [r5, #28]
    1260:	1c28      	adds	r0, r5, #0
    1262:	f000 ff67 	bl	2134 <matherr>
    1266:	2800      	cmp	r0, #0
    1268:	d072      	beq.n	1350 <pow+0x268>
    126a:	6a2b      	ldr	r3, [r5, #32]
    126c:	2b00      	cmp	r3, #0
    126e:	d091      	beq.n	1194 <pow+0xac>
    1270:	e78c      	b.n	118c <pow+0xa4>
    1272:	2000      	movs	r0, #0
    1274:	2100      	movs	r1, #0
    1276:	1c02      	adds	r2, r0, #0
    1278:	1c0b      	adds	r3, r1, #0
    127a:	f004 fb5b 	bl	5934 <__aeabi_ddiv>
    127e:	61a8      	str	r0, [r5, #24]
    1280:	61e9      	str	r1, [r5, #28]
    1282:	2c02      	cmp	r4, #2
    1284:	d000      	beq.n	1288 <pow+0x1a0>
    1286:	e778      	b.n	117a <pow+0x92>
    1288:	f001 f88e 	bl	23a8 <__errno>
    128c:	2321      	movs	r3, #33	; 0x21
    128e:	6003      	str	r3, [r0, #0]
    1290:	e779      	b.n	1186 <pow+0x9e>
    1292:	9802      	ldr	r0, [sp, #8]
    1294:	9903      	ldr	r1, [sp, #12]
    1296:	f000 ff15 	bl	20c4 <finite>
    129a:	2800      	cmp	r0, #0
    129c:	d0b1      	beq.n	1202 <pow+0x11a>
    129e:	1c30      	adds	r0, r6, #0
    12a0:	1c39      	adds	r1, r7, #0
    12a2:	f000 ff0f 	bl	20c4 <finite>
    12a6:	2800      	cmp	r0, #0
    12a8:	d0ab      	beq.n	1202 <pow+0x11a>
    12aa:	1c29      	adds	r1, r5, #0
    12ac:	1c20      	adds	r0, r4, #0
    12ae:	f000 ff13 	bl	20d8 <__fpclassifyd>
    12b2:	ad04      	add	r5, sp, #16
    12b4:	2800      	cmp	r0, #0
    12b6:	d150      	bne.n	135a <pow+0x272>
    12b8:	2301      	movs	r3, #1
    12ba:	9304      	str	r3, [sp, #16]
    12bc:	4b5a      	ldr	r3, [pc, #360]	; (1428 <pow+0x340>)
    12be:	6228      	str	r0, [r5, #32]
    12c0:	606b      	str	r3, [r5, #4]
    12c2:	9b02      	ldr	r3, [sp, #8]
    12c4:	9c03      	ldr	r4, [sp, #12]
    12c6:	60ab      	str	r3, [r5, #8]
    12c8:	60ec      	str	r4, [r5, #12]
    12ca:	4643      	mov	r3, r8
    12cc:	781c      	ldrb	r4, [r3, #0]
    12ce:	612e      	str	r6, [r5, #16]
    12d0:	616f      	str	r7, [r5, #20]
    12d2:	2c00      	cmp	r4, #0
    12d4:	d1cd      	bne.n	1272 <pow+0x18a>
    12d6:	2300      	movs	r3, #0
    12d8:	2400      	movs	r4, #0
    12da:	61ab      	str	r3, [r5, #24]
    12dc:	61ec      	str	r4, [r5, #28]
    12de:	e74c      	b.n	117a <pow+0x92>
    12e0:	9802      	ldr	r0, [sp, #8]
    12e2:	9903      	ldr	r1, [sp, #12]
    12e4:	f000 feee 	bl	20c4 <finite>
    12e8:	9400      	str	r4, [sp, #0]
    12ea:	9501      	str	r5, [sp, #4]
    12ec:	2800      	cmp	r0, #0
    12ee:	d100      	bne.n	12f2 <pow+0x20a>
    12f0:	e715      	b.n	111e <pow+0x36>
    12f2:	1c30      	adds	r0, r6, #0
    12f4:	1c39      	adds	r1, r7, #0
    12f6:	f000 fee5 	bl	20c4 <finite>
    12fa:	9400      	str	r4, [sp, #0]
    12fc:	9501      	str	r5, [sp, #4]
    12fe:	2800      	cmp	r0, #0
    1300:	d100      	bne.n	1304 <pow+0x21c>
    1302:	e70c      	b.n	111e <pow+0x36>
    1304:	2304      	movs	r3, #4
    1306:	9304      	str	r3, [sp, #16]
    1308:	4b47      	ldr	r3, [pc, #284]	; (1428 <pow+0x340>)
    130a:	ad04      	add	r5, sp, #16
    130c:	606b      	str	r3, [r5, #4]
    130e:	2300      	movs	r3, #0
    1310:	622b      	str	r3, [r5, #32]
    1312:	9b02      	ldr	r3, [sp, #8]
    1314:	9c03      	ldr	r4, [sp, #12]
    1316:	60ab      	str	r3, [r5, #8]
    1318:	60ec      	str	r4, [r5, #12]
    131a:	2300      	movs	r3, #0
    131c:	2400      	movs	r4, #0
    131e:	61ab      	str	r3, [r5, #24]
    1320:	61ec      	str	r4, [r5, #28]
    1322:	4643      	mov	r3, r8
    1324:	781b      	ldrb	r3, [r3, #0]
    1326:	612e      	str	r6, [r5, #16]
    1328:	616f      	str	r7, [r5, #20]
    132a:	b25b      	sxtb	r3, r3
    132c:	2b02      	cmp	r3, #2
    132e:	d004      	beq.n	133a <pow+0x252>
    1330:	1c28      	adds	r0, r5, #0
    1332:	f000 feff 	bl	2134 <matherr>
    1336:	2800      	cmp	r0, #0
    1338:	d197      	bne.n	126a <pow+0x182>
    133a:	f001 f835 	bl	23a8 <__errno>
    133e:	2322      	movs	r3, #34	; 0x22
    1340:	6003      	str	r3, [r0, #0]
    1342:	e792      	b.n	126a <pow+0x182>
    1344:	2000      	movs	r0, #0
    1346:	493a      	ldr	r1, [pc, #232]	; (1430 <pow+0x348>)
    1348:	61a8      	str	r0, [r5, #24]
    134a:	61e9      	str	r1, [r5, #28]
    134c:	2b02      	cmp	r3, #2
    134e:	d187      	bne.n	1260 <pow+0x178>
    1350:	f001 f82a 	bl	23a8 <__errno>
    1354:	2321      	movs	r3, #33	; 0x21
    1356:	6003      	str	r3, [r0, #0]
    1358:	e787      	b.n	126a <pow+0x182>
    135a:	2303      	movs	r3, #3
    135c:	9304      	str	r3, [sp, #16]
    135e:	4b32      	ldr	r3, [pc, #200]	; (1428 <pow+0x340>)
    1360:	612e      	str	r6, [r5, #16]
    1362:	616f      	str	r7, [r5, #20]
    1364:	606b      	str	r3, [r5, #4]
    1366:	4653      	mov	r3, sl
    1368:	622b      	str	r3, [r5, #32]
    136a:	9b02      	ldr	r3, [sp, #8]
    136c:	9c03      	ldr	r4, [sp, #12]
    136e:	60ab      	str	r3, [r5, #8]
    1370:	60ec      	str	r4, [r5, #12]
    1372:	4643      	mov	r3, r8
    1374:	781b      	ldrb	r3, [r3, #0]
    1376:	b25b      	sxtb	r3, r3
    1378:	2b00      	cmp	r3, #0
    137a:	d11c      	bne.n	13b6 <pow+0x2ce>
    137c:	9802      	ldr	r0, [sp, #8]
    137e:	9903      	ldr	r1, [sp, #12]
    1380:	22e0      	movs	r2, #224	; 0xe0
    1382:	4b2c      	ldr	r3, [pc, #176]	; (1434 <pow+0x34c>)
    1384:	0612      	lsls	r2, r2, #24
    1386:	61aa      	str	r2, [r5, #24]
    1388:	61eb      	str	r3, [r5, #28]
    138a:	2200      	movs	r2, #0
    138c:	2300      	movs	r3, #0
    138e:	f003 f8b7 	bl	4500 <__aeabi_dcmplt>
    1392:	2800      	cmp	r0, #0
    1394:	d130      	bne.n	13f8 <pow+0x310>
    1396:	4643      	mov	r3, r8
    1398:	781b      	ldrb	r3, [r3, #0]
    139a:	b25b      	sxtb	r3, r3
    139c:	2b02      	cmp	r3, #2
    139e:	d005      	beq.n	13ac <pow+0x2c4>
    13a0:	1c28      	adds	r0, r5, #0
    13a2:	f000 fec7 	bl	2134 <matherr>
    13a6:	2800      	cmp	r0, #0
    13a8:	d000      	beq.n	13ac <pow+0x2c4>
    13aa:	e6ec      	b.n	1186 <pow+0x9e>
    13ac:	f000 fffc 	bl	23a8 <__errno>
    13b0:	2322      	movs	r3, #34	; 0x22
    13b2:	6003      	str	r3, [r0, #0]
    13b4:	e6e7      	b.n	1186 <pow+0x9e>
    13b6:	2200      	movs	r2, #0
    13b8:	9802      	ldr	r0, [sp, #8]
    13ba:	9903      	ldr	r1, [sp, #12]
    13bc:	4b1e      	ldr	r3, [pc, #120]	; (1438 <pow+0x350>)
    13be:	61aa      	str	r2, [r5, #24]
    13c0:	61eb      	str	r3, [r5, #28]
    13c2:	2200      	movs	r2, #0
    13c4:	2300      	movs	r3, #0
    13c6:	f003 f89b 	bl	4500 <__aeabi_dcmplt>
    13ca:	2800      	cmp	r0, #0
    13cc:	d0e3      	beq.n	1396 <pow+0x2ae>
    13ce:	2200      	movs	r2, #0
    13d0:	4b1a      	ldr	r3, [pc, #104]	; (143c <pow+0x354>)
    13d2:	1c30      	adds	r0, r6, #0
    13d4:	1c39      	adds	r1, r7, #0
    13d6:	f004 feeb 	bl	61b0 <__aeabi_dmul>
    13da:	1c06      	adds	r6, r0, #0
    13dc:	1c0f      	adds	r7, r1, #0
    13de:	f000 feb1 	bl	2144 <rint>
    13e2:	1c32      	adds	r2, r6, #0
    13e4:	1c3b      	adds	r3, r7, #0
    13e6:	f003 f885 	bl	44f4 <__aeabi_dcmpeq>
    13ea:	2800      	cmp	r0, #0
    13ec:	d1d3      	bne.n	1396 <pow+0x2ae>
    13ee:	2200      	movs	r2, #0
    13f0:	4b0f      	ldr	r3, [pc, #60]	; (1430 <pow+0x348>)
    13f2:	61aa      	str	r2, [r5, #24]
    13f4:	61eb      	str	r3, [r5, #28]
    13f6:	e7ce      	b.n	1396 <pow+0x2ae>
    13f8:	2200      	movs	r2, #0
    13fa:	4b10      	ldr	r3, [pc, #64]	; (143c <pow+0x354>)
    13fc:	1c30      	adds	r0, r6, #0
    13fe:	1c39      	adds	r1, r7, #0
    1400:	f004 fed6 	bl	61b0 <__aeabi_dmul>
    1404:	1c06      	adds	r6, r0, #0
    1406:	1c0f      	adds	r7, r1, #0
    1408:	f000 fe9c 	bl	2144 <rint>
    140c:	1c32      	adds	r2, r6, #0
    140e:	1c3b      	adds	r3, r7, #0
    1410:	f003 f870 	bl	44f4 <__aeabi_dcmpeq>
    1414:	2800      	cmp	r0, #0
    1416:	d1be      	bne.n	1396 <pow+0x2ae>
    1418:	22e0      	movs	r2, #224	; 0xe0
    141a:	4b09      	ldr	r3, [pc, #36]	; (1440 <pow+0x358>)
    141c:	0612      	lsls	r2, r2, #24
    141e:	61aa      	str	r2, [r5, #24]
    1420:	61eb      	str	r3, [r5, #28]
    1422:	e7b8      	b.n	1396 <pow+0x2ae>
    1424:	2000000c 	.word	0x2000000c
    1428:	000075c4 	.word	0x000075c4
    142c:	3ff00000 	.word	0x3ff00000
    1430:	fff00000 	.word	0xfff00000
    1434:	47efffff 	.word	0x47efffff
    1438:	7ff00000 	.word	0x7ff00000
    143c:	3fe00000 	.word	0x3fe00000
    1440:	c7efffff 	.word	0xc7efffff

00001444 <__ieee754_pow>:
    1444:	b5f0      	push	{r4, r5, r6, r7, lr}
    1446:	4656      	mov	r6, sl
    1448:	464d      	mov	r5, r9
    144a:	4644      	mov	r4, r8
    144c:	465f      	mov	r7, fp
    144e:	b4f0      	push	{r4, r5, r6, r7}
    1450:	1c1c      	adds	r4, r3, #0
    1452:	1c13      	adds	r3, r2, #0
    1454:	0067      	lsls	r7, r4, #1
    1456:	b08d      	sub	sp, #52	; 0x34
    1458:	087f      	lsrs	r7, r7, #1
    145a:	9300      	str	r3, [sp, #0]
    145c:	9401      	str	r4, [sp, #4]
    145e:	1c06      	adds	r6, r0, #0
    1460:	1c0d      	adds	r5, r1, #0
    1462:	4680      	mov	r8, r0
    1464:	4689      	mov	r9, r1
    1466:	46a2      	mov	sl, r4
    1468:	433b      	orrs	r3, r7
    146a:	d031      	beq.n	14d0 <__ieee754_pow+0x8c>
    146c:	4b61      	ldr	r3, [pc, #388]	; (15f4 <__ieee754_pow+0x1b0>)
    146e:	006c      	lsls	r4, r5, #1
    1470:	0864      	lsrs	r4, r4, #1
    1472:	429c      	cmp	r4, r3
    1474:	dc28      	bgt.n	14c8 <__ieee754_pow+0x84>
    1476:	d025      	beq.n	14c4 <__ieee754_pow+0x80>
    1478:	429f      	cmp	r7, r3
    147a:	dc25      	bgt.n	14c8 <__ieee754_pow+0x84>
    147c:	4b5d      	ldr	r3, [pc, #372]	; (15f4 <__ieee754_pow+0x1b0>)
    147e:	429f      	cmp	r7, r3
    1480:	d100      	bne.n	1484 <__ieee754_pow+0x40>
    1482:	e076      	b.n	1572 <__ieee754_pow+0x12e>
    1484:	2300      	movs	r3, #0
    1486:	469b      	mov	fp, r3
    1488:	464b      	mov	r3, r9
    148a:	2b00      	cmp	r3, #0
    148c:	da00      	bge.n	1490 <__ieee754_pow+0x4c>
    148e:	e074      	b.n	157a <__ieee754_pow+0x136>
    1490:	2a00      	cmp	r2, #0
    1492:	d12c      	bne.n	14ee <__ieee754_pow+0xaa>
    1494:	4b57      	ldr	r3, [pc, #348]	; (15f4 <__ieee754_pow+0x1b0>)
    1496:	429f      	cmp	r7, r3
    1498:	d100      	bne.n	149c <__ieee754_pow+0x58>
    149a:	e08a      	b.n	15b2 <__ieee754_pow+0x16e>
    149c:	4b56      	ldr	r3, [pc, #344]	; (15f8 <__ieee754_pow+0x1b4>)
    149e:	429f      	cmp	r7, r3
    14a0:	d05f      	beq.n	1562 <__ieee754_pow+0x11e>
    14a2:	2380      	movs	r3, #128	; 0x80
    14a4:	05db      	lsls	r3, r3, #23
    14a6:	459a      	cmp	sl, r3
    14a8:	d101      	bne.n	14ae <__ieee754_pow+0x6a>
    14aa:	f000 fbd1 	bl	1c50 <__ieee754_pow+0x80c>
    14ae:	4b53      	ldr	r3, [pc, #332]	; (15fc <__ieee754_pow+0x1b8>)
    14b0:	459a      	cmp	sl, r3
    14b2:	d11c      	bne.n	14ee <__ieee754_pow+0xaa>
    14b4:	464b      	mov	r3, r9
    14b6:	2b00      	cmp	r3, #0
    14b8:	db19      	blt.n	14ee <__ieee754_pow+0xaa>
    14ba:	1c30      	adds	r0, r6, #0
    14bc:	1c29      	adds	r1, r5, #0
    14be:	f000 fd07 	bl	1ed0 <__ieee754_sqrt>
    14c2:	e007      	b.n	14d4 <__ieee754_pow+0x90>
    14c4:	2800      	cmp	r0, #0
    14c6:	d00c      	beq.n	14e2 <__ieee754_pow+0x9e>
    14c8:	4b4d      	ldr	r3, [pc, #308]	; (1600 <__ieee754_pow+0x1bc>)
    14ca:	18e0      	adds	r0, r4, r3
    14cc:	4330      	orrs	r0, r6
    14ce:	d10a      	bne.n	14e6 <__ieee754_pow+0xa2>
    14d0:	2000      	movs	r0, #0
    14d2:	4949      	ldr	r1, [pc, #292]	; (15f8 <__ieee754_pow+0x1b4>)
    14d4:	b00d      	add	sp, #52	; 0x34
    14d6:	bc3c      	pop	{r2, r3, r4, r5}
    14d8:	4690      	mov	r8, r2
    14da:	4699      	mov	r9, r3
    14dc:	46a2      	mov	sl, r4
    14de:	46ab      	mov	fp, r5
    14e0:	bdf0      	pop	{r4, r5, r6, r7, pc}
    14e2:	42a7      	cmp	r7, r4
    14e4:	ddca      	ble.n	147c <__ieee754_pow+0x38>
    14e6:	4847      	ldr	r0, [pc, #284]	; (1604 <__ieee754_pow+0x1c0>)
    14e8:	f000 fe26 	bl	2138 <nan>
    14ec:	e7f2      	b.n	14d4 <__ieee754_pow+0x90>
    14ee:	1c30      	adds	r0, r6, #0
    14f0:	1c29      	adds	r1, r5, #0
    14f2:	f000 fde3 	bl	20bc <fabs>
    14f6:	1c0b      	adds	r3, r1, #0
    14f8:	4641      	mov	r1, r8
    14fa:	1c02      	adds	r2, r0, #0
    14fc:	2900      	cmp	r1, #0
    14fe:	d01e      	beq.n	153e <__ieee754_pow+0xfa>
    1500:	0fe9      	lsrs	r1, r5, #31
    1502:	3901      	subs	r1, #1
    1504:	4688      	mov	r8, r1
    1506:	4659      	mov	r1, fp
    1508:	4640      	mov	r0, r8
    150a:	4301      	orrs	r1, r0
    150c:	d066      	beq.n	15dc <__ieee754_pow+0x198>
    150e:	493e      	ldr	r1, [pc, #248]	; (1608 <__ieee754_pow+0x1c4>)
    1510:	428f      	cmp	r7, r1
    1512:	dc00      	bgt.n	1516 <__ieee754_pow+0xd2>
    1514:	e088      	b.n	1628 <__ieee754_pow+0x1e4>
    1516:	493d      	ldr	r1, [pc, #244]	; (160c <__ieee754_pow+0x1c8>)
    1518:	428f      	cmp	r7, r1
    151a:	dc01      	bgt.n	1520 <__ieee754_pow+0xdc>
    151c:	f000 fbe0 	bl	1ce0 <__ieee754_pow+0x89c>
    1520:	4b3b      	ldr	r3, [pc, #236]	; (1610 <__ieee754_pow+0x1cc>)
    1522:	429c      	cmp	r4, r3
    1524:	dc00      	bgt.n	1528 <__ieee754_pow+0xe4>
    1526:	e382      	b.n	1c2e <__ieee754_pow+0x7ea>
    1528:	4653      	mov	r3, sl
    152a:	2b00      	cmp	r3, #0
    152c:	dc00      	bgt.n	1530 <__ieee754_pow+0xec>
    152e:	e382      	b.n	1c36 <__ieee754_pow+0x7f2>
    1530:	4838      	ldr	r0, [pc, #224]	; (1614 <__ieee754_pow+0x1d0>)
    1532:	4939      	ldr	r1, [pc, #228]	; (1618 <__ieee754_pow+0x1d4>)
    1534:	1c02      	adds	r2, r0, #0
    1536:	1c0b      	adds	r3, r1, #0
    1538:	f004 fe3a 	bl	61b0 <__aeabi_dmul>
    153c:	e7ca      	b.n	14d4 <__ieee754_pow+0x90>
    153e:	2c00      	cmp	r4, #0
    1540:	d004      	beq.n	154c <__ieee754_pow+0x108>
    1542:	482d      	ldr	r0, [pc, #180]	; (15f8 <__ieee754_pow+0x1b4>)
    1544:	00a9      	lsls	r1, r5, #2
    1546:	0889      	lsrs	r1, r1, #2
    1548:	4281      	cmp	r1, r0
    154a:	d1d9      	bne.n	1500 <__ieee754_pow+0xbc>
    154c:	4651      	mov	r1, sl
    154e:	2900      	cmp	r1, #0
    1550:	da00      	bge.n	1554 <__ieee754_pow+0x110>
    1552:	e3bb      	b.n	1ccc <__ieee754_pow+0x888>
    1554:	4649      	mov	r1, r9
    1556:	2900      	cmp	r1, #0
    1558:	da00      	bge.n	155c <__ieee754_pow+0x118>
    155a:	e36f      	b.n	1c3c <__ieee754_pow+0x7f8>
    155c:	1c10      	adds	r0, r2, #0
    155e:	1c19      	adds	r1, r3, #0
    1560:	e7b8      	b.n	14d4 <__ieee754_pow+0x90>
    1562:	4653      	mov	r3, sl
    1564:	2b00      	cmp	r3, #0
    1566:	da01      	bge.n	156c <__ieee754_pow+0x128>
    1568:	f000 fc20 	bl	1dac <__ieee754_pow+0x968>
    156c:	1c30      	adds	r0, r6, #0
    156e:	1c29      	adds	r1, r5, #0
    1570:	e7b0      	b.n	14d4 <__ieee754_pow+0x90>
    1572:	2a00      	cmp	r2, #0
    1574:	d100      	bne.n	1578 <__ieee754_pow+0x134>
    1576:	e785      	b.n	1484 <__ieee754_pow+0x40>
    1578:	e7a6      	b.n	14c8 <__ieee754_pow+0x84>
    157a:	4b28      	ldr	r3, [pc, #160]	; (161c <__ieee754_pow+0x1d8>)
    157c:	429f      	cmp	r7, r3
    157e:	dc2a      	bgt.n	15d6 <__ieee754_pow+0x192>
    1580:	4b23      	ldr	r3, [pc, #140]	; (1610 <__ieee754_pow+0x1cc>)
    1582:	429f      	cmp	r7, r3
    1584:	dc00      	bgt.n	1588 <__ieee754_pow+0x144>
    1586:	e783      	b.n	1490 <__ieee754_pow+0x4c>
    1588:	4925      	ldr	r1, [pc, #148]	; (1620 <__ieee754_pow+0x1dc>)
    158a:	1538      	asrs	r0, r7, #20
    158c:	4288      	cmp	r0, r1
    158e:	dc01      	bgt.n	1594 <__ieee754_pow+0x150>
    1590:	f000 fc27 	bl	1de2 <__ieee754_pow+0x99e>
    1594:	4b23      	ldr	r3, [pc, #140]	; (1624 <__ieee754_pow+0x1e0>)
    1596:	9900      	ldr	r1, [sp, #0]
    1598:	1a1b      	subs	r3, r3, r0
    159a:	40d9      	lsrs	r1, r3
    159c:	1c08      	adds	r0, r1, #0
    159e:	4098      	lsls	r0, r3
    15a0:	4290      	cmp	r0, r2
    15a2:	d000      	beq.n	15a6 <__ieee754_pow+0x162>
    15a4:	e774      	b.n	1490 <__ieee754_pow+0x4c>
    15a6:	2301      	movs	r3, #1
    15a8:	4019      	ands	r1, r3
    15aa:	3301      	adds	r3, #1
    15ac:	1a5b      	subs	r3, r3, r1
    15ae:	469b      	mov	fp, r3
    15b0:	e76e      	b.n	1490 <__ieee754_pow+0x4c>
    15b2:	4b13      	ldr	r3, [pc, #76]	; (1600 <__ieee754_pow+0x1bc>)
    15b4:	18e0      	adds	r0, r4, r3
    15b6:	4306      	orrs	r6, r0
    15b8:	d100      	bne.n	15bc <__ieee754_pow+0x178>
    15ba:	e789      	b.n	14d0 <__ieee754_pow+0x8c>
    15bc:	4b14      	ldr	r3, [pc, #80]	; (1610 <__ieee754_pow+0x1cc>)
    15be:	429c      	cmp	r4, r3
    15c0:	dc00      	bgt.n	15c4 <__ieee754_pow+0x180>
    15c2:	e375      	b.n	1cb0 <__ieee754_pow+0x86c>
    15c4:	4653      	mov	r3, sl
    15c6:	2b00      	cmp	r3, #0
    15c8:	da00      	bge.n	15cc <__ieee754_pow+0x188>
    15ca:	e334      	b.n	1c36 <__ieee754_pow+0x7f2>
    15cc:	9b00      	ldr	r3, [sp, #0]
    15ce:	9c01      	ldr	r4, [sp, #4]
    15d0:	1c18      	adds	r0, r3, #0
    15d2:	1c21      	adds	r1, r4, #0
    15d4:	e77e      	b.n	14d4 <__ieee754_pow+0x90>
    15d6:	2302      	movs	r3, #2
    15d8:	469b      	mov	fp, r3
    15da:	e759      	b.n	1490 <__ieee754_pow+0x4c>
    15dc:	1c30      	adds	r0, r6, #0
    15de:	1c29      	adds	r1, r5, #0
    15e0:	1c32      	adds	r2, r6, #0
    15e2:	1c2b      	adds	r3, r5, #0
    15e4:	f005 f87e 	bl	66e4 <__aeabi_dsub>
    15e8:	1c02      	adds	r2, r0, #0
    15ea:	1c0b      	adds	r3, r1, #0
    15ec:	f004 f9a2 	bl	5934 <__aeabi_ddiv>
    15f0:	e770      	b.n	14d4 <__ieee754_pow+0x90>
    15f2:	46c0      	nop			; (mov r8, r8)
    15f4:	7ff00000 	.word	0x7ff00000
    15f8:	3ff00000 	.word	0x3ff00000
    15fc:	3fe00000 	.word	0x3fe00000
    1600:	c0100000 	.word	0xc0100000
    1604:	000075f8 	.word	0x000075f8
    1608:	41e00000 	.word	0x41e00000
    160c:	43f00000 	.word	0x43f00000
    1610:	3fefffff 	.word	0x3fefffff
    1614:	8800759c 	.word	0x8800759c
    1618:	7e37e43c 	.word	0x7e37e43c
    161c:	433fffff 	.word	0x433fffff
    1620:	00000413 	.word	0x00000413
    1624:	00000433 	.word	0x00000433
    1628:	49e9      	ldr	r1, [pc, #932]	; (19d0 <__ieee754_pow+0x58c>)
    162a:	2000      	movs	r0, #0
    162c:	428c      	cmp	r4, r1
    162e:	dc09      	bgt.n	1644 <__ieee754_pow+0x200>
    1630:	1c10      	adds	r0, r2, #0
    1632:	1c19      	adds	r1, r3, #0
    1634:	2200      	movs	r2, #0
    1636:	4be7      	ldr	r3, [pc, #924]	; (19d4 <__ieee754_pow+0x590>)
    1638:	f004 fdba 	bl	61b0 <__aeabi_dmul>
    163c:	1c02      	adds	r2, r0, #0
    163e:	2035      	movs	r0, #53	; 0x35
    1640:	1c0c      	adds	r4, r1, #0
    1642:	4240      	negs	r0, r0
    1644:	4de4      	ldr	r5, [pc, #912]	; (19d8 <__ieee754_pow+0x594>)
    1646:	1521      	asrs	r1, r4, #20
    1648:	46ac      	mov	ip, r5
    164a:	4461      	add	r1, ip
    164c:	468a      	mov	sl, r1
    164e:	0324      	lsls	r4, r4, #12
    1650:	4de2      	ldr	r5, [pc, #904]	; (19dc <__ieee754_pow+0x598>)
    1652:	49e3      	ldr	r1, [pc, #908]	; (19e0 <__ieee754_pow+0x59c>)
    1654:	0b24      	lsrs	r4, r4, #12
    1656:	4482      	add	sl, r0
    1658:	4325      	orrs	r5, r4
    165a:	428c      	cmp	r4, r1
    165c:	dc00      	bgt.n	1660 <__ieee754_pow+0x21c>
    165e:	e33c      	b.n	1cda <__ieee754_pow+0x896>
    1660:	49e0      	ldr	r1, [pc, #896]	; (19e4 <__ieee754_pow+0x5a0>)
    1662:	428c      	cmp	r4, r1
    1664:	dc01      	bgt.n	166a <__ieee754_pow+0x226>
    1666:	f000 fc21 	bl	1eac <__ieee754_pow+0xa68>
    166a:	2101      	movs	r1, #1
    166c:	468c      	mov	ip, r1
    166e:	49de      	ldr	r1, [pc, #888]	; (19e8 <__ieee754_pow+0x5a4>)
    1670:	44e2      	add	sl, ip
    1672:	468c      	mov	ip, r1
    1674:	2400      	movs	r4, #0
    1676:	2100      	movs	r1, #0
    1678:	4465      	add	r5, ip
    167a:	00cb      	lsls	r3, r1, #3
    167c:	4699      	mov	r9, r3
    167e:	1c16      	adds	r6, r2, #0
    1680:	1c2f      	adds	r7, r5, #0
    1682:	4bda      	ldr	r3, [pc, #872]	; (19ec <__ieee754_pow+0x5a8>)
    1684:	1c30      	adds	r0, r6, #0
    1686:	444b      	add	r3, r9
    1688:	681a      	ldr	r2, [r3, #0]
    168a:	685b      	ldr	r3, [r3, #4]
    168c:	1c29      	adds	r1, r5, #0
    168e:	9606      	str	r6, [sp, #24]
    1690:	9707      	str	r7, [sp, #28]
    1692:	9208      	str	r2, [sp, #32]
    1694:	9309      	str	r3, [sp, #36]	; 0x24
    1696:	f005 f825 	bl	66e4 <__aeabi_dsub>
    169a:	9a08      	ldr	r2, [sp, #32]
    169c:	9b09      	ldr	r3, [sp, #36]	; 0x24
    169e:	1c06      	adds	r6, r0, #0
    16a0:	1c0f      	adds	r7, r1, #0
    16a2:	9806      	ldr	r0, [sp, #24]
    16a4:	9907      	ldr	r1, [sp, #28]
    16a6:	f003 fe1d 	bl	52e4 <__aeabi_dadd>
    16aa:	1c02      	adds	r2, r0, #0
    16ac:	1c0b      	adds	r3, r1, #0
    16ae:	2000      	movs	r0, #0
    16b0:	49ca      	ldr	r1, [pc, #808]	; (19dc <__ieee754_pow+0x598>)
    16b2:	f004 f93f 	bl	5934 <__aeabi_ddiv>
    16b6:	1c02      	adds	r2, r0, #0
    16b8:	1c0b      	adds	r3, r1, #0
    16ba:	1c30      	adds	r0, r6, #0
    16bc:	1c39      	adds	r1, r7, #0
    16be:	920a      	str	r2, [sp, #40]	; 0x28
    16c0:	930b      	str	r3, [sp, #44]	; 0x2c
    16c2:	f004 fd75 	bl	61b0 <__aeabi_dmul>
    16c6:	1c0a      	adds	r2, r1, #0
    16c8:	1c01      	adds	r1, r0, #0
    16ca:	1c13      	adds	r3, r2, #0
    16cc:	9104      	str	r1, [sp, #16]
    16ce:	9205      	str	r2, [sp, #20]
    16d0:	2200      	movs	r2, #0
    16d2:	9202      	str	r2, [sp, #8]
    16d4:	9303      	str	r3, [sp, #12]
    16d6:	2380      	movs	r3, #128	; 0x80
    16d8:	106d      	asrs	r5, r5, #1
    16da:	059b      	lsls	r3, r3, #22
    16dc:	431d      	orrs	r5, r3
    16de:	2380      	movs	r3, #128	; 0x80
    16e0:	2000      	movs	r0, #0
    16e2:	031b      	lsls	r3, r3, #12
    16e4:	18eb      	adds	r3, r5, r3
    16e6:	1919      	adds	r1, r3, r4
    16e8:	1c0d      	adds	r5, r1, #0
    16ea:	1c04      	adds	r4, r0, #0
    16ec:	9802      	ldr	r0, [sp, #8]
    16ee:	9903      	ldr	r1, [sp, #12]
    16f0:	1c22      	adds	r2, r4, #0
    16f2:	1c2b      	adds	r3, r5, #0
    16f4:	f004 fd5c 	bl	61b0 <__aeabi_dmul>
    16f8:	1c02      	adds	r2, r0, #0
    16fa:	1c0b      	adds	r3, r1, #0
    16fc:	1c30      	adds	r0, r6, #0
    16fe:	1c39      	adds	r1, r7, #0
    1700:	f004 fff0 	bl	66e4 <__aeabi_dsub>
    1704:	9a08      	ldr	r2, [sp, #32]
    1706:	9b09      	ldr	r3, [sp, #36]	; 0x24
    1708:	1c06      	adds	r6, r0, #0
    170a:	1c0f      	adds	r7, r1, #0
    170c:	1c20      	adds	r0, r4, #0
    170e:	1c29      	adds	r1, r5, #0
    1710:	f004 ffe8 	bl	66e4 <__aeabi_dsub>
    1714:	1c02      	adds	r2, r0, #0
    1716:	1c0b      	adds	r3, r1, #0
    1718:	9806      	ldr	r0, [sp, #24]
    171a:	9907      	ldr	r1, [sp, #28]
    171c:	f004 ffe2 	bl	66e4 <__aeabi_dsub>
    1720:	1c02      	adds	r2, r0, #0
    1722:	1c0b      	adds	r3, r1, #0
    1724:	9802      	ldr	r0, [sp, #8]
    1726:	9903      	ldr	r1, [sp, #12]
    1728:	f004 fd42 	bl	61b0 <__aeabi_dmul>
    172c:	1c02      	adds	r2, r0, #0
    172e:	1c0b      	adds	r3, r1, #0
    1730:	1c30      	adds	r0, r6, #0
    1732:	1c39      	adds	r1, r7, #0
    1734:	f004 ffd6 	bl	66e4 <__aeabi_dsub>
    1738:	9a0a      	ldr	r2, [sp, #40]	; 0x28
    173a:	9b0b      	ldr	r3, [sp, #44]	; 0x2c
    173c:	f004 fd38 	bl	61b0 <__aeabi_dmul>
    1740:	9a04      	ldr	r2, [sp, #16]
    1742:	9b05      	ldr	r3, [sp, #20]
    1744:	9006      	str	r0, [sp, #24]
    1746:	9107      	str	r1, [sp, #28]
    1748:	1c10      	adds	r0, r2, #0
    174a:	1c19      	adds	r1, r3, #0
    174c:	f004 fd30 	bl	61b0 <__aeabi_dmul>
    1750:	1c04      	adds	r4, r0, #0
    1752:	1c0d      	adds	r5, r1, #0
    1754:	1c22      	adds	r2, r4, #0
    1756:	1c2b      	adds	r3, r5, #0
    1758:	f004 fd2a 	bl	61b0 <__aeabi_dmul>
    175c:	4aa4      	ldr	r2, [pc, #656]	; (19f0 <__ieee754_pow+0x5ac>)
    175e:	1c06      	adds	r6, r0, #0
    1760:	1c0f      	adds	r7, r1, #0
    1762:	1c20      	adds	r0, r4, #0
    1764:	1c29      	adds	r1, r5, #0
    1766:	4ba3      	ldr	r3, [pc, #652]	; (19f4 <__ieee754_pow+0x5b0>)
    1768:	f004 fd22 	bl	61b0 <__aeabi_dmul>
    176c:	4aa2      	ldr	r2, [pc, #648]	; (19f8 <__ieee754_pow+0x5b4>)
    176e:	4ba3      	ldr	r3, [pc, #652]	; (19fc <__ieee754_pow+0x5b8>)
    1770:	f003 fdb8 	bl	52e4 <__aeabi_dadd>
    1774:	1c22      	adds	r2, r4, #0
    1776:	1c2b      	adds	r3, r5, #0
    1778:	f004 fd1a 	bl	61b0 <__aeabi_dmul>
    177c:	4aa0      	ldr	r2, [pc, #640]	; (1a00 <__ieee754_pow+0x5bc>)
    177e:	4ba1      	ldr	r3, [pc, #644]	; (1a04 <__ieee754_pow+0x5c0>)
    1780:	f003 fdb0 	bl	52e4 <__aeabi_dadd>
    1784:	1c22      	adds	r2, r4, #0
    1786:	1c2b      	adds	r3, r5, #0
    1788:	f004 fd12 	bl	61b0 <__aeabi_dmul>
    178c:	4a9e      	ldr	r2, [pc, #632]	; (1a08 <__ieee754_pow+0x5c4>)
    178e:	4b9f      	ldr	r3, [pc, #636]	; (1a0c <__ieee754_pow+0x5c8>)
    1790:	f003 fda8 	bl	52e4 <__aeabi_dadd>
    1794:	1c22      	adds	r2, r4, #0
    1796:	1c2b      	adds	r3, r5, #0
    1798:	f004 fd0a 	bl	61b0 <__aeabi_dmul>
    179c:	4a9c      	ldr	r2, [pc, #624]	; (1a10 <__ieee754_pow+0x5cc>)
    179e:	4b9d      	ldr	r3, [pc, #628]	; (1a14 <__ieee754_pow+0x5d0>)
    17a0:	f003 fda0 	bl	52e4 <__aeabi_dadd>
    17a4:	1c22      	adds	r2, r4, #0
    17a6:	1c2b      	adds	r3, r5, #0
    17a8:	f004 fd02 	bl	61b0 <__aeabi_dmul>
    17ac:	4a9a      	ldr	r2, [pc, #616]	; (1a18 <__ieee754_pow+0x5d4>)
    17ae:	4b9b      	ldr	r3, [pc, #620]	; (1a1c <__ieee754_pow+0x5d8>)
    17b0:	f003 fd98 	bl	52e4 <__aeabi_dadd>
    17b4:	1c02      	adds	r2, r0, #0
    17b6:	1c0b      	adds	r3, r1, #0
    17b8:	1c30      	adds	r0, r6, #0
    17ba:	1c39      	adds	r1, r7, #0
    17bc:	f004 fcf8 	bl	61b0 <__aeabi_dmul>
    17c0:	9a04      	ldr	r2, [sp, #16]
    17c2:	9b05      	ldr	r3, [sp, #20]
    17c4:	1c04      	adds	r4, r0, #0
    17c6:	1c0d      	adds	r5, r1, #0
    17c8:	9802      	ldr	r0, [sp, #8]
    17ca:	9903      	ldr	r1, [sp, #12]
    17cc:	f003 fd8a 	bl	52e4 <__aeabi_dadd>
    17d0:	9a06      	ldr	r2, [sp, #24]
    17d2:	9b07      	ldr	r3, [sp, #28]
    17d4:	f004 fcec 	bl	61b0 <__aeabi_dmul>
    17d8:	1c22      	adds	r2, r4, #0
    17da:	1c2b      	adds	r3, r5, #0
    17dc:	f003 fd82 	bl	52e4 <__aeabi_dadd>
    17e0:	9b02      	ldr	r3, [sp, #8]
    17e2:	9c03      	ldr	r4, [sp, #12]
    17e4:	1c06      	adds	r6, r0, #0
    17e6:	1c0f      	adds	r7, r1, #0
    17e8:	1c1a      	adds	r2, r3, #0
    17ea:	1c18      	adds	r0, r3, #0
    17ec:	1c21      	adds	r1, r4, #0
    17ee:	1c23      	adds	r3, r4, #0
    17f0:	f004 fcde 	bl	61b0 <__aeabi_dmul>
    17f4:	1c0a      	adds	r2, r1, #0
    17f6:	1c01      	adds	r1, r0, #0
    17f8:	4b89      	ldr	r3, [pc, #548]	; (1a20 <__ieee754_pow+0x5dc>)
    17fa:	9108      	str	r1, [sp, #32]
    17fc:	9209      	str	r2, [sp, #36]	; 0x24
    17fe:	1c11      	adds	r1, r2, #0
    1800:	2200      	movs	r2, #0
    1802:	f003 fd6f 	bl	52e4 <__aeabi_dadd>
    1806:	1c32      	adds	r2, r6, #0
    1808:	1c3b      	adds	r3, r7, #0
    180a:	f003 fd6b 	bl	52e4 <__aeabi_dadd>
    180e:	2400      	movs	r4, #0
    1810:	1c0d      	adds	r5, r1, #0
    1812:	9802      	ldr	r0, [sp, #8]
    1814:	9903      	ldr	r1, [sp, #12]
    1816:	1c22      	adds	r2, r4, #0
    1818:	1c2b      	adds	r3, r5, #0
    181a:	f004 fcc9 	bl	61b0 <__aeabi_dmul>
    181e:	1c22      	adds	r2, r4, #0
    1820:	1c2b      	adds	r3, r5, #0
    1822:	9002      	str	r0, [sp, #8]
    1824:	9103      	str	r1, [sp, #12]
    1826:	9806      	ldr	r0, [sp, #24]
    1828:	9907      	ldr	r1, [sp, #28]
    182a:	f004 fcc1 	bl	61b0 <__aeabi_dmul>
    182e:	2200      	movs	r2, #0
    1830:	9006      	str	r0, [sp, #24]
    1832:	9107      	str	r1, [sp, #28]
    1834:	4b7a      	ldr	r3, [pc, #488]	; (1a20 <__ieee754_pow+0x5dc>)
    1836:	1c20      	adds	r0, r4, #0
    1838:	1c29      	adds	r1, r5, #0
    183a:	f004 ff53 	bl	66e4 <__aeabi_dsub>
    183e:	9a08      	ldr	r2, [sp, #32]
    1840:	9b09      	ldr	r3, [sp, #36]	; 0x24
    1842:	f004 ff4f 	bl	66e4 <__aeabi_dsub>
    1846:	1c02      	adds	r2, r0, #0
    1848:	1c0b      	adds	r3, r1, #0
    184a:	1c30      	adds	r0, r6, #0
    184c:	1c39      	adds	r1, r7, #0
    184e:	f004 ff49 	bl	66e4 <__aeabi_dsub>
    1852:	9a04      	ldr	r2, [sp, #16]
    1854:	9b05      	ldr	r3, [sp, #20]
    1856:	f004 fcab 	bl	61b0 <__aeabi_dmul>
    185a:	1c02      	adds	r2, r0, #0
    185c:	1c0b      	adds	r3, r1, #0
    185e:	9806      	ldr	r0, [sp, #24]
    1860:	9907      	ldr	r1, [sp, #28]
    1862:	f003 fd3f 	bl	52e4 <__aeabi_dadd>
    1866:	1c06      	adds	r6, r0, #0
    1868:	1c0f      	adds	r7, r1, #0
    186a:	9802      	ldr	r0, [sp, #8]
    186c:	9903      	ldr	r1, [sp, #12]
    186e:	1c32      	adds	r2, r6, #0
    1870:	1c3b      	adds	r3, r7, #0
    1872:	f003 fd37 	bl	52e4 <__aeabi_dadd>
    1876:	2400      	movs	r4, #0
    1878:	22e0      	movs	r2, #224	; 0xe0
    187a:	1c20      	adds	r0, r4, #0
    187c:	0612      	lsls	r2, r2, #24
    187e:	4b69      	ldr	r3, [pc, #420]	; (1a24 <__ieee754_pow+0x5e0>)
    1880:	1c0d      	adds	r5, r1, #0
    1882:	f004 fc95 	bl	61b0 <__aeabi_dmul>
    1886:	4a68      	ldr	r2, [pc, #416]	; (1a28 <__ieee754_pow+0x5e4>)
    1888:	9006      	str	r0, [sp, #24]
    188a:	9107      	str	r1, [sp, #28]
    188c:	4b67      	ldr	r3, [pc, #412]	; (1a2c <__ieee754_pow+0x5e8>)
    188e:	1c20      	adds	r0, r4, #0
    1890:	1c29      	adds	r1, r5, #0
    1892:	f004 fc8d 	bl	61b0 <__aeabi_dmul>
    1896:	9a02      	ldr	r2, [sp, #8]
    1898:	9b03      	ldr	r3, [sp, #12]
    189a:	9004      	str	r0, [sp, #16]
    189c:	9105      	str	r1, [sp, #20]
    189e:	1c20      	adds	r0, r4, #0
    18a0:	1c29      	adds	r1, r5, #0
    18a2:	f004 ff1f 	bl	66e4 <__aeabi_dsub>
    18a6:	1c02      	adds	r2, r0, #0
    18a8:	1c0b      	adds	r3, r1, #0
    18aa:	1c30      	adds	r0, r6, #0
    18ac:	1c39      	adds	r1, r7, #0
    18ae:	f004 ff19 	bl	66e4 <__aeabi_dsub>
    18b2:	4a5f      	ldr	r2, [pc, #380]	; (1a30 <__ieee754_pow+0x5ec>)
    18b4:	4b5b      	ldr	r3, [pc, #364]	; (1a24 <__ieee754_pow+0x5e0>)
    18b6:	f004 fc7b 	bl	61b0 <__aeabi_dmul>
    18ba:	1c02      	adds	r2, r0, #0
    18bc:	1c0b      	adds	r3, r1, #0
    18be:	9804      	ldr	r0, [sp, #16]
    18c0:	9905      	ldr	r1, [sp, #20]
    18c2:	f003 fd0f 	bl	52e4 <__aeabi_dadd>
    18c6:	4b5b      	ldr	r3, [pc, #364]	; (1a34 <__ieee754_pow+0x5f0>)
    18c8:	444b      	add	r3, r9
    18ca:	681a      	ldr	r2, [r3, #0]
    18cc:	685b      	ldr	r3, [r3, #4]
    18ce:	f003 fd09 	bl	52e4 <__aeabi_dadd>
    18d2:	1c06      	adds	r6, r0, #0
    18d4:	4650      	mov	r0, sl
    18d6:	1c0f      	adds	r7, r1, #0
    18d8:	f005 fab4 	bl	6e44 <__aeabi_i2d>
    18dc:	1c04      	adds	r4, r0, #0
    18de:	1c0d      	adds	r5, r1, #0
    18e0:	9806      	ldr	r0, [sp, #24]
    18e2:	9907      	ldr	r1, [sp, #28]
    18e4:	4b54      	ldr	r3, [pc, #336]	; (1a38 <__ieee754_pow+0x5f4>)
    18e6:	444b      	add	r3, r9
    18e8:	681a      	ldr	r2, [r3, #0]
    18ea:	685b      	ldr	r3, [r3, #4]
    18ec:	9204      	str	r2, [sp, #16]
    18ee:	9305      	str	r3, [sp, #20]
    18f0:	1c32      	adds	r2, r6, #0
    18f2:	1c3b      	adds	r3, r7, #0
    18f4:	f003 fcf6 	bl	52e4 <__aeabi_dadd>
    18f8:	9a04      	ldr	r2, [sp, #16]
    18fa:	9b05      	ldr	r3, [sp, #20]
    18fc:	f003 fcf2 	bl	52e4 <__aeabi_dadd>
    1900:	1c22      	adds	r2, r4, #0
    1902:	1c2b      	adds	r3, r5, #0
    1904:	f003 fcee 	bl	52e4 <__aeabi_dadd>
    1908:	2000      	movs	r0, #0
    190a:	1c22      	adds	r2, r4, #0
    190c:	1c2b      	adds	r3, r5, #0
    190e:	9002      	str	r0, [sp, #8]
    1910:	9103      	str	r1, [sp, #12]
    1912:	f004 fee7 	bl	66e4 <__aeabi_dsub>
    1916:	9a04      	ldr	r2, [sp, #16]
    1918:	9b05      	ldr	r3, [sp, #20]
    191a:	f004 fee3 	bl	66e4 <__aeabi_dsub>
    191e:	9a06      	ldr	r2, [sp, #24]
    1920:	9b07      	ldr	r3, [sp, #28]
    1922:	f004 fedf 	bl	66e4 <__aeabi_dsub>
    1926:	1c02      	adds	r2, r0, #0
    1928:	1c0b      	adds	r3, r1, #0
    192a:	1c30      	adds	r0, r6, #0
    192c:	1c39      	adds	r1, r7, #0
    192e:	f004 fed9 	bl	66e4 <__aeabi_dsub>
    1932:	9004      	str	r0, [sp, #16]
    1934:	9105      	str	r1, [sp, #20]
    1936:	465b      	mov	r3, fp
    1938:	4642      	mov	r2, r8
    193a:	3b01      	subs	r3, #1
    193c:	4313      	orrs	r3, r2
    193e:	d000      	beq.n	1942 <__ieee754_pow+0x4fe>
    1940:	e1b1      	b.n	1ca6 <__ieee754_pow+0x862>
    1942:	2300      	movs	r3, #0
    1944:	4c3d      	ldr	r4, [pc, #244]	; (1a3c <__ieee754_pow+0x5f8>)
    1946:	9306      	str	r3, [sp, #24]
    1948:	9407      	str	r4, [sp, #28]
    194a:	9b00      	ldr	r3, [sp, #0]
    194c:	9c01      	ldr	r4, [sp, #4]
    194e:	2600      	movs	r6, #0
    1950:	1c18      	adds	r0, r3, #0
    1952:	1c21      	adds	r1, r4, #0
    1954:	1c23      	adds	r3, r4, #0
    1956:	1c32      	adds	r2, r6, #0
    1958:	f004 fec4 	bl	66e4 <__aeabi_dsub>
    195c:	9a02      	ldr	r2, [sp, #8]
    195e:	9b03      	ldr	r3, [sp, #12]
    1960:	f004 fc26 	bl	61b0 <__aeabi_dmul>
    1964:	9a04      	ldr	r2, [sp, #16]
    1966:	9b05      	ldr	r3, [sp, #20]
    1968:	1c0d      	adds	r5, r1, #0
    196a:	1c27      	adds	r7, r4, #0
    196c:	1c04      	adds	r4, r0, #0
    196e:	9800      	ldr	r0, [sp, #0]
    1970:	9901      	ldr	r1, [sp, #4]
    1972:	f004 fc1d 	bl	61b0 <__aeabi_dmul>
    1976:	1c02      	adds	r2, r0, #0
    1978:	1c0b      	adds	r3, r1, #0
    197a:	1c20      	adds	r0, r4, #0
    197c:	1c29      	adds	r1, r5, #0
    197e:	f003 fcb1 	bl	52e4 <__aeabi_dadd>
    1982:	9a02      	ldr	r2, [sp, #8]
    1984:	9b03      	ldr	r3, [sp, #12]
    1986:	9000      	str	r0, [sp, #0]
    1988:	9101      	str	r1, [sp, #4]
    198a:	1c30      	adds	r0, r6, #0
    198c:	1c39      	adds	r1, r7, #0
    198e:	f004 fc0f 	bl	61b0 <__aeabi_dmul>
    1992:	1c04      	adds	r4, r0, #0
    1994:	1c0d      	adds	r5, r1, #0
    1996:	9800      	ldr	r0, [sp, #0]
    1998:	9901      	ldr	r1, [sp, #4]
    199a:	1c2b      	adds	r3, r5, #0
    199c:	1c22      	adds	r2, r4, #0
    199e:	f003 fca1 	bl	52e4 <__aeabi_dadd>
    19a2:	4b27      	ldr	r3, [pc, #156]	; (1a40 <__ieee754_pow+0x5fc>)
    19a4:	4682      	mov	sl, r0
    19a6:	4689      	mov	r9, r1
    19a8:	4299      	cmp	r1, r3
    19aa:	dc00      	bgt.n	19ae <__ieee754_pow+0x56a>
    19ac:	e158      	b.n	1c60 <__ieee754_pow+0x81c>
    19ae:	4b25      	ldr	r3, [pc, #148]	; (1a44 <__ieee754_pow+0x600>)
    19b0:	444b      	add	r3, r9
    19b2:	4303      	orrs	r3, r0
    19b4:	d000      	beq.n	19b8 <__ieee754_pow+0x574>
    19b6:	e201      	b.n	1dbc <__ieee754_pow+0x978>
    19b8:	9800      	ldr	r0, [sp, #0]
    19ba:	9901      	ldr	r1, [sp, #4]
    19bc:	4a22      	ldr	r2, [pc, #136]	; (1a48 <__ieee754_pow+0x604>)
    19be:	4b23      	ldr	r3, [pc, #140]	; (1a4c <__ieee754_pow+0x608>)
    19c0:	f003 fc90 	bl	52e4 <__aeabi_dadd>
    19c4:	1c22      	adds	r2, r4, #0
    19c6:	1c06      	adds	r6, r0, #0
    19c8:	1c0f      	adds	r7, r1, #0
    19ca:	1c2b      	adds	r3, r5, #0
    19cc:	e040      	b.n	1a50 <__ieee754_pow+0x60c>
    19ce:	46c0      	nop			; (mov r8, r8)
    19d0:	000fffff 	.word	0x000fffff
    19d4:	43400000 	.word	0x43400000
    19d8:	fffffc01 	.word	0xfffffc01
    19dc:	3ff00000 	.word	0x3ff00000
    19e0:	0003988e 	.word	0x0003988e
    19e4:	000bb679 	.word	0x000bb679
    19e8:	fff00000 	.word	0xfff00000
    19ec:	000075e8 	.word	0x000075e8
    19f0:	4a454eef 	.word	0x4a454eef
    19f4:	3fca7e28 	.word	0x3fca7e28
    19f8:	93c9db65 	.word	0x93c9db65
    19fc:	3fcd864a 	.word	0x3fcd864a
    1a00:	a91d4101 	.word	0xa91d4101
    1a04:	3fd17460 	.word	0x3fd17460
    1a08:	518f264d 	.word	0x518f264d
    1a0c:	3fd55555 	.word	0x3fd55555
    1a10:	db6fabff 	.word	0xdb6fabff
    1a14:	3fdb6db6 	.word	0x3fdb6db6
    1a18:	33333303 	.word	0x33333303
    1a1c:	3fe33333 	.word	0x3fe33333
    1a20:	40080000 	.word	0x40080000
    1a24:	3feec709 	.word	0x3feec709
    1a28:	145b01f5 	.word	0x145b01f5
    1a2c:	be3e2fe0 	.word	0xbe3e2fe0
    1a30:	dc3a03fd 	.word	0xdc3a03fd
    1a34:	000075d8 	.word	0x000075d8
    1a38:	000075c8 	.word	0x000075c8
    1a3c:	bff00000 	.word	0xbff00000
    1a40:	408fffff 	.word	0x408fffff
    1a44:	bf700000 	.word	0xbf700000
    1a48:	652b82fe 	.word	0x652b82fe
    1a4c:	3c971547 	.word	0x3c971547
    1a50:	4650      	mov	r0, sl
    1a52:	4649      	mov	r1, r9
    1a54:	f004 fe46 	bl	66e4 <__aeabi_dsub>
    1a58:	1c02      	adds	r2, r0, #0
    1a5a:	1c0b      	adds	r3, r1, #0
    1a5c:	1c30      	adds	r0, r6, #0
    1a5e:	1c39      	adds	r1, r7, #0
    1a60:	f002 fd62 	bl	4528 <__aeabi_dcmpgt>
    1a64:	464e      	mov	r6, r9
    1a66:	2800      	cmp	r0, #0
    1a68:	d000      	beq.n	1a6c <__ieee754_pow+0x628>
    1a6a:	e1a7      	b.n	1dbc <__ieee754_pow+0x978>
    1a6c:	4be7      	ldr	r3, [pc, #924]	; (1e0c <__ieee754_pow+0x9c8>)
    1a6e:	1536      	asrs	r6, r6, #20
    1a70:	18f1      	adds	r1, r6, r3
    1a72:	2380      	movs	r3, #128	; 0x80
    1a74:	035b      	lsls	r3, r3, #13
    1a76:	4698      	mov	r8, r3
    1a78:	410b      	asrs	r3, r1
    1a7a:	1c19      	adds	r1, r3, #0
    1a7c:	48e4      	ldr	r0, [pc, #912]	; (1e10 <__ieee754_pow+0x9cc>)
    1a7e:	4449      	add	r1, r9
    1a80:	4684      	mov	ip, r0
    1a82:	004f      	lsls	r7, r1, #1
    1a84:	0d7f      	lsrs	r7, r7, #21
    1a86:	44bc      	add	ip, r7
    1a88:	4666      	mov	r6, ip
    1a8a:	48e2      	ldr	r0, [pc, #904]	; (1e14 <__ieee754_pow+0x9d0>)
    1a8c:	2200      	movs	r2, #0
    1a8e:	4130      	asrs	r0, r6
    1a90:	1c0e      	adds	r6, r1, #0
    1a92:	4386      	bics	r6, r0
    1a94:	4640      	mov	r0, r8
    1a96:	0309      	lsls	r1, r1, #12
    1a98:	0b09      	lsrs	r1, r1, #12
    1a9a:	4308      	orrs	r0, r1
    1a9c:	4649      	mov	r1, r9
    1a9e:	1c33      	adds	r3, r6, #0
    1aa0:	0fce      	lsrs	r6, r1, #31
    1aa2:	49dd      	ldr	r1, [pc, #884]	; (1e18 <__ieee754_pow+0x9d4>)
    1aa4:	1bc9      	subs	r1, r1, r7
    1aa6:	4108      	asrs	r0, r1
    1aa8:	1c01      	adds	r1, r0, #0
    1aaa:	4270      	negs	r0, r6
    1aac:	4041      	eors	r1, r0
    1aae:	4689      	mov	r9, r1
    1ab0:	1c20      	adds	r0, r4, #0
    1ab2:	1c29      	adds	r1, r5, #0
    1ab4:	f004 fe16 	bl	66e4 <__aeabi_dsub>
    1ab8:	1c04      	adds	r4, r0, #0
    1aba:	1c0d      	adds	r5, r1, #0
    1abc:	9800      	ldr	r0, [sp, #0]
    1abe:	9901      	ldr	r1, [sp, #4]
    1ac0:	1c2b      	adds	r3, r5, #0
    1ac2:	44b1      	add	r9, r6
    1ac4:	1c22      	adds	r2, r4, #0
    1ac6:	f003 fc0d 	bl	52e4 <__aeabi_dadd>
    1aca:	464b      	mov	r3, r9
    1acc:	051b      	lsls	r3, r3, #20
    1ace:	4698      	mov	r8, r3
    1ad0:	2000      	movs	r0, #0
    1ad2:	2200      	movs	r2, #0
    1ad4:	4bd1      	ldr	r3, [pc, #836]	; (1e1c <__ieee754_pow+0x9d8>)
    1ad6:	1c06      	adds	r6, r0, #0
    1ad8:	1c0f      	adds	r7, r1, #0
    1ada:	f004 fb69 	bl	61b0 <__aeabi_dmul>
    1ade:	1c22      	adds	r2, r4, #0
    1ae0:	9002      	str	r0, [sp, #8]
    1ae2:	9103      	str	r1, [sp, #12]
    1ae4:	1c2b      	adds	r3, r5, #0
    1ae6:	1c30      	adds	r0, r6, #0
    1ae8:	1c39      	adds	r1, r7, #0
    1aea:	f004 fdfb 	bl	66e4 <__aeabi_dsub>
    1aee:	1c02      	adds	r2, r0, #0
    1af0:	1c0b      	adds	r3, r1, #0
    1af2:	9800      	ldr	r0, [sp, #0]
    1af4:	9901      	ldr	r1, [sp, #4]
    1af6:	f004 fdf5 	bl	66e4 <__aeabi_dsub>
    1afa:	4ac9      	ldr	r2, [pc, #804]	; (1e20 <__ieee754_pow+0x9dc>)
    1afc:	4bc9      	ldr	r3, [pc, #804]	; (1e24 <__ieee754_pow+0x9e0>)
    1afe:	f004 fb57 	bl	61b0 <__aeabi_dmul>
    1b02:	4ac9      	ldr	r2, [pc, #804]	; (1e28 <__ieee754_pow+0x9e4>)
    1b04:	1c04      	adds	r4, r0, #0
    1b06:	1c0d      	adds	r5, r1, #0
    1b08:	1c30      	adds	r0, r6, #0
    1b0a:	1c39      	adds	r1, r7, #0
    1b0c:	4bc7      	ldr	r3, [pc, #796]	; (1e2c <__ieee754_pow+0x9e8>)
    1b0e:	f004 fb4f 	bl	61b0 <__aeabi_dmul>
    1b12:	1c02      	adds	r2, r0, #0
    1b14:	1c0b      	adds	r3, r1, #0
    1b16:	1c20      	adds	r0, r4, #0
    1b18:	1c29      	adds	r1, r5, #0
    1b1a:	f003 fbe3 	bl	52e4 <__aeabi_dadd>
    1b1e:	1c04      	adds	r4, r0, #0
    1b20:	1c0d      	adds	r5, r1, #0
    1b22:	9802      	ldr	r0, [sp, #8]
    1b24:	9903      	ldr	r1, [sp, #12]
    1b26:	1c22      	adds	r2, r4, #0
    1b28:	1c2b      	adds	r3, r5, #0
    1b2a:	f003 fbdb 	bl	52e4 <__aeabi_dadd>
    1b2e:	9a02      	ldr	r2, [sp, #8]
    1b30:	9b03      	ldr	r3, [sp, #12]
    1b32:	1c06      	adds	r6, r0, #0
    1b34:	1c0f      	adds	r7, r1, #0
    1b36:	f004 fdd5 	bl	66e4 <__aeabi_dsub>
    1b3a:	1c02      	adds	r2, r0, #0
    1b3c:	1c0b      	adds	r3, r1, #0
    1b3e:	1c20      	adds	r0, r4, #0
    1b40:	1c29      	adds	r1, r5, #0
    1b42:	f004 fdcf 	bl	66e4 <__aeabi_dsub>
    1b46:	1c32      	adds	r2, r6, #0
    1b48:	9000      	str	r0, [sp, #0]
    1b4a:	9101      	str	r1, [sp, #4]
    1b4c:	1c3b      	adds	r3, r7, #0
    1b4e:	1c30      	adds	r0, r6, #0
    1b50:	1c39      	adds	r1, r7, #0
    1b52:	f004 fb2d 	bl	61b0 <__aeabi_dmul>
    1b56:	1c04      	adds	r4, r0, #0
    1b58:	1c0d      	adds	r5, r1, #0
    1b5a:	4ab5      	ldr	r2, [pc, #724]	; (1e30 <__ieee754_pow+0x9ec>)
    1b5c:	4bb5      	ldr	r3, [pc, #724]	; (1e34 <__ieee754_pow+0x9f0>)
    1b5e:	f004 fb27 	bl	61b0 <__aeabi_dmul>
    1b62:	4ab5      	ldr	r2, [pc, #724]	; (1e38 <__ieee754_pow+0x9f4>)
    1b64:	4bb5      	ldr	r3, [pc, #724]	; (1e3c <__ieee754_pow+0x9f8>)
    1b66:	f004 fdbd 	bl	66e4 <__aeabi_dsub>
    1b6a:	1c22      	adds	r2, r4, #0
    1b6c:	1c2b      	adds	r3, r5, #0
    1b6e:	f004 fb1f 	bl	61b0 <__aeabi_dmul>
    1b72:	4ab3      	ldr	r2, [pc, #716]	; (1e40 <__ieee754_pow+0x9fc>)
    1b74:	4bb3      	ldr	r3, [pc, #716]	; (1e44 <__ieee754_pow+0xa00>)
    1b76:	f003 fbb5 	bl	52e4 <__aeabi_dadd>
    1b7a:	1c22      	adds	r2, r4, #0
    1b7c:	1c2b      	adds	r3, r5, #0
    1b7e:	f004 fb17 	bl	61b0 <__aeabi_dmul>
    1b82:	4ab1      	ldr	r2, [pc, #708]	; (1e48 <__ieee754_pow+0xa04>)
    1b84:	4bb1      	ldr	r3, [pc, #708]	; (1e4c <__ieee754_pow+0xa08>)
    1b86:	f004 fdad 	bl	66e4 <__aeabi_dsub>
    1b8a:	1c22      	adds	r2, r4, #0
    1b8c:	1c2b      	adds	r3, r5, #0
    1b8e:	f004 fb0f 	bl	61b0 <__aeabi_dmul>
    1b92:	4aaf      	ldr	r2, [pc, #700]	; (1e50 <__ieee754_pow+0xa0c>)
    1b94:	4baf      	ldr	r3, [pc, #700]	; (1e54 <__ieee754_pow+0xa10>)
    1b96:	f003 fba5 	bl	52e4 <__aeabi_dadd>
    1b9a:	1c22      	adds	r2, r4, #0
    1b9c:	1c2b      	adds	r3, r5, #0
    1b9e:	f004 fb07 	bl	61b0 <__aeabi_dmul>
    1ba2:	1c02      	adds	r2, r0, #0
    1ba4:	1c0b      	adds	r3, r1, #0
    1ba6:	1c30      	adds	r0, r6, #0
    1ba8:	1c39      	adds	r1, r7, #0
    1baa:	f004 fd9b 	bl	66e4 <__aeabi_dsub>
    1bae:	1c04      	adds	r4, r0, #0
    1bb0:	1c0d      	adds	r5, r1, #0
    1bb2:	1c22      	adds	r2, r4, #0
    1bb4:	1c2b      	adds	r3, r5, #0
    1bb6:	1c30      	adds	r0, r6, #0
    1bb8:	1c39      	adds	r1, r7, #0
    1bba:	f004 faf9 	bl	61b0 <__aeabi_dmul>
    1bbe:	2380      	movs	r3, #128	; 0x80
    1bc0:	9002      	str	r0, [sp, #8]
    1bc2:	9103      	str	r1, [sp, #12]
    1bc4:	2200      	movs	r2, #0
    1bc6:	1c20      	adds	r0, r4, #0
    1bc8:	1c29      	adds	r1, r5, #0
    1bca:	05db      	lsls	r3, r3, #23
    1bcc:	f004 fd8a 	bl	66e4 <__aeabi_dsub>
    1bd0:	1c02      	adds	r2, r0, #0
    1bd2:	1c0b      	adds	r3, r1, #0
    1bd4:	9802      	ldr	r0, [sp, #8]
    1bd6:	9903      	ldr	r1, [sp, #12]
    1bd8:	f003 feac 	bl	5934 <__aeabi_ddiv>
    1bdc:	9a00      	ldr	r2, [sp, #0]
    1bde:	9b01      	ldr	r3, [sp, #4]
    1be0:	1c04      	adds	r4, r0, #0
    1be2:	1c0d      	adds	r5, r1, #0
    1be4:	1c30      	adds	r0, r6, #0
    1be6:	1c39      	adds	r1, r7, #0
    1be8:	f004 fae2 	bl	61b0 <__aeabi_dmul>
    1bec:	9a00      	ldr	r2, [sp, #0]
    1bee:	9b01      	ldr	r3, [sp, #4]
    1bf0:	f003 fb78 	bl	52e4 <__aeabi_dadd>
    1bf4:	1c02      	adds	r2, r0, #0
    1bf6:	1c0b      	adds	r3, r1, #0
    1bf8:	1c20      	adds	r0, r4, #0
    1bfa:	1c29      	adds	r1, r5, #0
    1bfc:	f004 fd72 	bl	66e4 <__aeabi_dsub>
    1c00:	1c32      	adds	r2, r6, #0
    1c02:	1c3b      	adds	r3, r7, #0
    1c04:	f004 fd6e 	bl	66e4 <__aeabi_dsub>
    1c08:	1c0b      	adds	r3, r1, #0
    1c0a:	1c02      	adds	r2, r0, #0
    1c0c:	4992      	ldr	r1, [pc, #584]	; (1e58 <__ieee754_pow+0xa14>)
    1c0e:	2000      	movs	r0, #0
    1c10:	f004 fd68 	bl	66e4 <__aeabi_dsub>
    1c14:	4643      	mov	r3, r8
    1c16:	185c      	adds	r4, r3, r1
    1c18:	1523      	asrs	r3, r4, #20
    1c1a:	2b00      	cmp	r3, #0
    1c1c:	dc00      	bgt.n	1c20 <__ieee754_pow+0x7dc>
    1c1e:	e14f      	b.n	1ec0 <__ieee754_pow+0xa7c>
    1c20:	1c02      	adds	r2, r0, #0
    1c22:	1c23      	adds	r3, r4, #0
    1c24:	9806      	ldr	r0, [sp, #24]
    1c26:	9907      	ldr	r1, [sp, #28]
    1c28:	f004 fac2 	bl	61b0 <__aeabi_dmul>
    1c2c:	e452      	b.n	14d4 <__ieee754_pow+0x90>
    1c2e:	4653      	mov	r3, sl
    1c30:	2b00      	cmp	r3, #0
    1c32:	da00      	bge.n	1c36 <__ieee754_pow+0x7f2>
    1c34:	e47c      	b.n	1530 <__ieee754_pow+0xec>
    1c36:	2000      	movs	r0, #0
    1c38:	2100      	movs	r1, #0
    1c3a:	e44b      	b.n	14d4 <__ieee754_pow+0x90>
    1c3c:	4987      	ldr	r1, [pc, #540]	; (1e5c <__ieee754_pow+0xa18>)
    1c3e:	468c      	mov	ip, r1
    1c40:	4659      	mov	r1, fp
    1c42:	4464      	add	r4, ip
    1c44:	430c      	orrs	r4, r1
    1c46:	d000      	beq.n	1c4a <__ieee754_pow+0x806>
    1c48:	e0c4      	b.n	1dd4 <__ieee754_pow+0x990>
    1c4a:	1c10      	adds	r0, r2, #0
    1c4c:	1c19      	adds	r1, r3, #0
    1c4e:	e4c9      	b.n	15e4 <__ieee754_pow+0x1a0>
    1c50:	1c30      	adds	r0, r6, #0
    1c52:	1c29      	adds	r1, r5, #0
    1c54:	1c32      	adds	r2, r6, #0
    1c56:	1c2b      	adds	r3, r5, #0
    1c58:	f004 faaa 	bl	61b0 <__aeabi_dmul>
    1c5c:	f7ff fc3a 	bl	14d4 <__ieee754_pow+0x90>
    1c60:	4b7f      	ldr	r3, [pc, #508]	; (1e60 <__ieee754_pow+0xa1c>)
    1c62:	004e      	lsls	r6, r1, #1
    1c64:	0876      	lsrs	r6, r6, #1
    1c66:	429e      	cmp	r6, r3
    1c68:	dc00      	bgt.n	1c6c <__ieee754_pow+0x828>
    1c6a:	e117      	b.n	1e9c <__ieee754_pow+0xa58>
    1c6c:	4b7d      	ldr	r3, [pc, #500]	; (1e64 <__ieee754_pow+0xa20>)
    1c6e:	444b      	add	r3, r9
    1c70:	4303      	orrs	r3, r0
    1c72:	d10c      	bne.n	1c8e <__ieee754_pow+0x84a>
    1c74:	1c22      	adds	r2, r4, #0
    1c76:	1c2b      	adds	r3, r5, #0
    1c78:	f004 fd34 	bl	66e4 <__aeabi_dsub>
    1c7c:	1c02      	adds	r2, r0, #0
    1c7e:	1c0b      	adds	r3, r1, #0
    1c80:	9800      	ldr	r0, [sp, #0]
    1c82:	9901      	ldr	r1, [sp, #4]
    1c84:	f002 fc46 	bl	4514 <__aeabi_dcmple>
    1c88:	2800      	cmp	r0, #0
    1c8a:	d100      	bne.n	1c8e <__ieee754_pow+0x84a>
    1c8c:	e6ee      	b.n	1a6c <__ieee754_pow+0x628>
    1c8e:	9806      	ldr	r0, [sp, #24]
    1c90:	9907      	ldr	r1, [sp, #28]
    1c92:	4a75      	ldr	r2, [pc, #468]	; (1e68 <__ieee754_pow+0xa24>)
    1c94:	4b75      	ldr	r3, [pc, #468]	; (1e6c <__ieee754_pow+0xa28>)
    1c96:	f004 fa8b 	bl	61b0 <__aeabi_dmul>
    1c9a:	4a73      	ldr	r2, [pc, #460]	; (1e68 <__ieee754_pow+0xa24>)
    1c9c:	4b73      	ldr	r3, [pc, #460]	; (1e6c <__ieee754_pow+0xa28>)
    1c9e:	f004 fa87 	bl	61b0 <__aeabi_dmul>
    1ca2:	f7ff fc17 	bl	14d4 <__ieee754_pow+0x90>
    1ca6:	2300      	movs	r3, #0
    1ca8:	4c6b      	ldr	r4, [pc, #428]	; (1e58 <__ieee754_pow+0xa14>)
    1caa:	9306      	str	r3, [sp, #24]
    1cac:	9407      	str	r4, [sp, #28]
    1cae:	e64c      	b.n	194a <__ieee754_pow+0x506>
    1cb0:	4653      	mov	r3, sl
    1cb2:	2b00      	cmp	r3, #0
    1cb4:	dabf      	bge.n	1c36 <__ieee754_pow+0x7f2>
    1cb6:	9b00      	ldr	r3, [sp, #0]
    1cb8:	9c01      	ldr	r4, [sp, #4]
    1cba:	2280      	movs	r2, #128	; 0x80
    1cbc:	0612      	lsls	r2, r2, #24
    1cbe:	1c18      	adds	r0, r3, #0
    1cc0:	4694      	mov	ip, r2
    1cc2:	1c23      	adds	r3, r4, #0
    1cc4:	4463      	add	r3, ip
    1cc6:	1c19      	adds	r1, r3, #0
    1cc8:	f7ff fc04 	bl	14d4 <__ieee754_pow+0x90>
    1ccc:	2000      	movs	r0, #0
    1cce:	4962      	ldr	r1, [pc, #392]	; (1e58 <__ieee754_pow+0xa14>)
    1cd0:	f003 fe30 	bl	5934 <__aeabi_ddiv>
    1cd4:	1c02      	adds	r2, r0, #0
    1cd6:	1c0b      	adds	r3, r1, #0
    1cd8:	e43c      	b.n	1554 <__ieee754_pow+0x110>
    1cda:	2400      	movs	r4, #0
    1cdc:	2100      	movs	r1, #0
    1cde:	e4cc      	b.n	167a <__ieee754_pow+0x236>
    1ce0:	4963      	ldr	r1, [pc, #396]	; (1e70 <__ieee754_pow+0xa2c>)
    1ce2:	428c      	cmp	r4, r1
    1ce4:	dda3      	ble.n	1c2e <__ieee754_pow+0x7ea>
    1ce6:	495c      	ldr	r1, [pc, #368]	; (1e58 <__ieee754_pow+0xa14>)
    1ce8:	428c      	cmp	r4, r1
    1cea:	dd01      	ble.n	1cf0 <__ieee754_pow+0x8ac>
    1cec:	f7ff fc1c 	bl	1528 <__ieee754_pow+0xe4>
    1cf0:	1c10      	adds	r0, r2, #0
    1cf2:	1c19      	adds	r1, r3, #0
    1cf4:	2200      	movs	r2, #0
    1cf6:	4b58      	ldr	r3, [pc, #352]	; (1e58 <__ieee754_pow+0xa14>)
    1cf8:	f004 fcf4 	bl	66e4 <__aeabi_dsub>
    1cfc:	22c0      	movs	r2, #192	; 0xc0
    1cfe:	4b5d      	ldr	r3, [pc, #372]	; (1e74 <__ieee754_pow+0xa30>)
    1d00:	05d2      	lsls	r2, r2, #23
    1d02:	1c04      	adds	r4, r0, #0
    1d04:	1c0d      	adds	r5, r1, #0
    1d06:	f004 fa53 	bl	61b0 <__aeabi_dmul>
    1d0a:	4a5b      	ldr	r2, [pc, #364]	; (1e78 <__ieee754_pow+0xa34>)
    1d0c:	1c06      	adds	r6, r0, #0
    1d0e:	1c0f      	adds	r7, r1, #0
    1d10:	1c20      	adds	r0, r4, #0
    1d12:	1c29      	adds	r1, r5, #0
    1d14:	4b59      	ldr	r3, [pc, #356]	; (1e7c <__ieee754_pow+0xa38>)
    1d16:	f004 fa4b 	bl	61b0 <__aeabi_dmul>
    1d1a:	1c22      	adds	r2, r4, #0
    1d1c:	9002      	str	r0, [sp, #8]
    1d1e:	9103      	str	r1, [sp, #12]
    1d20:	1c2b      	adds	r3, r5, #0
    1d22:	1c20      	adds	r0, r4, #0
    1d24:	1c29      	adds	r1, r5, #0
    1d26:	f004 fa43 	bl	61b0 <__aeabi_dmul>
    1d2a:	2200      	movs	r2, #0
    1d2c:	9004      	str	r0, [sp, #16]
    1d2e:	9105      	str	r1, [sp, #20]
    1d30:	4b53      	ldr	r3, [pc, #332]	; (1e80 <__ieee754_pow+0xa3c>)
    1d32:	1c20      	adds	r0, r4, #0
    1d34:	1c29      	adds	r1, r5, #0
    1d36:	f004 fa3b 	bl	61b0 <__aeabi_dmul>
    1d3a:	1c02      	adds	r2, r0, #0
    1d3c:	1c0b      	adds	r3, r1, #0
    1d3e:	4851      	ldr	r0, [pc, #324]	; (1e84 <__ieee754_pow+0xa40>)
    1d40:	4951      	ldr	r1, [pc, #324]	; (1e88 <__ieee754_pow+0xa44>)
    1d42:	f004 fccf 	bl	66e4 <__aeabi_dsub>
    1d46:	1c22      	adds	r2, r4, #0
    1d48:	1c2b      	adds	r3, r5, #0
    1d4a:	f004 fa31 	bl	61b0 <__aeabi_dmul>
    1d4e:	1c02      	adds	r2, r0, #0
    1d50:	1c0b      	adds	r3, r1, #0
    1d52:	2000      	movs	r0, #0
    1d54:	494d      	ldr	r1, [pc, #308]	; (1e8c <__ieee754_pow+0xa48>)
    1d56:	f004 fcc5 	bl	66e4 <__aeabi_dsub>
    1d5a:	1c02      	adds	r2, r0, #0
    1d5c:	1c0b      	adds	r3, r1, #0
    1d5e:	9804      	ldr	r0, [sp, #16]
    1d60:	9905      	ldr	r1, [sp, #20]
    1d62:	f004 fa25 	bl	61b0 <__aeabi_dmul>
    1d66:	4a4a      	ldr	r2, [pc, #296]	; (1e90 <__ieee754_pow+0xa4c>)
    1d68:	4b42      	ldr	r3, [pc, #264]	; (1e74 <__ieee754_pow+0xa30>)
    1d6a:	f004 fa21 	bl	61b0 <__aeabi_dmul>
    1d6e:	1c02      	adds	r2, r0, #0
    1d70:	1c0b      	adds	r3, r1, #0
    1d72:	9802      	ldr	r0, [sp, #8]
    1d74:	9903      	ldr	r1, [sp, #12]
    1d76:	f004 fcb5 	bl	66e4 <__aeabi_dsub>
    1d7a:	1c04      	adds	r4, r0, #0
    1d7c:	1c0d      	adds	r5, r1, #0
    1d7e:	1c22      	adds	r2, r4, #0
    1d80:	1c2b      	adds	r3, r5, #0
    1d82:	1c30      	adds	r0, r6, #0
    1d84:	1c39      	adds	r1, r7, #0
    1d86:	f003 faad 	bl	52e4 <__aeabi_dadd>
    1d8a:	2200      	movs	r2, #0
    1d8c:	1c10      	adds	r0, r2, #0
    1d8e:	1c3b      	adds	r3, r7, #0
    1d90:	1c32      	adds	r2, r6, #0
    1d92:	9002      	str	r0, [sp, #8]
    1d94:	9103      	str	r1, [sp, #12]
    1d96:	f004 fca5 	bl	66e4 <__aeabi_dsub>
    1d9a:	1c02      	adds	r2, r0, #0
    1d9c:	1c0b      	adds	r3, r1, #0
    1d9e:	1c20      	adds	r0, r4, #0
    1da0:	1c29      	adds	r1, r5, #0
    1da2:	f004 fc9f 	bl	66e4 <__aeabi_dsub>
    1da6:	9004      	str	r0, [sp, #16]
    1da8:	9105      	str	r1, [sp, #20]
    1daa:	e5c4      	b.n	1936 <__ieee754_pow+0x4f2>
    1dac:	1c32      	adds	r2, r6, #0
    1dae:	1c2b      	adds	r3, r5, #0
    1db0:	2000      	movs	r0, #0
    1db2:	4929      	ldr	r1, [pc, #164]	; (1e58 <__ieee754_pow+0xa14>)
    1db4:	f003 fdbe 	bl	5934 <__aeabi_ddiv>
    1db8:	f7ff fb8c 	bl	14d4 <__ieee754_pow+0x90>
    1dbc:	9806      	ldr	r0, [sp, #24]
    1dbe:	9907      	ldr	r1, [sp, #28]
    1dc0:	4a34      	ldr	r2, [pc, #208]	; (1e94 <__ieee754_pow+0xa50>)
    1dc2:	4b35      	ldr	r3, [pc, #212]	; (1e98 <__ieee754_pow+0xa54>)
    1dc4:	f004 f9f4 	bl	61b0 <__aeabi_dmul>
    1dc8:	4a32      	ldr	r2, [pc, #200]	; (1e94 <__ieee754_pow+0xa50>)
    1dca:	4b33      	ldr	r3, [pc, #204]	; (1e98 <__ieee754_pow+0xa54>)
    1dcc:	f004 f9f0 	bl	61b0 <__aeabi_dmul>
    1dd0:	f7ff fb80 	bl	14d4 <__ieee754_pow+0x90>
    1dd4:	4659      	mov	r1, fp
    1dd6:	1c10      	adds	r0, r2, #0
    1dd8:	2901      	cmp	r1, #1
    1dda:	d06c      	beq.n	1eb6 <__ieee754_pow+0xa72>
    1ddc:	1c19      	adds	r1, r3, #0
    1dde:	f7ff fb79 	bl	14d4 <__ieee754_pow+0x90>
    1de2:	2a00      	cmp	r2, #0
    1de4:	d001      	beq.n	1dea <__ieee754_pow+0x9a6>
    1de6:	f7ff fb82 	bl	14ee <__ieee754_pow+0xaa>
    1dea:	1c3a      	adds	r2, r7, #0
    1dec:	1a09      	subs	r1, r1, r0
    1dee:	410a      	asrs	r2, r1
    1df0:	1c13      	adds	r3, r2, #0
    1df2:	408b      	lsls	r3, r1
    1df4:	42bb      	cmp	r3, r7
    1df6:	d001      	beq.n	1dfc <__ieee754_pow+0x9b8>
    1df8:	f7ff fb50 	bl	149c <__ieee754_pow+0x58>
    1dfc:	2301      	movs	r3, #1
    1dfe:	4013      	ands	r3, r2
    1e00:	2202      	movs	r2, #2
    1e02:	1ad3      	subs	r3, r2, r3
    1e04:	469b      	mov	fp, r3
    1e06:	f7ff fb49 	bl	149c <__ieee754_pow+0x58>
    1e0a:	46c0      	nop			; (mov r8, r8)
    1e0c:	fffffc02 	.word	0xfffffc02
    1e10:	fffffc01 	.word	0xfffffc01
    1e14:	000fffff 	.word	0x000fffff
    1e18:	00000413 	.word	0x00000413
    1e1c:	3fe62e43 	.word	0x3fe62e43
    1e20:	fefa39ef 	.word	0xfefa39ef
    1e24:	3fe62e42 	.word	0x3fe62e42
    1e28:	0ca86c39 	.word	0x0ca86c39
    1e2c:	be205c61 	.word	0xbe205c61
    1e30:	72bea4d0 	.word	0x72bea4d0
    1e34:	3e663769 	.word	0x3e663769
    1e38:	c5d26bf1 	.word	0xc5d26bf1
    1e3c:	3ebbbd41 	.word	0x3ebbbd41
    1e40:	af25de2c 	.word	0xaf25de2c
    1e44:	3f11566a 	.word	0x3f11566a
    1e48:	16bebd93 	.word	0x16bebd93
    1e4c:	3f66c16c 	.word	0x3f66c16c
    1e50:	5555553e 	.word	0x5555553e
    1e54:	3fc55555 	.word	0x3fc55555
    1e58:	3ff00000 	.word	0x3ff00000
    1e5c:	c0100000 	.word	0xc0100000
    1e60:	4090cbff 	.word	0x4090cbff
    1e64:	3f6f3400 	.word	0x3f6f3400
    1e68:	c2f8f359 	.word	0xc2f8f359
    1e6c:	01a56e1f 	.word	0x01a56e1f
    1e70:	3feffffe 	.word	0x3feffffe
    1e74:	3ff71547 	.word	0x3ff71547
    1e78:	f85ddf44 	.word	0xf85ddf44
    1e7c:	3e54ae0b 	.word	0x3e54ae0b
    1e80:	3fd00000 	.word	0x3fd00000
    1e84:	55555555 	.word	0x55555555
    1e88:	3fd55555 	.word	0x3fd55555
    1e8c:	3fe00000 	.word	0x3fe00000
    1e90:	652b82fe 	.word	0x652b82fe
    1e94:	8800759c 	.word	0x8800759c
    1e98:	7e37e43c 	.word	0x7e37e43c
    1e9c:	4b0b      	ldr	r3, [pc, #44]	; (1ecc <__ieee754_pow+0xa88>)
    1e9e:	429e      	cmp	r6, r3
    1ea0:	dd00      	ble.n	1ea4 <__ieee754_pow+0xa60>
    1ea2:	e5e3      	b.n	1a6c <__ieee754_pow+0x628>
    1ea4:	2300      	movs	r3, #0
    1ea6:	4698      	mov	r8, r3
    1ea8:	4699      	mov	r9, r3
    1eaa:	e611      	b.n	1ad0 <__ieee754_pow+0x68c>
    1eac:	2480      	movs	r4, #128	; 0x80
    1eae:	2101      	movs	r1, #1
    1eb0:	02e4      	lsls	r4, r4, #11
    1eb2:	f7ff fbe2 	bl	167a <__ieee754_pow+0x236>
    1eb6:	2180      	movs	r1, #128	; 0x80
    1eb8:	0609      	lsls	r1, r1, #24
    1eba:	1859      	adds	r1, r3, r1
    1ebc:	f7ff fb0a 	bl	14d4 <__ieee754_pow+0x90>
    1ec0:	464a      	mov	r2, r9
    1ec2:	f000 f9e1 	bl	2288 <scalbn>
    1ec6:	1c02      	adds	r2, r0, #0
    1ec8:	1c0b      	adds	r3, r1, #0
    1eca:	e6ab      	b.n	1c24 <__ieee754_pow+0x7e0>
    1ecc:	3fe00000 	.word	0x3fe00000

00001ed0 <__ieee754_sqrt>:
    1ed0:	b5f0      	push	{r4, r5, r6, r7, lr}
    1ed2:	4656      	mov	r6, sl
    1ed4:	464d      	mov	r5, r9
    1ed6:	4644      	mov	r4, r8
    1ed8:	465f      	mov	r7, fp
    1eda:	4b75      	ldr	r3, [pc, #468]	; (20b0 <STACK_SIZE+0xb0>)
    1edc:	b4f0      	push	{r4, r5, r6, r7}
    1ede:	1c0a      	adds	r2, r1, #0
    1ee0:	1c0e      	adds	r6, r1, #0
    1ee2:	1c19      	adds	r1, r3, #0
    1ee4:	b083      	sub	sp, #12
    1ee6:	1c05      	adds	r5, r0, #0
    1ee8:	1c04      	adds	r4, r0, #0
    1eea:	4031      	ands	r1, r6
    1eec:	4299      	cmp	r1, r3
    1eee:	d100      	bne.n	1ef2 <__ieee754_sqrt+0x22>
    1ef0:	e0b7      	b.n	2062 <STACK_SIZE+0x62>
    1ef2:	2e00      	cmp	r6, #0
    1ef4:	dc00      	bgt.n	1ef8 <__ieee754_sqrt+0x28>
    1ef6:	e093      	b.n	2020 <STACK_SIZE+0x20>
    1ef8:	1531      	asrs	r1, r6, #20
    1efa:	d100      	bne.n	1efe <__ieee754_sqrt+0x2e>
    1efc:	e0a0      	b.n	2040 <STACK_SIZE+0x40>
    1efe:	4b6d      	ldr	r3, [pc, #436]	; (20b4 <STACK_SIZE+0xb4>)
    1f00:	0312      	lsls	r2, r2, #12
    1f02:	18ce      	adds	r6, r1, r3
    1f04:	2380      	movs	r3, #128	; 0x80
    1f06:	0b12      	lsrs	r2, r2, #12
    1f08:	035b      	lsls	r3, r3, #13
    1f0a:	431a      	orrs	r2, r3
    1f0c:	07f3      	lsls	r3, r6, #31
    1f0e:	d500      	bpl.n	1f12 <__ieee754_sqrt+0x42>
    1f10:	e077      	b.n	2002 <STACK_SIZE+0x2>
    1f12:	1073      	asrs	r3, r6, #1
    1f14:	0052      	lsls	r2, r2, #1
    1f16:	4698      	mov	r8, r3
    1f18:	0fe3      	lsrs	r3, r4, #31
    1f1a:	18d3      	adds	r3, r2, r3
    1f1c:	2280      	movs	r2, #128	; 0x80
    1f1e:	2116      	movs	r1, #22
    1f20:	2700      	movs	r7, #0
    1f22:	2500      	movs	r5, #0
    1f24:	0064      	lsls	r4, r4, #1
    1f26:	0392      	lsls	r2, r2, #14
    1f28:	18a8      	adds	r0, r5, r2
    1f2a:	4298      	cmp	r0, r3
    1f2c:	dc02      	bgt.n	1f34 <__ieee754_sqrt+0x64>
    1f2e:	1885      	adds	r5, r0, r2
    1f30:	1a1b      	subs	r3, r3, r0
    1f32:	18bf      	adds	r7, r7, r2
    1f34:	0fe0      	lsrs	r0, r4, #31
    1f36:	005b      	lsls	r3, r3, #1
    1f38:	3901      	subs	r1, #1
    1f3a:	181b      	adds	r3, r3, r0
    1f3c:	0064      	lsls	r4, r4, #1
    1f3e:	0852      	lsrs	r2, r2, #1
    1f40:	2900      	cmp	r1, #0
    1f42:	d1f1      	bne.n	1f28 <__ieee754_sqrt+0x58>
    1f44:	2200      	movs	r2, #0
    1f46:	9201      	str	r2, [sp, #4]
    1f48:	4694      	mov	ip, r2
    1f4a:	2280      	movs	r2, #128	; 0x80
    1f4c:	0612      	lsls	r2, r2, #24
    1f4e:	2020      	movs	r0, #32
    1f50:	4692      	mov	sl, r2
    1f52:	e009      	b.n	1f68 <__ieee754_sqrt+0x98>
    1f54:	42ab      	cmp	r3, r5
    1f56:	d047      	beq.n	1fe8 <__ieee754_sqrt+0x118>
    1f58:	0fe1      	lsrs	r1, r4, #31
    1f5a:	005b      	lsls	r3, r3, #1
    1f5c:	3801      	subs	r0, #1
    1f5e:	185b      	adds	r3, r3, r1
    1f60:	0064      	lsls	r4, r4, #1
    1f62:	0852      	lsrs	r2, r2, #1
    1f64:	2800      	cmp	r0, #0
    1f66:	d01e      	beq.n	1fa6 <__ieee754_sqrt+0xd6>
    1f68:	4661      	mov	r1, ip
    1f6a:	1889      	adds	r1, r1, r2
    1f6c:	429d      	cmp	r5, r3
    1f6e:	daf1      	bge.n	1f54 <__ieee754_sqrt+0x84>
    1f70:	188e      	adds	r6, r1, r2
    1f72:	46b4      	mov	ip, r6
    1f74:	0fce      	lsrs	r6, r1, #31
    1f76:	07f6      	lsls	r6, r6, #31
    1f78:	46a9      	mov	r9, r5
    1f7a:	4556      	cmp	r6, sl
    1f7c:	d02e      	beq.n	1fdc <__ieee754_sqrt+0x10c>
    1f7e:	1b5b      	subs	r3, r3, r5
    1f80:	428c      	cmp	r4, r1
    1f82:	41ad      	sbcs	r5, r5
    1f84:	426d      	negs	r5, r5
    1f86:	1b5b      	subs	r3, r3, r5
    1f88:	1a64      	subs	r4, r4, r1
    1f8a:	9901      	ldr	r1, [sp, #4]
    1f8c:	005b      	lsls	r3, r3, #1
    1f8e:	468b      	mov	fp, r1
    1f90:	4493      	add	fp, r2
    1f92:	4659      	mov	r1, fp
    1f94:	3801      	subs	r0, #1
    1f96:	9101      	str	r1, [sp, #4]
    1f98:	0fe1      	lsrs	r1, r4, #31
    1f9a:	464d      	mov	r5, r9
    1f9c:	185b      	adds	r3, r3, r1
    1f9e:	0064      	lsls	r4, r4, #1
    1fa0:	0852      	lsrs	r2, r2, #1
    1fa2:	2800      	cmp	r0, #0
    1fa4:	d1e0      	bne.n	1f68 <__ieee754_sqrt+0x98>
    1fa6:	4323      	orrs	r3, r4
    1fa8:	d130      	bne.n	200c <STACK_SIZE+0xc>
    1faa:	9b01      	ldr	r3, [sp, #4]
    1fac:	085b      	lsrs	r3, r3, #1
    1fae:	4942      	ldr	r1, [pc, #264]	; (20b8 <STACK_SIZE+0xb8>)
    1fb0:	107a      	asrs	r2, r7, #1
    1fb2:	468c      	mov	ip, r1
    1fb4:	4462      	add	r2, ip
    1fb6:	07f9      	lsls	r1, r7, #31
    1fb8:	d502      	bpl.n	1fc0 <__ieee754_sqrt+0xf0>
    1fba:	2180      	movs	r1, #128	; 0x80
    1fbc:	0609      	lsls	r1, r1, #24
    1fbe:	430b      	orrs	r3, r1
    1fc0:	4641      	mov	r1, r8
    1fc2:	050e      	lsls	r6, r1, #20
    1fc4:	18b1      	adds	r1, r6, r2
    1fc6:	1c1d      	adds	r5, r3, #0
    1fc8:	1c0e      	adds	r6, r1, #0
    1fca:	1c28      	adds	r0, r5, #0
    1fcc:	1c31      	adds	r1, r6, #0
    1fce:	b003      	add	sp, #12
    1fd0:	bc3c      	pop	{r2, r3, r4, r5}
    1fd2:	4690      	mov	r8, r2
    1fd4:	4699      	mov	r9, r3
    1fd6:	46a2      	mov	sl, r4
    1fd8:	46ab      	mov	fp, r5
    1fda:	bdf0      	pop	{r4, r5, r6, r7, pc}
    1fdc:	4666      	mov	r6, ip
    1fde:	2e00      	cmp	r6, #0
    1fe0:	dbcd      	blt.n	1f7e <__ieee754_sqrt+0xae>
    1fe2:	1c6e      	adds	r6, r5, #1
    1fe4:	46b1      	mov	r9, r6
    1fe6:	e7ca      	b.n	1f7e <__ieee754_sqrt+0xae>
    1fe8:	42a1      	cmp	r1, r4
    1fea:	d808      	bhi.n	1ffe <__ieee754_sqrt+0x12e>
    1fec:	188e      	adds	r6, r1, r2
    1fee:	46b4      	mov	ip, r6
    1ff0:	0fce      	lsrs	r6, r1, #31
    1ff2:	07f6      	lsls	r6, r6, #31
    1ff4:	4556      	cmp	r6, sl
    1ff6:	d041      	beq.n	207c <STACK_SIZE+0x7c>
    1ff8:	4699      	mov	r9, r3
    1ffa:	2300      	movs	r3, #0
    1ffc:	e7c4      	b.n	1f88 <__ieee754_sqrt+0xb8>
    1ffe:	1c1d      	adds	r5, r3, #0
    2000:	e7aa      	b.n	1f58 <__ieee754_sqrt+0x88>
    2002:	0fe3      	lsrs	r3, r4, #31
    2004:	0052      	lsls	r2, r2, #1
    2006:	18d2      	adds	r2, r2, r3
    2008:	0064      	lsls	r4, r4, #1
    200a:	e782      	b.n	1f12 <__ieee754_sqrt+0x42>
    200c:	9b01      	ldr	r3, [sp, #4]
    200e:	3301      	adds	r3, #1
    2010:	d03a      	beq.n	2088 <STACK_SIZE+0x88>
    2012:	9a01      	ldr	r2, [sp, #4]
    2014:	2301      	movs	r3, #1
    2016:	4694      	mov	ip, r2
    2018:	4013      	ands	r3, r2
    201a:	4463      	add	r3, ip
    201c:	085b      	lsrs	r3, r3, #1
    201e:	e7c6      	b.n	1fae <__ieee754_sqrt+0xde>
    2020:	0073      	lsls	r3, r6, #1
    2022:	085b      	lsrs	r3, r3, #1
    2024:	4303      	orrs	r3, r0
    2026:	d0d0      	beq.n	1fca <__ieee754_sqrt+0xfa>
    2028:	2100      	movs	r1, #0
    202a:	2e00      	cmp	r6, #0
    202c:	d133      	bne.n	2096 <STACK_SIZE+0x96>
    202e:	0ae2      	lsrs	r2, r4, #11
    2030:	3915      	subs	r1, #21
    2032:	0564      	lsls	r4, r4, #21
    2034:	2a00      	cmp	r2, #0
    2036:	d0fa      	beq.n	202e <STACK_SIZE+0x2e>
    2038:	2380      	movs	r3, #128	; 0x80
    203a:	035b      	lsls	r3, r3, #13
    203c:	421a      	tst	r2, r3
    203e:	d126      	bne.n	208e <STACK_SIZE+0x8e>
    2040:	2080      	movs	r0, #128	; 0x80
    2042:	2300      	movs	r3, #0
    2044:	0340      	lsls	r0, r0, #13
    2046:	0052      	lsls	r2, r2, #1
    2048:	3301      	adds	r3, #1
    204a:	4202      	tst	r2, r0
    204c:	d0fb      	beq.n	2046 <STACK_SIZE+0x46>
    204e:	2501      	movs	r5, #1
    2050:	2020      	movs	r0, #32
    2052:	1aed      	subs	r5, r5, r3
    2054:	1ac0      	subs	r0, r0, r3
    2056:	1949      	adds	r1, r1, r5
    2058:	1c25      	adds	r5, r4, #0
    205a:	40c5      	lsrs	r5, r0
    205c:	409c      	lsls	r4, r3
    205e:	432a      	orrs	r2, r5
    2060:	e74d      	b.n	1efe <__ieee754_sqrt+0x2e>
    2062:	1c2a      	adds	r2, r5, #0
    2064:	1c33      	adds	r3, r6, #0
    2066:	1c28      	adds	r0, r5, #0
    2068:	1c31      	adds	r1, r6, #0
    206a:	f004 f8a1 	bl	61b0 <__aeabi_dmul>
    206e:	1c2a      	adds	r2, r5, #0
    2070:	1c33      	adds	r3, r6, #0
    2072:	f003 f937 	bl	52e4 <__aeabi_dadd>
    2076:	1c05      	adds	r5, r0, #0
    2078:	1c0e      	adds	r6, r1, #0
    207a:	e7a6      	b.n	1fca <__ieee754_sqrt+0xfa>
    207c:	4666      	mov	r6, ip
    207e:	2e00      	cmp	r6, #0
    2080:	daaf      	bge.n	1fe2 <__ieee754_sqrt+0x112>
    2082:	2300      	movs	r3, #0
    2084:	46a9      	mov	r9, r5
    2086:	e77f      	b.n	1f88 <__ieee754_sqrt+0xb8>
    2088:	3701      	adds	r7, #1
    208a:	2300      	movs	r3, #0
    208c:	e78f      	b.n	1fae <__ieee754_sqrt+0xde>
    208e:	2020      	movs	r0, #32
    2090:	2501      	movs	r5, #1
    2092:	2300      	movs	r3, #0
    2094:	e7df      	b.n	2056 <STACK_SIZE+0x56>
    2096:	1c2a      	adds	r2, r5, #0
    2098:	1c33      	adds	r3, r6, #0
    209a:	1c28      	adds	r0, r5, #0
    209c:	1c31      	adds	r1, r6, #0
    209e:	f004 fb21 	bl	66e4 <__aeabi_dsub>
    20a2:	1c02      	adds	r2, r0, #0
    20a4:	1c0b      	adds	r3, r1, #0
    20a6:	f003 fc45 	bl	5934 <__aeabi_ddiv>
    20aa:	1c05      	adds	r5, r0, #0
    20ac:	1c0e      	adds	r6, r1, #0
    20ae:	e78c      	b.n	1fca <__ieee754_sqrt+0xfa>
    20b0:	7ff00000 	.word	0x7ff00000
    20b4:	fffffc01 	.word	0xfffffc01
    20b8:	3fe00000 	.word	0x3fe00000

000020bc <fabs>:
    20bc:	0049      	lsls	r1, r1, #1
    20be:	084b      	lsrs	r3, r1, #1
    20c0:	1c19      	adds	r1, r3, #0
    20c2:	4770      	bx	lr

000020c4 <finite>:
    20c4:	4b03      	ldr	r3, [pc, #12]	; (20d4 <finite+0x10>)
    20c6:	0048      	lsls	r0, r1, #1
    20c8:	469c      	mov	ip, r3
    20ca:	0840      	lsrs	r0, r0, #1
    20cc:	4460      	add	r0, ip
    20ce:	0fc0      	lsrs	r0, r0, #31
    20d0:	4770      	bx	lr
    20d2:	46c0      	nop			; (mov r8, r8)
    20d4:	80100000 	.word	0x80100000

000020d8 <__fpclassifyd>:
    20d8:	1c0a      	adds	r2, r1, #0
    20da:	1c03      	adds	r3, r0, #0
    20dc:	4302      	orrs	r2, r0
    20de:	b530      	push	{r4, r5, lr}
    20e0:	2002      	movs	r0, #2
    20e2:	2a00      	cmp	r2, #0
    20e4:	d100      	bne.n	20e8 <__fpclassifyd+0x10>
    20e6:	bd30      	pop	{r4, r5, pc}
    20e8:	2280      	movs	r2, #128	; 0x80
    20ea:	0612      	lsls	r2, r2, #24
    20ec:	4291      	cmp	r1, r2
    20ee:	d016      	beq.n	211e <__fpclassifyd+0x46>
    20f0:	4a0c      	ldr	r2, [pc, #48]	; (2124 <__fpclassifyd+0x4c>)
    20f2:	2004      	movs	r0, #4
    20f4:	188c      	adds	r4, r1, r2
    20f6:	4a0c      	ldr	r2, [pc, #48]	; (2128 <__fpclassifyd+0x50>)
    20f8:	4294      	cmp	r4, r2
    20fa:	d9f4      	bls.n	20e6 <__fpclassifyd+0xe>
    20fc:	4c0b      	ldr	r4, [pc, #44]	; (212c <__fpclassifyd+0x54>)
    20fe:	190c      	adds	r4, r1, r4
    2100:	4294      	cmp	r4, r2
    2102:	d9f0      	bls.n	20e6 <__fpclassifyd+0xe>
    2104:	4a0a      	ldr	r2, [pc, #40]	; (2130 <__fpclassifyd+0x58>)
    2106:	0049      	lsls	r1, r1, #1
    2108:	0849      	lsrs	r1, r1, #1
    210a:	2003      	movs	r0, #3
    210c:	4291      	cmp	r1, r2
    210e:	d9ea      	bls.n	20e6 <__fpclassifyd+0xe>
    2110:	4a06      	ldr	r2, [pc, #24]	; (212c <__fpclassifyd+0x54>)
    2112:	2000      	movs	r0, #0
    2114:	4291      	cmp	r1, r2
    2116:	d1e6      	bne.n	20e6 <__fpclassifyd+0xe>
    2118:	4258      	negs	r0, r3
    211a:	4158      	adcs	r0, r3
    211c:	e7e3      	b.n	20e6 <__fpclassifyd+0xe>
    211e:	2b00      	cmp	r3, #0
    2120:	d0e1      	beq.n	20e6 <__fpclassifyd+0xe>
    2122:	e7ef      	b.n	2104 <__fpclassifyd+0x2c>
    2124:	fff00000 	.word	0xfff00000
    2128:	7fdfffff 	.word	0x7fdfffff
    212c:	7ff00000 	.word	0x7ff00000
    2130:	000fffff 	.word	0x000fffff

00002134 <matherr>:
    2134:	2000      	movs	r0, #0
    2136:	4770      	bx	lr

00002138 <nan>:
    2138:	2000      	movs	r0, #0
    213a:	4901      	ldr	r1, [pc, #4]	; (2140 <nan+0x8>)
    213c:	4770      	bx	lr
    213e:	46c0      	nop			; (mov r8, r8)
    2140:	7ff80000 	.word	0x7ff80000

00002144 <rint>:
    2144:	b5f0      	push	{r4, r5, r6, r7, lr}
    2146:	4647      	mov	r7, r8
    2148:	b480      	push	{r7}
    214a:	004b      	lsls	r3, r1, #1
    214c:	4a4a      	ldr	r2, [pc, #296]	; (2278 <rint+0x134>)
    214e:	0d5b      	lsrs	r3, r3, #21
    2150:	189d      	adds	r5, r3, r2
    2152:	b082      	sub	sp, #8
    2154:	1c07      	adds	r7, r0, #0
    2156:	1c0c      	adds	r4, r1, #0
    2158:	0fce      	lsrs	r6, r1, #31
    215a:	2d13      	cmp	r5, #19
    215c:	dc39      	bgt.n	21d2 <rint+0x8e>
    215e:	2d00      	cmp	r5, #0
    2160:	db59      	blt.n	2216 <rint+0xd2>
    2162:	4f46      	ldr	r7, [pc, #280]	; (227c <rint+0x138>)
    2164:	1c02      	adds	r2, r0, #0
    2166:	412f      	asrs	r7, r5
    2168:	1c3b      	adds	r3, r7, #0
    216a:	400b      	ands	r3, r1
    216c:	4303      	orrs	r3, r0
    216e:	469c      	mov	ip, r3
    2170:	46b8      	mov	r8, r7
    2172:	4667      	mov	r7, ip
    2174:	1c0b      	adds	r3, r1, #0
    2176:	2f00      	cmp	r7, #0
    2178:	d025      	beq.n	21c6 <rint+0x82>
    217a:	4643      	mov	r3, r8
    217c:	085b      	lsrs	r3, r3, #1
    217e:	1c1a      	adds	r2, r3, #0
    2180:	400a      	ands	r2, r1
    2182:	4310      	orrs	r0, r2
    2184:	2700      	movs	r7, #0
    2186:	2800      	cmp	r0, #0
    2188:	d008      	beq.n	219c <rint+0x58>
    218a:	2d13      	cmp	r5, #19
    218c:	d100      	bne.n	2190 <rint+0x4c>
    218e:	e06f      	b.n	2270 <rint+0x12c>
    2190:	4399      	bics	r1, r3
    2192:	2380      	movs	r3, #128	; 0x80
    2194:	02db      	lsls	r3, r3, #11
    2196:	412b      	asrs	r3, r5
    2198:	4319      	orrs	r1, r3
    219a:	1c0c      	adds	r4, r1, #0
    219c:	4938      	ldr	r1, [pc, #224]	; (2280 <rint+0x13c>)
    219e:	00f6      	lsls	r6, r6, #3
    21a0:	198e      	adds	r6, r1, r6
    21a2:	1c23      	adds	r3, r4, #0
    21a4:	6834      	ldr	r4, [r6, #0]
    21a6:	6875      	ldr	r5, [r6, #4]
    21a8:	1c3a      	adds	r2, r7, #0
    21aa:	1c20      	adds	r0, r4, #0
    21ac:	1c29      	adds	r1, r5, #0
    21ae:	f003 f899 	bl	52e4 <__aeabi_dadd>
    21b2:	9000      	str	r0, [sp, #0]
    21b4:	9101      	str	r1, [sp, #4]
    21b6:	9800      	ldr	r0, [sp, #0]
    21b8:	9901      	ldr	r1, [sp, #4]
    21ba:	1c22      	adds	r2, r4, #0
    21bc:	1c2b      	adds	r3, r5, #0
    21be:	f004 fa91 	bl	66e4 <__aeabi_dsub>
    21c2:	1c02      	adds	r2, r0, #0
    21c4:	1c0b      	adds	r3, r1, #0
    21c6:	1c10      	adds	r0, r2, #0
    21c8:	1c19      	adds	r1, r3, #0
    21ca:	b002      	add	sp, #8
    21cc:	bc04      	pop	{r2}
    21ce:	4690      	mov	r8, r2
    21d0:	bdf0      	pop	{r4, r5, r6, r7, pc}
    21d2:	2d33      	cmp	r5, #51	; 0x33
    21d4:	dd0b      	ble.n	21ee <rint+0xaa>
    21d6:	1c0b      	adds	r3, r1, #0
    21d8:	2180      	movs	r1, #128	; 0x80
    21da:	1c02      	adds	r2, r0, #0
    21dc:	00c9      	lsls	r1, r1, #3
    21de:	428d      	cmp	r5, r1
    21e0:	d1f1      	bne.n	21c6 <rint+0x82>
    21e2:	1c21      	adds	r1, r4, #0
    21e4:	f003 f87e 	bl	52e4 <__aeabi_dadd>
    21e8:	1c02      	adds	r2, r0, #0
    21ea:	1c0b      	adds	r3, r1, #0
    21ec:	e7eb      	b.n	21c6 <rint+0x82>
    21ee:	4a25      	ldr	r2, [pc, #148]	; (2284 <rint+0x140>)
    21f0:	189d      	adds	r5, r3, r2
    21f2:	2301      	movs	r3, #1
    21f4:	425b      	negs	r3, r3
    21f6:	40eb      	lsrs	r3, r5
    21f8:	469c      	mov	ip, r3
    21fa:	1c0b      	adds	r3, r1, #0
    21fc:	4661      	mov	r1, ip
    21fe:	1c02      	adds	r2, r0, #0
    2200:	4201      	tst	r1, r0
    2202:	d0e0      	beq.n	21c6 <rint+0x82>
    2204:	084b      	lsrs	r3, r1, #1
    2206:	4203      	tst	r3, r0
    2208:	d0c8      	beq.n	219c <rint+0x58>
    220a:	2780      	movs	r7, #128	; 0x80
    220c:	05ff      	lsls	r7, r7, #23
    220e:	412f      	asrs	r7, r5
    2210:	4398      	bics	r0, r3
    2212:	4307      	orrs	r7, r0
    2214:	e7c2      	b.n	219c <rint+0x58>
    2216:	004c      	lsls	r4, r1, #1
    2218:	0864      	lsrs	r4, r4, #1
    221a:	4304      	orrs	r4, r0
    221c:	1c02      	adds	r2, r0, #0
    221e:	1c0b      	adds	r3, r1, #0
    2220:	2c00      	cmp	r4, #0
    2222:	d0d0      	beq.n	21c6 <rint+0x82>
    2224:	0309      	lsls	r1, r1, #12
    2226:	0b09      	lsrs	r1, r1, #12
    2228:	4301      	orrs	r1, r0
    222a:	424a      	negs	r2, r1
    222c:	4311      	orrs	r1, r2
    222e:	2280      	movs	r2, #128	; 0x80
    2230:	0b09      	lsrs	r1, r1, #12
    2232:	0312      	lsls	r2, r2, #12
    2234:	0c5b      	lsrs	r3, r3, #17
    2236:	4011      	ands	r1, r2
    2238:	045b      	lsls	r3, r3, #17
    223a:	1c02      	adds	r2, r0, #0
    223c:	4319      	orrs	r1, r3
    223e:	4810      	ldr	r0, [pc, #64]	; (2280 <rint+0x13c>)
    2240:	1c0b      	adds	r3, r1, #0
    2242:	00f1      	lsls	r1, r6, #3
    2244:	1841      	adds	r1, r0, r1
    2246:	680c      	ldr	r4, [r1, #0]
    2248:	684d      	ldr	r5, [r1, #4]
    224a:	1c20      	adds	r0, r4, #0
    224c:	1c29      	adds	r1, r5, #0
    224e:	f003 f849 	bl	52e4 <__aeabi_dadd>
    2252:	9000      	str	r0, [sp, #0]
    2254:	9101      	str	r1, [sp, #4]
    2256:	9800      	ldr	r0, [sp, #0]
    2258:	9901      	ldr	r1, [sp, #4]
    225a:	1c22      	adds	r2, r4, #0
    225c:	1c2b      	adds	r3, r5, #0
    225e:	f004 fa41 	bl	66e4 <__aeabi_dsub>
    2262:	004b      	lsls	r3, r1, #1
    2264:	085b      	lsrs	r3, r3, #1
    2266:	07f6      	lsls	r6, r6, #31
    2268:	431e      	orrs	r6, r3
    226a:	1c02      	adds	r2, r0, #0
    226c:	1c33      	adds	r3, r6, #0
    226e:	e7aa      	b.n	21c6 <rint+0x82>
    2270:	2780      	movs	r7, #128	; 0x80
    2272:	063f      	lsls	r7, r7, #24
    2274:	e78c      	b.n	2190 <rint+0x4c>
    2276:	46c0      	nop			; (mov r8, r8)
    2278:	fffffc01 	.word	0xfffffc01
    227c:	000fffff 	.word	0x000fffff
    2280:	00007600 	.word	0x00007600
    2284:	fffffbed 	.word	0xfffffbed

00002288 <scalbn>:
    2288:	b5f8      	push	{r3, r4, r5, r6, r7, lr}
    228a:	4f31      	ldr	r7, [pc, #196]	; (2350 <scalbn+0xc8>)
    228c:	1c16      	adds	r6, r2, #0
    228e:	1c3b      	adds	r3, r7, #0
    2290:	400b      	ands	r3, r1
    2292:	1c04      	adds	r4, r0, #0
    2294:	1c0d      	adds	r5, r1, #0
    2296:	1c0a      	adds	r2, r1, #0
    2298:	151b      	asrs	r3, r3, #20
    229a:	d120      	bne.n	22de <scalbn+0x56>
    229c:	004b      	lsls	r3, r1, #1
    229e:	085b      	lsrs	r3, r3, #1
    22a0:	4303      	orrs	r3, r0
    22a2:	d01b      	beq.n	22dc <scalbn+0x54>
    22a4:	2200      	movs	r2, #0
    22a6:	4b2b      	ldr	r3, [pc, #172]	; (2354 <scalbn+0xcc>)
    22a8:	f003 ff82 	bl	61b0 <__aeabi_dmul>
    22ac:	4b2a      	ldr	r3, [pc, #168]	; (2358 <scalbn+0xd0>)
    22ae:	1c04      	adds	r4, r0, #0
    22b0:	1c0d      	adds	r5, r1, #0
    22b2:	1c0a      	adds	r2, r1, #0
    22b4:	429e      	cmp	r6, r3
    22b6:	db22      	blt.n	22fe <scalbn+0x76>
    22b8:	400f      	ands	r7, r1
    22ba:	153f      	asrs	r7, r7, #20
    22bc:	1c3b      	adds	r3, r7, #0
    22be:	4927      	ldr	r1, [pc, #156]	; (235c <scalbn+0xd4>)
    22c0:	3b36      	subs	r3, #54	; 0x36
    22c2:	199b      	adds	r3, r3, r6
    22c4:	428b      	cmp	r3, r1
    22c6:	dd11      	ble.n	22ec <scalbn+0x64>
    22c8:	1c22      	adds	r2, r4, #0
    22ca:	1c2b      	adds	r3, r5, #0
    22cc:	4824      	ldr	r0, [pc, #144]	; (2360 <scalbn+0xd8>)
    22ce:	4925      	ldr	r1, [pc, #148]	; (2364 <scalbn+0xdc>)
    22d0:	f000 f856 	bl	2380 <copysign>
    22d4:	4a22      	ldr	r2, [pc, #136]	; (2360 <scalbn+0xd8>)
    22d6:	4b23      	ldr	r3, [pc, #140]	; (2364 <scalbn+0xdc>)
    22d8:	f003 ff6a 	bl	61b0 <__aeabi_dmul>
    22dc:	bdf8      	pop	{r3, r4, r5, r6, r7, pc}
    22de:	4922      	ldr	r1, [pc, #136]	; (2368 <scalbn+0xe0>)
    22e0:	428b      	cmp	r3, r1
    22e2:	d022      	beq.n	232a <scalbn+0xa2>
    22e4:	491d      	ldr	r1, [pc, #116]	; (235c <scalbn+0xd4>)
    22e6:	199b      	adds	r3, r3, r6
    22e8:	428b      	cmp	r3, r1
    22ea:	dced      	bgt.n	22c8 <scalbn+0x40>
    22ec:	2b00      	cmp	r3, #0
    22ee:	dd0b      	ble.n	2308 <scalbn+0x80>
    22f0:	491e      	ldr	r1, [pc, #120]	; (236c <scalbn+0xe4>)
    22f2:	051b      	lsls	r3, r3, #20
    22f4:	400a      	ands	r2, r1
    22f6:	4313      	orrs	r3, r2
    22f8:	1c20      	adds	r0, r4, #0
    22fa:	1c19      	adds	r1, r3, #0
    22fc:	e7ee      	b.n	22dc <scalbn+0x54>
    22fe:	4a1c      	ldr	r2, [pc, #112]	; (2370 <scalbn+0xe8>)
    2300:	4b1c      	ldr	r3, [pc, #112]	; (2374 <scalbn+0xec>)
    2302:	f003 ff55 	bl	61b0 <__aeabi_dmul>
    2306:	e7e9      	b.n	22dc <scalbn+0x54>
    2308:	1c19      	adds	r1, r3, #0
    230a:	3135      	adds	r1, #53	; 0x35
    230c:	da13      	bge.n	2336 <scalbn+0xae>
    230e:	4b1a      	ldr	r3, [pc, #104]	; (2378 <scalbn+0xf0>)
    2310:	429e      	cmp	r6, r3
    2312:	dcd9      	bgt.n	22c8 <scalbn+0x40>
    2314:	1c22      	adds	r2, r4, #0
    2316:	1c2b      	adds	r3, r5, #0
    2318:	4815      	ldr	r0, [pc, #84]	; (2370 <scalbn+0xe8>)
    231a:	4916      	ldr	r1, [pc, #88]	; (2374 <scalbn+0xec>)
    231c:	f000 f830 	bl	2380 <copysign>
    2320:	4a13      	ldr	r2, [pc, #76]	; (2370 <scalbn+0xe8>)
    2322:	4b14      	ldr	r3, [pc, #80]	; (2374 <scalbn+0xec>)
    2324:	f003 ff44 	bl	61b0 <__aeabi_dmul>
    2328:	e7d8      	b.n	22dc <scalbn+0x54>
    232a:	1c29      	adds	r1, r5, #0
    232c:	1c22      	adds	r2, r4, #0
    232e:	1c2b      	adds	r3, r5, #0
    2330:	f002 ffd8 	bl	52e4 <__aeabi_dadd>
    2334:	e7d2      	b.n	22dc <scalbn+0x54>
    2336:	490d      	ldr	r1, [pc, #52]	; (236c <scalbn+0xe4>)
    2338:	3336      	adds	r3, #54	; 0x36
    233a:	400a      	ands	r2, r1
    233c:	051b      	lsls	r3, r3, #20
    233e:	4313      	orrs	r3, r2
    2340:	1c20      	adds	r0, r4, #0
    2342:	1c19      	adds	r1, r3, #0
    2344:	2200      	movs	r2, #0
    2346:	4b0d      	ldr	r3, [pc, #52]	; (237c <scalbn+0xf4>)
    2348:	f003 ff32 	bl	61b0 <__aeabi_dmul>
    234c:	e7c6      	b.n	22dc <scalbn+0x54>
    234e:	46c0      	nop			; (mov r8, r8)
    2350:	7ff00000 	.word	0x7ff00000
    2354:	43500000 	.word	0x43500000
    2358:	ffff3cb0 	.word	0xffff3cb0
    235c:	000007fe 	.word	0x000007fe
    2360:	8800759c 	.word	0x8800759c
    2364:	7e37e43c 	.word	0x7e37e43c
    2368:	000007ff 	.word	0x000007ff
    236c:	800fffff 	.word	0x800fffff
    2370:	c2f8f359 	.word	0xc2f8f359
    2374:	01a56e1f 	.word	0x01a56e1f
    2378:	0000c350 	.word	0x0000c350
    237c:	3c900000 	.word	0x3c900000

00002380 <copysign>:
    2380:	b530      	push	{r4, r5, lr}
    2382:	004a      	lsls	r2, r1, #1
    2384:	0fdb      	lsrs	r3, r3, #31
    2386:	0852      	lsrs	r2, r2, #1
    2388:	07db      	lsls	r3, r3, #31
    238a:	4313      	orrs	r3, r2
    238c:	1c19      	adds	r1, r3, #0
    238e:	bd30      	pop	{r4, r5, pc}

00002390 <atof>:
    2390:	b508      	push	{r3, lr}
    2392:	2100      	movs	r1, #0
    2394:	f000 fea2 	bl	30dc <strtod>
    2398:	bd08      	pop	{r3, pc}

0000239a <atol>:
    239a:	b508      	push	{r3, lr}
    239c:	2100      	movs	r1, #0
    239e:	220a      	movs	r2, #10
    23a0:	f000 ff38 	bl	3214 <strtol>
    23a4:	bd08      	pop	{r3, pc}
	...

000023a8 <__errno>:
    23a8:	4b01      	ldr	r3, [pc, #4]	; (23b0 <__errno+0x8>)
    23aa:	6818      	ldr	r0, [r3, #0]
    23ac:	4770      	bx	lr
    23ae:	46c0      	nop			; (mov r8, r8)
    23b0:	20000070 	.word	0x20000070

000023b4 <__libc_init_array>:
    23b4:	4b0e      	ldr	r3, [pc, #56]	; (23f0 <__libc_init_array+0x3c>)
    23b6:	b570      	push	{r4, r5, r6, lr}
    23b8:	2500      	movs	r5, #0
    23ba:	1c1e      	adds	r6, r3, #0
    23bc:	4c0d      	ldr	r4, [pc, #52]	; (23f4 <__libc_init_array+0x40>)
    23be:	1ae4      	subs	r4, r4, r3
    23c0:	10a4      	asrs	r4, r4, #2
    23c2:	42a5      	cmp	r5, r4
    23c4:	d004      	beq.n	23d0 <__libc_init_array+0x1c>
    23c6:	00ab      	lsls	r3, r5, #2
    23c8:	58f3      	ldr	r3, [r6, r3]
    23ca:	4798      	blx	r3
    23cc:	3501      	adds	r5, #1
    23ce:	e7f8      	b.n	23c2 <__libc_init_array+0xe>
    23d0:	f005 fb24 	bl	7a1c <_init>
    23d4:	4b08      	ldr	r3, [pc, #32]	; (23f8 <__libc_init_array+0x44>)
    23d6:	2500      	movs	r5, #0
    23d8:	1c1e      	adds	r6, r3, #0
    23da:	4c08      	ldr	r4, [pc, #32]	; (23fc <__libc_init_array+0x48>)
    23dc:	1ae4      	subs	r4, r4, r3
    23de:	10a4      	asrs	r4, r4, #2
    23e0:	42a5      	cmp	r5, r4
    23e2:	d004      	beq.n	23ee <__libc_init_array+0x3a>
    23e4:	00ab      	lsls	r3, r5, #2
    23e6:	58f3      	ldr	r3, [r6, r3]
    23e8:	4798      	blx	r3
    23ea:	3501      	adds	r5, #1
    23ec:	e7f8      	b.n	23e0 <__libc_init_array+0x2c>
    23ee:	bd70      	pop	{r4, r5, r6, pc}
    23f0:	00007a28 	.word	0x00007a28
    23f4:	00007a28 	.word	0x00007a28
    23f8:	00007a28 	.word	0x00007a28
    23fc:	00007a2c 	.word	0x00007a2c

00002400 <memset>:
    2400:	1c03      	adds	r3, r0, #0
    2402:	1882      	adds	r2, r0, r2
    2404:	4293      	cmp	r3, r2
    2406:	d002      	beq.n	240e <memset+0xe>
    2408:	7019      	strb	r1, [r3, #0]
    240a:	3301      	adds	r3, #1
    240c:	e7fa      	b.n	2404 <memset+0x4>
    240e:	4770      	bx	lr

00002410 <strchr>:
    2410:	1c02      	adds	r2, r0, #0
    2412:	b2c9      	uxtb	r1, r1
    2414:	7813      	ldrb	r3, [r2, #0]
    2416:	2b00      	cmp	r3, #0
    2418:	d003      	beq.n	2422 <strchr+0x12>
    241a:	428b      	cmp	r3, r1
    241c:	d004      	beq.n	2428 <strchr+0x18>
    241e:	3201      	adds	r2, #1
    2420:	e7f8      	b.n	2414 <strchr+0x4>
    2422:	1c18      	adds	r0, r3, #0
    2424:	2900      	cmp	r1, #0
    2426:	d100      	bne.n	242a <strchr+0x1a>
    2428:	1c10      	adds	r0, r2, #0
    242a:	4770      	bx	lr

0000242c <strncpy>:
    242c:	1c03      	adds	r3, r0, #0
    242e:	b530      	push	{r4, r5, lr}
    2430:	2a00      	cmp	r2, #0
    2432:	d007      	beq.n	2444 <strncpy+0x18>
    2434:	780c      	ldrb	r4, [r1, #0]
    2436:	3301      	adds	r3, #1
    2438:	1e5d      	subs	r5, r3, #1
    243a:	3a01      	subs	r2, #1
    243c:	702c      	strb	r4, [r5, #0]
    243e:	3101      	adds	r1, #1
    2440:	2c00      	cmp	r4, #0
    2442:	d1f5      	bne.n	2430 <strncpy+0x4>
    2444:	189a      	adds	r2, r3, r2
    2446:	4293      	cmp	r3, r2
    2448:	d003      	beq.n	2452 <strncpy+0x26>
    244a:	2100      	movs	r1, #0
    244c:	7019      	strb	r1, [r3, #0]
    244e:	3301      	adds	r3, #1
    2450:	e7f9      	b.n	2446 <strncpy+0x1a>
    2452:	bd30      	pop	{r4, r5, pc}

00002454 <match>:
    2454:	b530      	push	{r4, r5, lr}
    2456:	6803      	ldr	r3, [r0, #0]
    2458:	780c      	ldrb	r4, [r1, #0]
    245a:	3301      	adds	r3, #1
    245c:	2c00      	cmp	r4, #0
    245e:	d00a      	beq.n	2476 <match+0x22>
    2460:	781a      	ldrb	r2, [r3, #0]
    2462:	1c15      	adds	r5, r2, #0
    2464:	3d41      	subs	r5, #65	; 0x41
    2466:	2d19      	cmp	r5, #25
    2468:	d800      	bhi.n	246c <match+0x18>
    246a:	3220      	adds	r2, #32
    246c:	3101      	adds	r1, #1
    246e:	42a2      	cmp	r2, r4
    2470:	d0f2      	beq.n	2458 <match+0x4>
    2472:	2000      	movs	r0, #0
    2474:	e001      	b.n	247a <match+0x26>
    2476:	6003      	str	r3, [r0, #0]
    2478:	2001      	movs	r0, #1
    247a:	bd30      	pop	{r4, r5, pc}

0000247c <sulp>:
    247c:	b570      	push	{r4, r5, r6, lr}
    247e:	1c16      	adds	r6, r2, #0
    2480:	1c0d      	adds	r5, r1, #0
    2482:	f001 fcd1 	bl	3e28 <__ulp>
    2486:	2e00      	cmp	r6, #0
    2488:	d00b      	beq.n	24a2 <sulp+0x26>
    248a:	226b      	movs	r2, #107	; 0x6b
    248c:	006b      	lsls	r3, r5, #1
    248e:	0d5b      	lsrs	r3, r3, #21
    2490:	1ad3      	subs	r3, r2, r3
    2492:	2b00      	cmp	r3, #0
    2494:	dd05      	ble.n	24a2 <sulp+0x26>
    2496:	4d03      	ldr	r5, [pc, #12]	; (24a4 <sulp+0x28>)
    2498:	051c      	lsls	r4, r3, #20
    249a:	2200      	movs	r2, #0
    249c:	1963      	adds	r3, r4, r5
    249e:	f003 fe87 	bl	61b0 <__aeabi_dmul>
    24a2:	bd70      	pop	{r4, r5, r6, pc}
    24a4:	3ff00000 	.word	0x3ff00000

000024a8 <_strtod_r>:
    24a8:	2300      	movs	r3, #0
    24aa:	b5f0      	push	{r4, r5, r6, r7, lr}
    24ac:	b0a3      	sub	sp, #140	; 0x8c
    24ae:	931e      	str	r3, [sp, #120]	; 0x78
    24b0:	2600      	movs	r6, #0
    24b2:	2700      	movs	r7, #0
    24b4:	1c0b      	adds	r3, r1, #0
    24b6:	9003      	str	r0, [sp, #12]
    24b8:	9106      	str	r1, [sp, #24]
    24ba:	9219      	str	r2, [sp, #100]	; 0x64
    24bc:	931d      	str	r3, [sp, #116]	; 0x74
    24be:	9b1d      	ldr	r3, [sp, #116]	; 0x74
    24c0:	781a      	ldrb	r2, [r3, #0]
    24c2:	2a0d      	cmp	r2, #13
    24c4:	d805      	bhi.n	24d2 <_strtod_r+0x2a>
    24c6:	2a09      	cmp	r2, #9
    24c8:	d214      	bcs.n	24f4 <_strtod_r+0x4c>
    24ca:	2a00      	cmp	r2, #0
    24cc:	d100      	bne.n	24d0 <_strtod_r+0x28>
    24ce:	e1c3      	b.n	2858 <_strtod_r+0x3b0>
    24d0:	e012      	b.n	24f8 <_strtod_r+0x50>
    24d2:	2a2b      	cmp	r2, #43	; 0x2b
    24d4:	d006      	beq.n	24e4 <_strtod_r+0x3c>
    24d6:	2a2d      	cmp	r2, #45	; 0x2d
    24d8:	d002      	beq.n	24e0 <_strtod_r+0x38>
    24da:	2a20      	cmp	r2, #32
    24dc:	d10c      	bne.n	24f8 <_strtod_r+0x50>
    24de:	e009      	b.n	24f4 <_strtod_r+0x4c>
    24e0:	2201      	movs	r2, #1
    24e2:	e000      	b.n	24e6 <_strtod_r+0x3e>
    24e4:	2200      	movs	r2, #0
    24e6:	920d      	str	r2, [sp, #52]	; 0x34
    24e8:	1c5a      	adds	r2, r3, #1
    24ea:	921d      	str	r2, [sp, #116]	; 0x74
    24ec:	785b      	ldrb	r3, [r3, #1]
    24ee:	2b00      	cmp	r3, #0
    24f0:	d104      	bne.n	24fc <_strtod_r+0x54>
    24f2:	e1b1      	b.n	2858 <_strtod_r+0x3b0>
    24f4:	3301      	adds	r3, #1
    24f6:	e7e1      	b.n	24bc <_strtod_r+0x14>
    24f8:	2300      	movs	r3, #0
    24fa:	930d      	str	r3, [sp, #52]	; 0x34
    24fc:	2200      	movs	r2, #0
    24fe:	9d1d      	ldr	r5, [sp, #116]	; 0x74
    2500:	920a      	str	r2, [sp, #40]	; 0x28
    2502:	782b      	ldrb	r3, [r5, #0]
    2504:	2b30      	cmp	r3, #48	; 0x30
    2506:	d15d      	bne.n	25c4 <_strtod_r+0x11c>
    2508:	786b      	ldrb	r3, [r5, #1]
    250a:	2b58      	cmp	r3, #88	; 0x58
    250c:	d001      	beq.n	2512 <_strtod_r+0x6a>
    250e:	2b78      	cmp	r3, #120	; 0x78
    2510:	d14c      	bne.n	25ac <_strtod_r+0x104>
    2512:	ab1e      	add	r3, sp, #120	; 0x78
    2514:	9300      	str	r3, [sp, #0]
    2516:	9b0d      	ldr	r3, [sp, #52]	; 0x34
    2518:	9803      	ldr	r0, [sp, #12]
    251a:	9301      	str	r3, [sp, #4]
    251c:	a91d      	add	r1, sp, #116	; 0x74
    251e:	4ac2      	ldr	r2, [pc, #776]	; (2828 <_strtod_r+0x380>)
    2520:	ab1f      	add	r3, sp, #124	; 0x7c
    2522:	f000 fece 	bl	32c2 <__gethex>
    2526:	2407      	movs	r4, #7
    2528:	9004      	str	r0, [sp, #16]
    252a:	4004      	ands	r4, r0
    252c:	d101      	bne.n	2532 <_strtod_r+0x8a>
    252e:	f000 fda7 	bl	3080 <_strtod_r+0xbd8>
    2532:	2c06      	cmp	r4, #6
    2534:	d105      	bne.n	2542 <_strtod_r+0x9a>
    2536:	2300      	movs	r3, #0
    2538:	3501      	adds	r5, #1
    253a:	951d      	str	r5, [sp, #116]	; 0x74
    253c:	930d      	str	r3, [sp, #52]	; 0x34
    253e:	f000 fd9f 	bl	3080 <_strtod_r+0xbd8>
    2542:	9a1e      	ldr	r2, [sp, #120]	; 0x78
    2544:	2a00      	cmp	r2, #0
    2546:	d007      	beq.n	2558 <_strtod_r+0xb0>
    2548:	a820      	add	r0, sp, #128	; 0x80
    254a:	2135      	movs	r1, #53	; 0x35
    254c:	f001 fd60 	bl	4010 <__copybits>
    2550:	9803      	ldr	r0, [sp, #12]
    2552:	991e      	ldr	r1, [sp, #120]	; 0x78
    2554:	f001 f9c9 	bl	38ea <_Bfree>
    2558:	9b1f      	ldr	r3, [sp, #124]	; 0x7c
    255a:	2c06      	cmp	r4, #6
    255c:	d81c      	bhi.n	2598 <_strtod_r+0xf0>
    255e:	1c20      	adds	r0, r4, #0
    2560:	f001 fe2c 	bl	41bc <__gnu_thumb1_case_uqi>
    2564:	14070a04 	.word	0x14070a04
    2568:	0a17      	.short	0x0a17
    256a:	04          	.byte	0x04
    256b:	00          	.byte	0x00
    256c:	2700      	movs	r7, #0
    256e:	1c3e      	adds	r6, r7, #0
    2570:	e012      	b.n	2598 <_strtod_r+0xf0>
    2572:	9e20      	ldr	r6, [sp, #128]	; 0x80
    2574:	9f21      	ldr	r7, [sp, #132]	; 0x84
    2576:	e00f      	b.n	2598 <_strtod_r+0xf0>
    2578:	4aac      	ldr	r2, [pc, #688]	; (282c <_strtod_r+0x384>)
    257a:	9921      	ldr	r1, [sp, #132]	; 0x84
    257c:	189b      	adds	r3, r3, r2
    257e:	4aac      	ldr	r2, [pc, #688]	; (2830 <_strtod_r+0x388>)
    2580:	051b      	lsls	r3, r3, #20
    2582:	400a      	ands	r2, r1
    2584:	4313      	orrs	r3, r2
    2586:	9e20      	ldr	r6, [sp, #128]	; 0x80
    2588:	1c1f      	adds	r7, r3, #0
    258a:	e005      	b.n	2598 <_strtod_r+0xf0>
    258c:	4fa9      	ldr	r7, [pc, #676]	; (2834 <_strtod_r+0x38c>)
    258e:	2600      	movs	r6, #0
    2590:	e002      	b.n	2598 <_strtod_r+0xf0>
    2592:	2601      	movs	r6, #1
    2594:	4fa8      	ldr	r7, [pc, #672]	; (2838 <_strtod_r+0x390>)
    2596:	4276      	negs	r6, r6
    2598:	9b04      	ldr	r3, [sp, #16]
    259a:	071b      	lsls	r3, r3, #28
    259c:	d401      	bmi.n	25a2 <_strtod_r+0xfa>
    259e:	f000 fd6f 	bl	3080 <_strtod_r+0xbd8>
    25a2:	2380      	movs	r3, #128	; 0x80
    25a4:	061b      	lsls	r3, r3, #24
    25a6:	431f      	orrs	r7, r3
    25a8:	f000 fd6a 	bl	3080 <_strtod_r+0xbd8>
    25ac:	9b1d      	ldr	r3, [sp, #116]	; 0x74
    25ae:	1c5a      	adds	r2, r3, #1
    25b0:	921d      	str	r2, [sp, #116]	; 0x74
    25b2:	785b      	ldrb	r3, [r3, #1]
    25b4:	2b30      	cmp	r3, #48	; 0x30
    25b6:	d0f9      	beq.n	25ac <_strtod_r+0x104>
    25b8:	2b00      	cmp	r3, #0
    25ba:	d101      	bne.n	25c0 <_strtod_r+0x118>
    25bc:	f000 fd60 	bl	3080 <_strtod_r+0xbd8>
    25c0:	2301      	movs	r3, #1
    25c2:	930a      	str	r3, [sp, #40]	; 0x28
    25c4:	9b1d      	ldr	r3, [sp, #116]	; 0x74
    25c6:	930c      	str	r3, [sp, #48]	; 0x30
    25c8:	2300      	movs	r3, #0
    25ca:	9305      	str	r3, [sp, #20]
    25cc:	9307      	str	r3, [sp, #28]
    25ce:	9304      	str	r3, [sp, #16]
    25d0:	9c1d      	ldr	r4, [sp, #116]	; 0x74
    25d2:	7823      	ldrb	r3, [r4, #0]
    25d4:	1c1a      	adds	r2, r3, #0
    25d6:	3a30      	subs	r2, #48	; 0x30
    25d8:	9308      	str	r3, [sp, #32]
    25da:	b2d3      	uxtb	r3, r2
    25dc:	2b09      	cmp	r3, #9
    25de:	d812      	bhi.n	2606 <_strtod_r+0x15e>
    25e0:	9904      	ldr	r1, [sp, #16]
    25e2:	230a      	movs	r3, #10
    25e4:	2908      	cmp	r1, #8
    25e6:	dc04      	bgt.n	25f2 <_strtod_r+0x14a>
    25e8:	9907      	ldr	r1, [sp, #28]
    25ea:	434b      	muls	r3, r1
    25ec:	18d3      	adds	r3, r2, r3
    25ee:	9307      	str	r3, [sp, #28]
    25f0:	e003      	b.n	25fa <_strtod_r+0x152>
    25f2:	9905      	ldr	r1, [sp, #20]
    25f4:	434b      	muls	r3, r1
    25f6:	18d3      	adds	r3, r2, r3
    25f8:	9305      	str	r3, [sp, #20]
    25fa:	9b04      	ldr	r3, [sp, #16]
    25fc:	3401      	adds	r4, #1
    25fe:	3301      	adds	r3, #1
    2600:	9304      	str	r3, [sp, #16]
    2602:	941d      	str	r4, [sp, #116]	; 0x74
    2604:	e7e4      	b.n	25d0 <_strtod_r+0x128>
    2606:	9803      	ldr	r0, [sp, #12]
    2608:	f001 f92a 	bl	3860 <_localeconv_r>
    260c:	6805      	ldr	r5, [r0, #0]
    260e:	9803      	ldr	r0, [sp, #12]
    2610:	f001 f926 	bl	3860 <_localeconv_r>
    2614:	6800      	ldr	r0, [r0, #0]
    2616:	f001 fdab 	bl	4170 <strlen>
    261a:	1c29      	adds	r1, r5, #0
    261c:	1c02      	adds	r2, r0, #0
    261e:	1c20      	adds	r0, r4, #0
    2620:	f001 fdad 	bl	417e <strncmp>
    2624:	1e05      	subs	r5, r0, #0
    2626:	d005      	beq.n	2634 <_strtod_r+0x18c>
    2628:	2000      	movs	r0, #0
    262a:	9b08      	ldr	r3, [sp, #32]
    262c:	9c04      	ldr	r4, [sp, #16]
    262e:	1c01      	adds	r1, r0, #0
    2630:	9008      	str	r0, [sp, #32]
    2632:	e05a      	b.n	26ea <_strtod_r+0x242>
    2634:	9803      	ldr	r0, [sp, #12]
    2636:	f001 f913 	bl	3860 <_localeconv_r>
    263a:	6800      	ldr	r0, [r0, #0]
    263c:	f001 fd98 	bl	4170 <strlen>
    2640:	9b1d      	ldr	r3, [sp, #116]	; 0x74
    2642:	9a04      	ldr	r2, [sp, #16]
    2644:	1818      	adds	r0, r3, r0
    2646:	901d      	str	r0, [sp, #116]	; 0x74
    2648:	7803      	ldrb	r3, [r0, #0]
    264a:	1e10      	subs	r0, r2, #0
    264c:	d141      	bne.n	26d2 <_strtod_r+0x22a>
    264e:	2b30      	cmp	r3, #48	; 0x30
    2650:	d105      	bne.n	265e <_strtod_r+0x1b6>
    2652:	9b1d      	ldr	r3, [sp, #116]	; 0x74
    2654:	3001      	adds	r0, #1
    2656:	1c5a      	adds	r2, r3, #1
    2658:	921d      	str	r2, [sp, #116]	; 0x74
    265a:	785b      	ldrb	r3, [r3, #1]
    265c:	e7f7      	b.n	264e <_strtod_r+0x1a6>
    265e:	1c1a      	adds	r2, r3, #0
    2660:	3a31      	subs	r2, #49	; 0x31
    2662:	2a08      	cmp	r2, #8
    2664:	d83d      	bhi.n	26e2 <_strtod_r+0x23a>
    2666:	1c01      	adds	r1, r0, #0
    2668:	2000      	movs	r0, #0
    266a:	1c04      	adds	r4, r0, #0
    266c:	9a1d      	ldr	r2, [sp, #116]	; 0x74
    266e:	920c      	str	r2, [sp, #48]	; 0x30
    2670:	3b30      	subs	r3, #48	; 0x30
    2672:	1c42      	adds	r2, r0, #1
    2674:	2b00      	cmp	r3, #0
    2676:	d026      	beq.n	26c6 <_strtod_r+0x21e>
    2678:	1889      	adds	r1, r1, r2
    267a:	1c22      	adds	r2, r4, #0
    267c:	1900      	adds	r0, r0, r4
    267e:	4282      	cmp	r2, r0
    2680:	d00f      	beq.n	26a2 <_strtod_r+0x1fa>
    2682:	3201      	adds	r2, #1
    2684:	1e54      	subs	r4, r2, #1
    2686:	2c08      	cmp	r4, #8
    2688:	dc04      	bgt.n	2694 <_strtod_r+0x1ec>
    268a:	240a      	movs	r4, #10
    268c:	9d07      	ldr	r5, [sp, #28]
    268e:	4365      	muls	r5, r4
    2690:	9507      	str	r5, [sp, #28]
    2692:	e7f4      	b.n	267e <_strtod_r+0x1d6>
    2694:	2a10      	cmp	r2, #16
    2696:	dcf2      	bgt.n	267e <_strtod_r+0x1d6>
    2698:	240a      	movs	r4, #10
    269a:	9d05      	ldr	r5, [sp, #20]
    269c:	4365      	muls	r5, r4
    269e:	9505      	str	r5, [sp, #20]
    26a0:	e7ed      	b.n	267e <_strtod_r+0x1d6>
    26a2:	1c54      	adds	r4, r2, #1
    26a4:	2a08      	cmp	r2, #8
    26a6:	dc06      	bgt.n	26b6 <_strtod_r+0x20e>
    26a8:	220a      	movs	r2, #10
    26aa:	9807      	ldr	r0, [sp, #28]
    26ac:	4342      	muls	r2, r0
    26ae:	18d3      	adds	r3, r2, r3
    26b0:	9307      	str	r3, [sp, #28]
    26b2:	2200      	movs	r2, #0
    26b4:	e007      	b.n	26c6 <_strtod_r+0x21e>
    26b6:	2200      	movs	r2, #0
    26b8:	2c10      	cmp	r4, #16
    26ba:	dc04      	bgt.n	26c6 <_strtod_r+0x21e>
    26bc:	200a      	movs	r0, #10
    26be:	9d05      	ldr	r5, [sp, #20]
    26c0:	4368      	muls	r0, r5
    26c2:	18c3      	adds	r3, r0, r3
    26c4:	9305      	str	r3, [sp, #20]
    26c6:	9b1d      	ldr	r3, [sp, #116]	; 0x74
    26c8:	1c58      	adds	r0, r3, #1
    26ca:	901d      	str	r0, [sp, #116]	; 0x74
    26cc:	785b      	ldrb	r3, [r3, #1]
    26ce:	1c10      	adds	r0, r2, #0
    26d0:	e002      	b.n	26d8 <_strtod_r+0x230>
    26d2:	1c28      	adds	r0, r5, #0
    26d4:	1c29      	adds	r1, r5, #0
    26d6:	9c04      	ldr	r4, [sp, #16]
    26d8:	1c1a      	adds	r2, r3, #0
    26da:	3a30      	subs	r2, #48	; 0x30
    26dc:	2a09      	cmp	r2, #9
    26de:	d9c7      	bls.n	2670 <_strtod_r+0x1c8>
    26e0:	e001      	b.n	26e6 <_strtod_r+0x23e>
    26e2:	2400      	movs	r4, #0
    26e4:	1c21      	adds	r1, r4, #0
    26e6:	2201      	movs	r2, #1
    26e8:	9208      	str	r2, [sp, #32]
    26ea:	2220      	movs	r2, #32
    26ec:	1c1d      	adds	r5, r3, #0
    26ee:	4395      	bics	r5, r2
    26f0:	2200      	movs	r2, #0
    26f2:	2d45      	cmp	r5, #69	; 0x45
    26f4:	d157      	bne.n	27a6 <_strtod_r+0x2fe>
    26f6:	1c23      	adds	r3, r4, #0
    26f8:	9d0a      	ldr	r5, [sp, #40]	; 0x28
    26fa:	4303      	orrs	r3, r0
    26fc:	432b      	orrs	r3, r5
    26fe:	4293      	cmp	r3, r2
    2700:	d100      	bne.n	2704 <_strtod_r+0x25c>
    2702:	e0a9      	b.n	2858 <_strtod_r+0x3b0>
    2704:	9b1d      	ldr	r3, [sp, #116]	; 0x74
    2706:	9306      	str	r3, [sp, #24]
    2708:	3301      	adds	r3, #1
    270a:	931d      	str	r3, [sp, #116]	; 0x74
    270c:	9b06      	ldr	r3, [sp, #24]
    270e:	785b      	ldrb	r3, [r3, #1]
    2710:	2b2b      	cmp	r3, #43	; 0x2b
    2712:	d006      	beq.n	2722 <_strtod_r+0x27a>
    2714:	2b2d      	cmp	r3, #45	; 0x2d
    2716:	d001      	beq.n	271c <_strtod_r+0x274>
    2718:	9209      	str	r2, [sp, #36]	; 0x24
    271a:	e008      	b.n	272e <_strtod_r+0x286>
    271c:	2301      	movs	r3, #1
    271e:	9309      	str	r3, [sp, #36]	; 0x24
    2720:	e000      	b.n	2724 <_strtod_r+0x27c>
    2722:	9209      	str	r2, [sp, #36]	; 0x24
    2724:	9b06      	ldr	r3, [sp, #24]
    2726:	3302      	adds	r3, #2
    2728:	931d      	str	r3, [sp, #116]	; 0x74
    272a:	9b06      	ldr	r3, [sp, #24]
    272c:	789b      	ldrb	r3, [r3, #2]
    272e:	1c1a      	adds	r2, r3, #0
    2730:	3a30      	subs	r2, #48	; 0x30
    2732:	2a09      	cmp	r2, #9
    2734:	d834      	bhi.n	27a0 <_strtod_r+0x2f8>
    2736:	2b30      	cmp	r3, #48	; 0x30
    2738:	d104      	bne.n	2744 <_strtod_r+0x29c>
    273a:	9b1d      	ldr	r3, [sp, #116]	; 0x74
    273c:	1c5a      	adds	r2, r3, #1
    273e:	921d      	str	r2, [sp, #116]	; 0x74
    2740:	785b      	ldrb	r3, [r3, #1]
    2742:	e7f8      	b.n	2736 <_strtod_r+0x28e>
    2744:	2531      	movs	r5, #49	; 0x31
    2746:	426d      	negs	r5, r5
    2748:	46ac      	mov	ip, r5
    274a:	449c      	add	ip, r3
    274c:	4665      	mov	r5, ip
    274e:	2200      	movs	r2, #0
    2750:	2d08      	cmp	r5, #8
    2752:	d828      	bhi.n	27a6 <_strtod_r+0x2fe>
    2754:	3b30      	subs	r3, #48	; 0x30
    2756:	930b      	str	r3, [sp, #44]	; 0x2c
    2758:	9b1d      	ldr	r3, [sp, #116]	; 0x74
    275a:	930e      	str	r3, [sp, #56]	; 0x38
    275c:	2530      	movs	r5, #48	; 0x30
    275e:	426d      	negs	r5, r5
    2760:	46ac      	mov	ip, r5
    2762:	9b1d      	ldr	r3, [sp, #116]	; 0x74
    2764:	1c5a      	adds	r2, r3, #1
    2766:	921d      	str	r2, [sp, #116]	; 0x74
    2768:	785b      	ldrb	r3, [r3, #1]
    276a:	449c      	add	ip, r3
    276c:	4665      	mov	r5, ip
    276e:	2d09      	cmp	r5, #9
    2770:	d806      	bhi.n	2780 <_strtod_r+0x2d8>
    2772:	220a      	movs	r2, #10
    2774:	9d0b      	ldr	r5, [sp, #44]	; 0x2c
    2776:	436a      	muls	r2, r5
    2778:	18d3      	adds	r3, r2, r3
    277a:	3b30      	subs	r3, #48	; 0x30
    277c:	930b      	str	r3, [sp, #44]	; 0x2c
    277e:	e7ed      	b.n	275c <_strtod_r+0x2b4>
    2780:	9d0e      	ldr	r5, [sp, #56]	; 0x38
    2782:	1b52      	subs	r2, r2, r5
    2784:	1e15      	subs	r5, r2, #0
    2786:	4a2d      	ldr	r2, [pc, #180]	; (283c <_strtod_r+0x394>)
    2788:	4694      	mov	ip, r2
    278a:	2d08      	cmp	r5, #8
    278c:	dc03      	bgt.n	2796 <_strtod_r+0x2ee>
    278e:	9a0b      	ldr	r2, [sp, #44]	; 0x2c
    2790:	4562      	cmp	r2, ip
    2792:	dd00      	ble.n	2796 <_strtod_r+0x2ee>
    2794:	4662      	mov	r2, ip
    2796:	9d09      	ldr	r5, [sp, #36]	; 0x24
    2798:	2d00      	cmp	r5, #0
    279a:	d004      	beq.n	27a6 <_strtod_r+0x2fe>
    279c:	4252      	negs	r2, r2
    279e:	e002      	b.n	27a6 <_strtod_r+0x2fe>
    27a0:	9a06      	ldr	r2, [sp, #24]
    27a2:	921d      	str	r2, [sp, #116]	; 0x74
    27a4:	2200      	movs	r2, #0
    27a6:	2c00      	cmp	r4, #0
    27a8:	d161      	bne.n	286e <_strtod_r+0x3c6>
    27aa:	9a0a      	ldr	r2, [sp, #40]	; 0x28
    27ac:	4310      	orrs	r0, r2
    27ae:	d001      	beq.n	27b4 <_strtod_r+0x30c>
    27b0:	f000 fc66 	bl	3080 <_strtod_r+0xbd8>
    27b4:	9a08      	ldr	r2, [sp, #32]
    27b6:	2a00      	cmp	r2, #0
    27b8:	d14e      	bne.n	2858 <_strtod_r+0x3b0>
    27ba:	2b4e      	cmp	r3, #78	; 0x4e
    27bc:	d01c      	beq.n	27f8 <_strtod_r+0x350>
    27be:	dc02      	bgt.n	27c6 <_strtod_r+0x31e>
    27c0:	2b49      	cmp	r3, #73	; 0x49
    27c2:	d005      	beq.n	27d0 <_strtod_r+0x328>
    27c4:	e048      	b.n	2858 <_strtod_r+0x3b0>
    27c6:	2b69      	cmp	r3, #105	; 0x69
    27c8:	d002      	beq.n	27d0 <_strtod_r+0x328>
    27ca:	2b6e      	cmp	r3, #110	; 0x6e
    27cc:	d014      	beq.n	27f8 <_strtod_r+0x350>
    27ce:	e043      	b.n	2858 <_strtod_r+0x3b0>
    27d0:	a81d      	add	r0, sp, #116	; 0x74
    27d2:	491b      	ldr	r1, [pc, #108]	; (2840 <_strtod_r+0x398>)
    27d4:	f7ff fe3e 	bl	2454 <match>
    27d8:	2800      	cmp	r0, #0
    27da:	d03d      	beq.n	2858 <_strtod_r+0x3b0>
    27dc:	9b1d      	ldr	r3, [sp, #116]	; 0x74
    27de:	a81d      	add	r0, sp, #116	; 0x74
    27e0:	3b01      	subs	r3, #1
    27e2:	4918      	ldr	r1, [pc, #96]	; (2844 <_strtod_r+0x39c>)
    27e4:	931d      	str	r3, [sp, #116]	; 0x74
    27e6:	f7ff fe35 	bl	2454 <match>
    27ea:	2800      	cmp	r0, #0
    27ec:	d102      	bne.n	27f4 <_strtod_r+0x34c>
    27ee:	9b1d      	ldr	r3, [sp, #116]	; 0x74
    27f0:	3301      	adds	r3, #1
    27f2:	931d      	str	r3, [sp, #116]	; 0x74
    27f4:	4f0f      	ldr	r7, [pc, #60]	; (2834 <_strtod_r+0x38c>)
    27f6:	e02c      	b.n	2852 <_strtod_r+0x3aa>
    27f8:	a81d      	add	r0, sp, #116	; 0x74
    27fa:	4913      	ldr	r1, [pc, #76]	; (2848 <_strtod_r+0x3a0>)
    27fc:	f7ff fe2a 	bl	2454 <match>
    2800:	2800      	cmp	r0, #0
    2802:	d029      	beq.n	2858 <_strtod_r+0x3b0>
    2804:	9b1d      	ldr	r3, [sp, #116]	; 0x74
    2806:	781b      	ldrb	r3, [r3, #0]
    2808:	2b28      	cmp	r3, #40	; 0x28
    280a:	d121      	bne.n	2850 <_strtod_r+0x3a8>
    280c:	a81d      	add	r0, sp, #116	; 0x74
    280e:	490f      	ldr	r1, [pc, #60]	; (284c <_strtod_r+0x3a4>)
    2810:	aa20      	add	r2, sp, #128	; 0x80
    2812:	f000 ff8c 	bl	372e <__hexnan>
    2816:	2805      	cmp	r0, #5
    2818:	d11a      	bne.n	2850 <_strtod_r+0x3a8>
    281a:	9b21      	ldr	r3, [sp, #132]	; 0x84
    281c:	4a05      	ldr	r2, [pc, #20]	; (2834 <_strtod_r+0x38c>)
    281e:	9e20      	ldr	r6, [sp, #128]	; 0x80
    2820:	431a      	orrs	r2, r3
    2822:	1c17      	adds	r7, r2, #0
    2824:	f000 fc2c 	bl	3080 <_strtod_r+0xbd8>
    2828:	00007660 	.word	0x00007660
    282c:	00000433 	.word	0x00000433
    2830:	ffefffff 	.word	0xffefffff
    2834:	7ff00000 	.word	0x7ff00000
    2838:	7fffffff 	.word	0x7fffffff
    283c:	00004e1f 	.word	0x00004e1f
    2840:	00007612 	.word	0x00007612
    2844:	00007615 	.word	0x00007615
    2848:	0000761b 	.word	0x0000761b
    284c:	00007620 	.word	0x00007620
    2850:	4f92      	ldr	r7, [pc, #584]	; (2a9c <_strtod_r+0x5f4>)
    2852:	2600      	movs	r6, #0
    2854:	f000 fc14 	bl	3080 <_strtod_r+0xbd8>
    2858:	9b06      	ldr	r3, [sp, #24]
    285a:	931d      	str	r3, [sp, #116]	; 0x74
    285c:	2300      	movs	r3, #0
    285e:	930d      	str	r3, [sp, #52]	; 0x34
    2860:	9b19      	ldr	r3, [sp, #100]	; 0x64
    2862:	2b00      	cmp	r3, #0
    2864:	d001      	beq.n	286a <_strtod_r+0x3c2>
    2866:	f000 fc0e 	bl	3086 <_strtod_r+0xbde>
    286a:	f000 fc17 	bl	309c <_strtod_r+0xbf4>
    286e:	1a53      	subs	r3, r2, r1
    2870:	9309      	str	r3, [sp, #36]	; 0x24
    2872:	9b04      	ldr	r3, [sp, #16]
    2874:	2b00      	cmp	r3, #0
    2876:	d100      	bne.n	287a <_strtod_r+0x3d2>
    2878:	9404      	str	r4, [sp, #16]
    287a:	1e25      	subs	r5, r4, #0
    287c:	2d10      	cmp	r5, #16
    287e:	dd00      	ble.n	2882 <_strtod_r+0x3da>
    2880:	2510      	movs	r5, #16
    2882:	9807      	ldr	r0, [sp, #28]
    2884:	f004 fb1a 	bl	6ebc <__aeabi_ui2d>
    2888:	1c06      	adds	r6, r0, #0
    288a:	1c0f      	adds	r7, r1, #0
    288c:	2d09      	cmp	r5, #9
    288e:	dd15      	ble.n	28bc <_strtod_r+0x414>
    2890:	1c2b      	adds	r3, r5, #0
    2892:	4a83      	ldr	r2, [pc, #524]	; (2aa0 <_strtod_r+0x5f8>)
    2894:	3b09      	subs	r3, #9
    2896:	00db      	lsls	r3, r3, #3
    2898:	18d3      	adds	r3, r2, r3
    289a:	681a      	ldr	r2, [r3, #0]
    289c:	685b      	ldr	r3, [r3, #4]
    289e:	f003 fc87 	bl	61b0 <__aeabi_dmul>
    28a2:	1c06      	adds	r6, r0, #0
    28a4:	9805      	ldr	r0, [sp, #20]
    28a6:	1c0f      	adds	r7, r1, #0
    28a8:	f004 fb08 	bl	6ebc <__aeabi_ui2d>
    28ac:	1c02      	adds	r2, r0, #0
    28ae:	1c0b      	adds	r3, r1, #0
    28b0:	1c30      	adds	r0, r6, #0
    28b2:	1c39      	adds	r1, r7, #0
    28b4:	f002 fd16 	bl	52e4 <__aeabi_dadd>
    28b8:	1c06      	adds	r6, r0, #0
    28ba:	1c0f      	adds	r7, r1, #0
    28bc:	2c0f      	cmp	r4, #15
    28be:	dc37      	bgt.n	2930 <_strtod_r+0x488>
    28c0:	9b09      	ldr	r3, [sp, #36]	; 0x24
    28c2:	2b00      	cmp	r3, #0
    28c4:	d100      	bne.n	28c8 <_strtod_r+0x420>
    28c6:	e3db      	b.n	3080 <_strtod_r+0xbd8>
    28c8:	dd24      	ble.n	2914 <_strtod_r+0x46c>
    28ca:	2b16      	cmp	r3, #22
    28cc:	dc07      	bgt.n	28de <_strtod_r+0x436>
    28ce:	4974      	ldr	r1, [pc, #464]	; (2aa0 <_strtod_r+0x5f8>)
    28d0:	00da      	lsls	r2, r3, #3
    28d2:	188a      	adds	r2, r1, r2
    28d4:	6810      	ldr	r0, [r2, #0]
    28d6:	6851      	ldr	r1, [r2, #4]
    28d8:	1c3b      	adds	r3, r7, #0
    28da:	1c32      	adds	r2, r6, #0
    28dc:	e015      	b.n	290a <_strtod_r+0x462>
    28de:	2325      	movs	r3, #37	; 0x25
    28e0:	9a09      	ldr	r2, [sp, #36]	; 0x24
    28e2:	1b1b      	subs	r3, r3, r4
    28e4:	429a      	cmp	r2, r3
    28e6:	dc23      	bgt.n	2930 <_strtod_r+0x488>
    28e8:	220f      	movs	r2, #15
    28ea:	4d6d      	ldr	r5, [pc, #436]	; (2aa0 <_strtod_r+0x5f8>)
    28ec:	1b14      	subs	r4, r2, r4
    28ee:	00e3      	lsls	r3, r4, #3
    28f0:	18eb      	adds	r3, r5, r3
    28f2:	6818      	ldr	r0, [r3, #0]
    28f4:	6859      	ldr	r1, [r3, #4]
    28f6:	1c32      	adds	r2, r6, #0
    28f8:	1c3b      	adds	r3, r7, #0
    28fa:	f003 fc59 	bl	61b0 <__aeabi_dmul>
    28fe:	9b09      	ldr	r3, [sp, #36]	; 0x24
    2900:	1b1c      	subs	r4, r3, r4
    2902:	00e4      	lsls	r4, r4, #3
    2904:	192d      	adds	r5, r5, r4
    2906:	682a      	ldr	r2, [r5, #0]
    2908:	686b      	ldr	r3, [r5, #4]
    290a:	f003 fc51 	bl	61b0 <__aeabi_dmul>
    290e:	1c06      	adds	r6, r0, #0
    2910:	1c0f      	adds	r7, r1, #0
    2912:	e3b5      	b.n	3080 <_strtod_r+0xbd8>
    2914:	9b09      	ldr	r3, [sp, #36]	; 0x24
    2916:	3316      	adds	r3, #22
    2918:	db0a      	blt.n	2930 <_strtod_r+0x488>
    291a:	9b09      	ldr	r3, [sp, #36]	; 0x24
    291c:	1c30      	adds	r0, r6, #0
    291e:	00da      	lsls	r2, r3, #3
    2920:	4b5f      	ldr	r3, [pc, #380]	; (2aa0 <_strtod_r+0x5f8>)
    2922:	1c39      	adds	r1, r7, #0
    2924:	1a9a      	subs	r2, r3, r2
    2926:	6853      	ldr	r3, [r2, #4]
    2928:	6812      	ldr	r2, [r2, #0]
    292a:	f003 f803 	bl	5934 <__aeabi_ddiv>
    292e:	e7ee      	b.n	290e <_strtod_r+0x466>
    2930:	9b09      	ldr	r3, [sp, #36]	; 0x24
    2932:	1b65      	subs	r5, r4, r5
    2934:	195d      	adds	r5, r3, r5
    2936:	2d00      	cmp	r5, #0
    2938:	dd59      	ble.n	29ee <_strtod_r+0x546>
    293a:	230f      	movs	r3, #15
    293c:	402b      	ands	r3, r5
    293e:	d00a      	beq.n	2956 <_strtod_r+0x4ae>
    2940:	4a57      	ldr	r2, [pc, #348]	; (2aa0 <_strtod_r+0x5f8>)
    2942:	00db      	lsls	r3, r3, #3
    2944:	18d3      	adds	r3, r2, r3
    2946:	6818      	ldr	r0, [r3, #0]
    2948:	6859      	ldr	r1, [r3, #4]
    294a:	1c32      	adds	r2, r6, #0
    294c:	1c3b      	adds	r3, r7, #0
    294e:	f003 fc2f 	bl	61b0 <__aeabi_dmul>
    2952:	1c06      	adds	r6, r0, #0
    2954:	1c0f      	adds	r7, r1, #0
    2956:	230f      	movs	r3, #15
    2958:	439d      	bics	r5, r3
    295a:	d100      	bne.n	295e <_strtod_r+0x4b6>
    295c:	e0b0      	b.n	2ac0 <_strtod_r+0x618>
    295e:	3326      	adds	r3, #38	; 0x26
    2960:	33ff      	adds	r3, #255	; 0xff
    2962:	429d      	cmp	r5, r3
    2964:	dd0e      	ble.n	2984 <_strtod_r+0x4dc>
    2966:	2300      	movs	r3, #0
    2968:	9304      	str	r3, [sp, #16]
    296a:	9305      	str	r3, [sp, #20]
    296c:	930b      	str	r3, [sp, #44]	; 0x2c
    296e:	9308      	str	r3, [sp, #32]
    2970:	2322      	movs	r3, #34	; 0x22
    2972:	2600      	movs	r6, #0
    2974:	9a03      	ldr	r2, [sp, #12]
    2976:	4f4b      	ldr	r7, [pc, #300]	; (2aa4 <_strtod_r+0x5fc>)
    2978:	6013      	str	r3, [r2, #0]
    297a:	9b0b      	ldr	r3, [sp, #44]	; 0x2c
    297c:	42b3      	cmp	r3, r6
    297e:	d000      	beq.n	2982 <_strtod_r+0x4da>
    2980:	e36a      	b.n	3058 <_strtod_r+0xbb0>
    2982:	e37d      	b.n	3080 <_strtod_r+0xbd8>
    2984:	2300      	movs	r3, #0
    2986:	1c30      	adds	r0, r6, #0
    2988:	1c39      	adds	r1, r7, #0
    298a:	112d      	asrs	r5, r5, #4
    298c:	9305      	str	r3, [sp, #20]
    298e:	2d01      	cmp	r5, #1
    2990:	dd0e      	ble.n	29b0 <_strtod_r+0x508>
    2992:	07eb      	lsls	r3, r5, #31
    2994:	d507      	bpl.n	29a6 <_strtod_r+0x4fe>
    2996:	9b05      	ldr	r3, [sp, #20]
    2998:	00da      	lsls	r2, r3, #3
    299a:	4b43      	ldr	r3, [pc, #268]	; (2aa8 <_strtod_r+0x600>)
    299c:	18d3      	adds	r3, r2, r3
    299e:	681a      	ldr	r2, [r3, #0]
    29a0:	685b      	ldr	r3, [r3, #4]
    29a2:	f003 fc05 	bl	61b0 <__aeabi_dmul>
    29a6:	9b05      	ldr	r3, [sp, #20]
    29a8:	106d      	asrs	r5, r5, #1
    29aa:	3301      	adds	r3, #1
    29ac:	9305      	str	r3, [sp, #20]
    29ae:	e7ee      	b.n	298e <_strtod_r+0x4e6>
    29b0:	1c06      	adds	r6, r0, #0
    29b2:	4b3e      	ldr	r3, [pc, #248]	; (2aac <_strtod_r+0x604>)
    29b4:	18cf      	adds	r7, r1, r3
    29b6:	9b05      	ldr	r3, [sp, #20]
    29b8:	00da      	lsls	r2, r3, #3
    29ba:	4b3b      	ldr	r3, [pc, #236]	; (2aa8 <_strtod_r+0x600>)
    29bc:	189b      	adds	r3, r3, r2
    29be:	6818      	ldr	r0, [r3, #0]
    29c0:	6859      	ldr	r1, [r3, #4]
    29c2:	1c32      	adds	r2, r6, #0
    29c4:	1c3b      	adds	r3, r7, #0
    29c6:	f003 fbf3 	bl	61b0 <__aeabi_dmul>
    29ca:	4b36      	ldr	r3, [pc, #216]	; (2aa4 <_strtod_r+0x5fc>)
    29cc:	1c0f      	adds	r7, r1, #0
    29ce:	400b      	ands	r3, r1
    29d0:	4937      	ldr	r1, [pc, #220]	; (2ab0 <_strtod_r+0x608>)
    29d2:	1c06      	adds	r6, r0, #0
    29d4:	428b      	cmp	r3, r1
    29d6:	d8c6      	bhi.n	2966 <_strtod_r+0x4be>
    29d8:	4936      	ldr	r1, [pc, #216]	; (2ab4 <_strtod_r+0x60c>)
    29da:	428b      	cmp	r3, r1
    29dc:	d903      	bls.n	29e6 <_strtod_r+0x53e>
    29de:	2601      	movs	r6, #1
    29e0:	4f35      	ldr	r7, [pc, #212]	; (2ab8 <_strtod_r+0x610>)
    29e2:	4276      	negs	r6, r6
    29e4:	e06c      	b.n	2ac0 <_strtod_r+0x618>
    29e6:	23d4      	movs	r3, #212	; 0xd4
    29e8:	049b      	lsls	r3, r3, #18
    29ea:	18ff      	adds	r7, r7, r3
    29ec:	e068      	b.n	2ac0 <_strtod_r+0x618>
    29ee:	2d00      	cmp	r5, #0
    29f0:	d066      	beq.n	2ac0 <_strtod_r+0x618>
    29f2:	230f      	movs	r3, #15
    29f4:	426d      	negs	r5, r5
    29f6:	402b      	ands	r3, r5
    29f8:	d00a      	beq.n	2a10 <_strtod_r+0x568>
    29fa:	4a29      	ldr	r2, [pc, #164]	; (2aa0 <_strtod_r+0x5f8>)
    29fc:	00db      	lsls	r3, r3, #3
    29fe:	18d3      	adds	r3, r2, r3
    2a00:	1c30      	adds	r0, r6, #0
    2a02:	681a      	ldr	r2, [r3, #0]
    2a04:	685b      	ldr	r3, [r3, #4]
    2a06:	1c39      	adds	r1, r7, #0
    2a08:	f002 ff94 	bl	5934 <__aeabi_ddiv>
    2a0c:	1c06      	adds	r6, r0, #0
    2a0e:	1c0f      	adds	r7, r1, #0
    2a10:	112d      	asrs	r5, r5, #4
    2a12:	d055      	beq.n	2ac0 <_strtod_r+0x618>
    2a14:	2d1f      	cmp	r5, #31
    2a16:	dd05      	ble.n	2a24 <_strtod_r+0x57c>
    2a18:	2300      	movs	r3, #0
    2a1a:	9304      	str	r3, [sp, #16]
    2a1c:	9305      	str	r3, [sp, #20]
    2a1e:	930b      	str	r3, [sp, #44]	; 0x2c
    2a20:	9308      	str	r3, [sp, #32]
    2a22:	e118      	b.n	2c56 <_strtod_r+0x7ae>
    2a24:	2300      	movs	r3, #0
    2a26:	9306      	str	r3, [sp, #24]
    2a28:	06eb      	lsls	r3, r5, #27
    2a2a:	d501      	bpl.n	2a30 <_strtod_r+0x588>
    2a2c:	236a      	movs	r3, #106	; 0x6a
    2a2e:	9306      	str	r3, [sp, #24]
    2a30:	1c39      	adds	r1, r7, #0
    2a32:	1c30      	adds	r0, r6, #0
    2a34:	4e21      	ldr	r6, [pc, #132]	; (2abc <_strtod_r+0x614>)
    2a36:	2d00      	cmp	r5, #0
    2a38:	dd08      	ble.n	2a4c <_strtod_r+0x5a4>
    2a3a:	07eb      	lsls	r3, r5, #31
    2a3c:	d503      	bpl.n	2a46 <_strtod_r+0x59e>
    2a3e:	6832      	ldr	r2, [r6, #0]
    2a40:	6873      	ldr	r3, [r6, #4]
    2a42:	f003 fbb5 	bl	61b0 <__aeabi_dmul>
    2a46:	106d      	asrs	r5, r5, #1
    2a48:	3608      	adds	r6, #8
    2a4a:	e7f4      	b.n	2a36 <_strtod_r+0x58e>
    2a4c:	9b06      	ldr	r3, [sp, #24]
    2a4e:	1c06      	adds	r6, r0, #0
    2a50:	1c0f      	adds	r7, r1, #0
    2a52:	2b00      	cmp	r3, #0
    2a54:	d019      	beq.n	2a8a <_strtod_r+0x5e2>
    2a56:	226b      	movs	r2, #107	; 0x6b
    2a58:	004b      	lsls	r3, r1, #1
    2a5a:	0d5b      	lsrs	r3, r3, #21
    2a5c:	1c08      	adds	r0, r1, #0
    2a5e:	1ad3      	subs	r3, r2, r3
    2a60:	2b00      	cmp	r3, #0
    2a62:	dd12      	ble.n	2a8a <_strtod_r+0x5e2>
    2a64:	2b1f      	cmp	r3, #31
    2a66:	dd0c      	ble.n	2a82 <_strtod_r+0x5da>
    2a68:	2600      	movs	r6, #0
    2a6a:	2b34      	cmp	r3, #52	; 0x34
    2a6c:	dd02      	ble.n	2a74 <_strtod_r+0x5cc>
    2a6e:	27dc      	movs	r7, #220	; 0xdc
    2a70:	04bf      	lsls	r7, r7, #18
    2a72:	e00a      	b.n	2a8a <_strtod_r+0x5e2>
    2a74:	2201      	movs	r2, #1
    2a76:	3b20      	subs	r3, #32
    2a78:	4252      	negs	r2, r2
    2a7a:	409a      	lsls	r2, r3
    2a7c:	4010      	ands	r0, r2
    2a7e:	1c07      	adds	r7, r0, #0
    2a80:	e003      	b.n	2a8a <_strtod_r+0x5e2>
    2a82:	2201      	movs	r2, #1
    2a84:	4252      	negs	r2, r2
    2a86:	409a      	lsls	r2, r3
    2a88:	4016      	ands	r6, r2
    2a8a:	1c30      	adds	r0, r6, #0
    2a8c:	1c39      	adds	r1, r7, #0
    2a8e:	2200      	movs	r2, #0
    2a90:	2300      	movs	r3, #0
    2a92:	f001 fd2f 	bl	44f4 <__aeabi_dcmpeq>
    2a96:	2800      	cmp	r0, #0
    2a98:	d1be      	bne.n	2a18 <_strtod_r+0x570>
    2a9a:	e013      	b.n	2ac4 <_strtod_r+0x61c>
    2a9c:	fff80000 	.word	0xfff80000
    2aa0:	000077e0 	.word	0x000077e0
    2aa4:	7ff00000 	.word	0x7ff00000
    2aa8:	000078a8 	.word	0x000078a8
    2aac:	fcb00000 	.word	0xfcb00000
    2ab0:	7ca00000 	.word	0x7ca00000
    2ab4:	7c900000 	.word	0x7c900000
    2ab8:	7fefffff 	.word	0x7fefffff
    2abc:	00007638 	.word	0x00007638
    2ac0:	2300      	movs	r3, #0
    2ac2:	9306      	str	r3, [sp, #24]
    2ac4:	9b07      	ldr	r3, [sp, #28]
    2ac6:	9803      	ldr	r0, [sp, #12]
    2ac8:	9300      	str	r3, [sp, #0]
    2aca:	990c      	ldr	r1, [sp, #48]	; 0x30
    2acc:	9a04      	ldr	r2, [sp, #16]
    2ace:	1c23      	adds	r3, r4, #0
    2ad0:	f000 ff60 	bl	3994 <__s2b>
    2ad4:	900b      	str	r0, [sp, #44]	; 0x2c
    2ad6:	2800      	cmp	r0, #0
    2ad8:	d100      	bne.n	2adc <_strtod_r+0x634>
    2ada:	e744      	b.n	2966 <_strtod_r+0x4be>
    2adc:	9b09      	ldr	r3, [sp, #36]	; 0x24
    2ade:	9a09      	ldr	r2, [sp, #36]	; 0x24
    2ae0:	425b      	negs	r3, r3
    2ae2:	17d2      	asrs	r2, r2, #31
    2ae4:	4013      	ands	r3, r2
    2ae6:	9313      	str	r3, [sp, #76]	; 0x4c
    2ae8:	2300      	movs	r3, #0
    2aea:	9304      	str	r3, [sp, #16]
    2aec:	9305      	str	r3, [sp, #20]
    2aee:	9b0b      	ldr	r3, [sp, #44]	; 0x2c
    2af0:	9803      	ldr	r0, [sp, #12]
    2af2:	6859      	ldr	r1, [r3, #4]
    2af4:	f000 fec1 	bl	387a <_Balloc>
    2af8:	9008      	str	r0, [sp, #32]
    2afa:	2800      	cmp	r0, #0
    2afc:	d100      	bne.n	2b00 <_strtod_r+0x658>
    2afe:	e737      	b.n	2970 <_strtod_r+0x4c8>
    2b00:	9b0b      	ldr	r3, [sp, #44]	; 0x2c
    2b02:	990b      	ldr	r1, [sp, #44]	; 0x2c
    2b04:	691b      	ldr	r3, [r3, #16]
    2b06:	310c      	adds	r1, #12
    2b08:	1c9a      	adds	r2, r3, #2
    2b0a:	0092      	lsls	r2, r2, #2
    2b0c:	300c      	adds	r0, #12
    2b0e:	9307      	str	r3, [sp, #28]
    2b10:	f000 feaa 	bl	3868 <memcpy>
    2b14:	ab1f      	add	r3, sp, #124	; 0x7c
    2b16:	9300      	str	r3, [sp, #0]
    2b18:	ab20      	add	r3, sp, #128	; 0x80
    2b1a:	9301      	str	r3, [sp, #4]
    2b1c:	9803      	ldr	r0, [sp, #12]
    2b1e:	1c32      	adds	r2, r6, #0
    2b20:	1c3b      	adds	r3, r7, #0
    2b22:	960e      	str	r6, [sp, #56]	; 0x38
    2b24:	970f      	str	r7, [sp, #60]	; 0x3c
    2b26:	f001 f9f5 	bl	3f14 <__d2b>
    2b2a:	901e      	str	r0, [sp, #120]	; 0x78
    2b2c:	2800      	cmp	r0, #0
    2b2e:	d100      	bne.n	2b32 <_strtod_r+0x68a>
    2b30:	e71e      	b.n	2970 <_strtod_r+0x4c8>
    2b32:	9803      	ldr	r0, [sp, #12]
    2b34:	2101      	movs	r1, #1
    2b36:	f000 ffb7 	bl	3aa8 <__i2b>
    2b3a:	9005      	str	r0, [sp, #20]
    2b3c:	2800      	cmp	r0, #0
    2b3e:	d100      	bne.n	2b42 <_strtod_r+0x69a>
    2b40:	e716      	b.n	2970 <_strtod_r+0x4c8>
    2b42:	2300      	movs	r3, #0
    2b44:	9a09      	ldr	r2, [sp, #36]	; 0x24
    2b46:	930a      	str	r3, [sp, #40]	; 0x28
    2b48:	4293      	cmp	r3, r2
    2b4a:	da00      	bge.n	2b4e <_strtod_r+0x6a6>
    2b4c:	920a      	str	r2, [sp, #40]	; 0x28
    2b4e:	9b1f      	ldr	r3, [sp, #124]	; 0x7c
    2b50:	2b00      	cmp	r3, #0
    2b52:	da00      	bge.n	2b56 <_strtod_r+0x6ae>
    2b54:	e089      	b.n	2c6a <_strtod_r+0x7c2>
    2b56:	9a13      	ldr	r2, [sp, #76]	; 0x4c
    2b58:	9c0a      	ldr	r4, [sp, #40]	; 0x28
    2b5a:	18d5      	adds	r5, r2, r3
    2b5c:	9a06      	ldr	r2, [sp, #24]
    2b5e:	9920      	ldr	r1, [sp, #128]	; 0x80
    2b60:	1a9b      	subs	r3, r3, r2
    2b62:	2236      	movs	r2, #54	; 0x36
    2b64:	185b      	adds	r3, r3, r1
    2b66:	1a52      	subs	r2, r2, r1
    2b68:	49c8      	ldr	r1, [pc, #800]	; (2e8c <_strtod_r+0x9e4>)
    2b6a:	2001      	movs	r0, #1
    2b6c:	428b      	cmp	r3, r1
    2b6e:	db00      	blt.n	2b72 <_strtod_r+0x6ca>
    2b70:	e085      	b.n	2c7e <_strtod_r+0x7d6>
    2b72:	1ac9      	subs	r1, r1, r3
    2b74:	1a52      	subs	r2, r2, r1
    2b76:	291f      	cmp	r1, #31
    2b78:	dc7b      	bgt.n	2c72 <_strtod_r+0x7ca>
    2b7a:	4088      	lsls	r0, r1
    2b7c:	2300      	movs	r3, #0
    2b7e:	9018      	str	r0, [sp, #96]	; 0x60
    2b80:	9312      	str	r3, [sp, #72]	; 0x48
    2b82:	18ab      	adds	r3, r5, r2
    2b84:	9307      	str	r3, [sp, #28]
    2b86:	9b06      	ldr	r3, [sp, #24]
    2b88:	18a4      	adds	r4, r4, r2
    2b8a:	18e4      	adds	r4, r4, r3
    2b8c:	9b07      	ldr	r3, [sp, #28]
    2b8e:	42ab      	cmp	r3, r5
    2b90:	dd00      	ble.n	2b94 <_strtod_r+0x6ec>
    2b92:	1c2b      	adds	r3, r5, #0
    2b94:	42a3      	cmp	r3, r4
    2b96:	dd00      	ble.n	2b9a <_strtod_r+0x6f2>
    2b98:	1c23      	adds	r3, r4, #0
    2b9a:	2b00      	cmp	r3, #0
    2b9c:	dd04      	ble.n	2ba8 <_strtod_r+0x700>
    2b9e:	9a07      	ldr	r2, [sp, #28]
    2ba0:	1ae4      	subs	r4, r4, r3
    2ba2:	1ad2      	subs	r2, r2, r3
    2ba4:	9207      	str	r2, [sp, #28]
    2ba6:	1aed      	subs	r5, r5, r3
    2ba8:	9b13      	ldr	r3, [sp, #76]	; 0x4c
    2baa:	2b00      	cmp	r3, #0
    2bac:	d16b      	bne.n	2c86 <_strtod_r+0x7de>
    2bae:	9b07      	ldr	r3, [sp, #28]
    2bb0:	2b00      	cmp	r3, #0
    2bb2:	dd00      	ble.n	2bb6 <_strtod_r+0x70e>
    2bb4:	e080      	b.n	2cb8 <_strtod_r+0x810>
    2bb6:	9b0a      	ldr	r3, [sp, #40]	; 0x28
    2bb8:	2b00      	cmp	r3, #0
    2bba:	d000      	beq.n	2bbe <_strtod_r+0x716>
    2bbc:	e086      	b.n	2ccc <_strtod_r+0x824>
    2bbe:	2c00      	cmp	r4, #0
    2bc0:	dd00      	ble.n	2bc4 <_strtod_r+0x71c>
    2bc2:	e08d      	b.n	2ce0 <_strtod_r+0x838>
    2bc4:	2d00      	cmp	r5, #0
    2bc6:	dd00      	ble.n	2bca <_strtod_r+0x722>
    2bc8:	e094      	b.n	2cf4 <_strtod_r+0x84c>
    2bca:	9803      	ldr	r0, [sp, #12]
    2bcc:	991e      	ldr	r1, [sp, #120]	; 0x78
    2bce:	9a08      	ldr	r2, [sp, #32]
    2bd0:	f001 f8bf 	bl	3d52 <__mdiff>
    2bd4:	9004      	str	r0, [sp, #16]
    2bd6:	2800      	cmp	r0, #0
    2bd8:	d100      	bne.n	2bdc <_strtod_r+0x734>
    2bda:	e6c9      	b.n	2970 <_strtod_r+0x4c8>
    2bdc:	2200      	movs	r2, #0
    2bde:	68c3      	ldr	r3, [r0, #12]
    2be0:	9905      	ldr	r1, [sp, #20]
    2be2:	60c2      	str	r2, [r0, #12]
    2be4:	930c      	str	r3, [sp, #48]	; 0x30
    2be6:	f001 f899 	bl	3d1c <__mcmp>
    2bea:	2800      	cmp	r0, #0
    2bec:	db00      	blt.n	2bf0 <_strtod_r+0x748>
    2bee:	e091      	b.n	2d14 <_strtod_r+0x86c>
    2bf0:	9b0c      	ldr	r3, [sp, #48]	; 0x30
    2bf2:	2b00      	cmp	r3, #0
    2bf4:	d000      	beq.n	2bf8 <_strtod_r+0x750>
    2bf6:	e21a      	b.n	302e <_strtod_r+0xb86>
    2bf8:	2e00      	cmp	r6, #0
    2bfa:	d000      	beq.n	2bfe <_strtod_r+0x756>
    2bfc:	e217      	b.n	302e <_strtod_r+0xb86>
    2bfe:	033b      	lsls	r3, r7, #12
    2c00:	d000      	beq.n	2c04 <_strtod_r+0x75c>
    2c02:	e214      	b.n	302e <_strtod_r+0xb86>
    2c04:	22d6      	movs	r2, #214	; 0xd6
    2c06:	4ba2      	ldr	r3, [pc, #648]	; (2e90 <_strtod_r+0x9e8>)
    2c08:	04d2      	lsls	r2, r2, #19
    2c0a:	403b      	ands	r3, r7
    2c0c:	4293      	cmp	r3, r2
    2c0e:	d800      	bhi.n	2c12 <_strtod_r+0x76a>
    2c10:	e20d      	b.n	302e <_strtod_r+0xb86>
    2c12:	9b04      	ldr	r3, [sp, #16]
    2c14:	695b      	ldr	r3, [r3, #20]
    2c16:	9307      	str	r3, [sp, #28]
    2c18:	2b00      	cmp	r3, #0
    2c1a:	d075      	beq.n	2d08 <_strtod_r+0x860>
    2c1c:	9904      	ldr	r1, [sp, #16]
    2c1e:	9803      	ldr	r0, [sp, #12]
    2c20:	2201      	movs	r2, #1
    2c22:	f001 f829 	bl	3c78 <__lshift>
    2c26:	9905      	ldr	r1, [sp, #20]
    2c28:	9004      	str	r0, [sp, #16]
    2c2a:	f001 f877 	bl	3d1c <__mcmp>
    2c2e:	2800      	cmp	r0, #0
    2c30:	dc00      	bgt.n	2c34 <_strtod_r+0x78c>
    2c32:	e1fc      	b.n	302e <_strtod_r+0xb86>
    2c34:	9a06      	ldr	r2, [sp, #24]
    2c36:	4b96      	ldr	r3, [pc, #600]	; (2e90 <_strtod_r+0x9e8>)
    2c38:	2a00      	cmp	r2, #0
    2c3a:	d100      	bne.n	2c3e <_strtod_r+0x796>
    2c3c:	e09a      	b.n	2d74 <_strtod_r+0x8cc>
    2c3e:	1c1a      	adds	r2, r3, #0
    2c40:	21d6      	movs	r1, #214	; 0xd6
    2c42:	403a      	ands	r2, r7
    2c44:	04c9      	lsls	r1, r1, #19
    2c46:	428a      	cmp	r2, r1
    2c48:	dd00      	ble.n	2c4c <_strtod_r+0x7a4>
    2c4a:	e093      	b.n	2d74 <_strtod_r+0x8cc>
    2c4c:	23dc      	movs	r3, #220	; 0xdc
    2c4e:	049b      	lsls	r3, r3, #18
    2c50:	429a      	cmp	r2, r3
    2c52:	dd00      	ble.n	2c56 <_strtod_r+0x7ae>
    2c54:	e1ee      	b.n	3034 <_strtod_r+0xb8c>
    2c56:	2322      	movs	r3, #34	; 0x22
    2c58:	9a03      	ldr	r2, [sp, #12]
    2c5a:	2600      	movs	r6, #0
    2c5c:	6013      	str	r3, [r2, #0]
    2c5e:	9b0b      	ldr	r3, [sp, #44]	; 0x2c
    2c60:	2700      	movs	r7, #0
    2c62:	2b00      	cmp	r3, #0
    2c64:	d000      	beq.n	2c68 <_strtod_r+0x7c0>
    2c66:	e1f7      	b.n	3058 <_strtod_r+0xbb0>
    2c68:	e20a      	b.n	3080 <_strtod_r+0xbd8>
    2c6a:	9a0a      	ldr	r2, [sp, #40]	; 0x28
    2c6c:	9d13      	ldr	r5, [sp, #76]	; 0x4c
    2c6e:	1ad4      	subs	r4, r2, r3
    2c70:	e774      	b.n	2b5c <_strtod_r+0x6b4>
    2c72:	4988      	ldr	r1, [pc, #544]	; (2e94 <_strtod_r+0x9ec>)
    2c74:	1acb      	subs	r3, r1, r3
    2c76:	1c01      	adds	r1, r0, #0
    2c78:	4099      	lsls	r1, r3
    2c7a:	9112      	str	r1, [sp, #72]	; 0x48
    2c7c:	e001      	b.n	2c82 <_strtod_r+0x7da>
    2c7e:	2300      	movs	r3, #0
    2c80:	9312      	str	r3, [sp, #72]	; 0x48
    2c82:	9018      	str	r0, [sp, #96]	; 0x60
    2c84:	e77d      	b.n	2b82 <_strtod_r+0x6da>
    2c86:	1c1a      	adds	r2, r3, #0
    2c88:	9803      	ldr	r0, [sp, #12]
    2c8a:	9905      	ldr	r1, [sp, #20]
    2c8c:	f000 ffa2 	bl	3bd4 <__pow5mult>
    2c90:	9005      	str	r0, [sp, #20]
    2c92:	1e03      	subs	r3, r0, #0
    2c94:	d100      	bne.n	2c98 <_strtod_r+0x7f0>
    2c96:	e66b      	b.n	2970 <_strtod_r+0x4c8>
    2c98:	9803      	ldr	r0, [sp, #12]
    2c9a:	1c19      	adds	r1, r3, #0
    2c9c:	9a1e      	ldr	r2, [sp, #120]	; 0x78
    2c9e:	f000 ff0c 	bl	3aba <__multiply>
    2ca2:	900c      	str	r0, [sp, #48]	; 0x30
    2ca4:	2800      	cmp	r0, #0
    2ca6:	d100      	bne.n	2caa <_strtod_r+0x802>
    2ca8:	e662      	b.n	2970 <_strtod_r+0x4c8>
    2caa:	9803      	ldr	r0, [sp, #12]
    2cac:	991e      	ldr	r1, [sp, #120]	; 0x78
    2cae:	f000 fe1c 	bl	38ea <_Bfree>
    2cb2:	9b0c      	ldr	r3, [sp, #48]	; 0x30
    2cb4:	931e      	str	r3, [sp, #120]	; 0x78
    2cb6:	e77a      	b.n	2bae <_strtod_r+0x706>
    2cb8:	9803      	ldr	r0, [sp, #12]
    2cba:	991e      	ldr	r1, [sp, #120]	; 0x78
    2cbc:	9a07      	ldr	r2, [sp, #28]
    2cbe:	f000 ffdb 	bl	3c78 <__lshift>
    2cc2:	901e      	str	r0, [sp, #120]	; 0x78
    2cc4:	2800      	cmp	r0, #0
    2cc6:	d000      	beq.n	2cca <_strtod_r+0x822>
    2cc8:	e775      	b.n	2bb6 <_strtod_r+0x70e>
    2cca:	e651      	b.n	2970 <_strtod_r+0x4c8>
    2ccc:	9803      	ldr	r0, [sp, #12]
    2cce:	9908      	ldr	r1, [sp, #32]
    2cd0:	9a0a      	ldr	r2, [sp, #40]	; 0x28
    2cd2:	f000 ff7f 	bl	3bd4 <__pow5mult>
    2cd6:	9008      	str	r0, [sp, #32]
    2cd8:	2800      	cmp	r0, #0
    2cda:	d000      	beq.n	2cde <_strtod_r+0x836>
    2cdc:	e76f      	b.n	2bbe <_strtod_r+0x716>
    2cde:	e647      	b.n	2970 <_strtod_r+0x4c8>
    2ce0:	9803      	ldr	r0, [sp, #12]
    2ce2:	9908      	ldr	r1, [sp, #32]
    2ce4:	1c22      	adds	r2, r4, #0
    2ce6:	f000 ffc7 	bl	3c78 <__lshift>
    2cea:	9008      	str	r0, [sp, #32]
    2cec:	2800      	cmp	r0, #0
    2cee:	d000      	beq.n	2cf2 <_strtod_r+0x84a>
    2cf0:	e768      	b.n	2bc4 <_strtod_r+0x71c>
    2cf2:	e63d      	b.n	2970 <_strtod_r+0x4c8>
    2cf4:	9803      	ldr	r0, [sp, #12]
    2cf6:	9905      	ldr	r1, [sp, #20]
    2cf8:	1c2a      	adds	r2, r5, #0
    2cfa:	f000 ffbd 	bl	3c78 <__lshift>
    2cfe:	9005      	str	r0, [sp, #20]
    2d00:	2800      	cmp	r0, #0
    2d02:	d000      	beq.n	2d06 <_strtod_r+0x85e>
    2d04:	e761      	b.n	2bca <_strtod_r+0x722>
    2d06:	e633      	b.n	2970 <_strtod_r+0x4c8>
    2d08:	9b04      	ldr	r3, [sp, #16]
    2d0a:	691b      	ldr	r3, [r3, #16]
    2d0c:	9307      	str	r3, [sp, #28]
    2d0e:	2b01      	cmp	r3, #1
    2d10:	dc84      	bgt.n	2c1c <_strtod_r+0x774>
    2d12:	e18c      	b.n	302e <_strtod_r+0xb86>
    2d14:	2800      	cmp	r0, #0
    2d16:	d164      	bne.n	2de2 <_strtod_r+0x93a>
    2d18:	9a0c      	ldr	r2, [sp, #48]	; 0x30
    2d1a:	033b      	lsls	r3, r7, #12
    2d1c:	2a00      	cmp	r2, #0
    2d1e:	d024      	beq.n	2d6a <_strtod_r+0x8c2>
    2d20:	4a5d      	ldr	r2, [pc, #372]	; (2e98 <_strtod_r+0x9f0>)
    2d22:	1c39      	adds	r1, r7, #0
    2d24:	0b1b      	lsrs	r3, r3, #12
    2d26:	4293      	cmp	r3, r2
    2d28:	d12d      	bne.n	2d86 <_strtod_r+0x8de>
    2d2a:	9a06      	ldr	r2, [sp, #24]
    2d2c:	3801      	subs	r0, #1
    2d2e:	1c34      	adds	r4, r6, #0
    2d30:	1c03      	adds	r3, r0, #0
    2d32:	2a00      	cmp	r2, #0
    2d34:	d00a      	beq.n	2d4c <_strtod_r+0x8a4>
    2d36:	25d4      	movs	r5, #212	; 0xd4
    2d38:	4a55      	ldr	r2, [pc, #340]	; (2e90 <_strtod_r+0x9e8>)
    2d3a:	04ed      	lsls	r5, r5, #19
    2d3c:	403a      	ands	r2, r7
    2d3e:	42aa      	cmp	r2, r5
    2d40:	d804      	bhi.n	2d4c <_strtod_r+0x8a4>
    2d42:	336c      	adds	r3, #108	; 0x6c
    2d44:	0d12      	lsrs	r2, r2, #20
    2d46:	1a9a      	subs	r2, r3, r2
    2d48:	1c03      	adds	r3, r0, #0
    2d4a:	4093      	lsls	r3, r2
    2d4c:	429c      	cmp	r4, r3
    2d4e:	d11a      	bne.n	2d86 <_strtod_r+0x8de>
    2d50:	4b52      	ldr	r3, [pc, #328]	; (2e9c <_strtod_r+0x9f4>)
    2d52:	4299      	cmp	r1, r3
    2d54:	d102      	bne.n	2d5c <_strtod_r+0x8b4>
    2d56:	1c63      	adds	r3, r4, #1
    2d58:	d100      	bne.n	2d5c <_strtod_r+0x8b4>
    2d5a:	e609      	b.n	2970 <_strtod_r+0x4c8>
    2d5c:	4b4c      	ldr	r3, [pc, #304]	; (2e90 <_strtod_r+0x9e8>)
    2d5e:	2600      	movs	r6, #0
    2d60:	4019      	ands	r1, r3
    2d62:	2380      	movs	r3, #128	; 0x80
    2d64:	035b      	lsls	r3, r3, #13
    2d66:	18cf      	adds	r7, r1, r3
    2d68:	e161      	b.n	302e <_strtod_r+0xb86>
    2d6a:	2b00      	cmp	r3, #0
    2d6c:	d10b      	bne.n	2d86 <_strtod_r+0x8de>
    2d6e:	2e00      	cmp	r6, #0
    2d70:	d109      	bne.n	2d86 <_strtod_r+0x8de>
    2d72:	e75f      	b.n	2c34 <_strtod_r+0x78c>
    2d74:	2601      	movs	r6, #1
    2d76:	4a4a      	ldr	r2, [pc, #296]	; (2ea0 <_strtod_r+0x9f8>)
    2d78:	403b      	ands	r3, r7
    2d7a:	189b      	adds	r3, r3, r2
    2d7c:	4a46      	ldr	r2, [pc, #280]	; (2e98 <_strtod_r+0x9f0>)
    2d7e:	4276      	negs	r6, r6
    2d80:	431a      	orrs	r2, r3
    2d82:	1c17      	adds	r7, r2, #0
    2d84:	e153      	b.n	302e <_strtod_r+0xb86>
    2d86:	9b12      	ldr	r3, [sp, #72]	; 0x48
    2d88:	2b00      	cmp	r3, #0
    2d8a:	d003      	beq.n	2d94 <_strtod_r+0x8ec>
    2d8c:	423b      	tst	r3, r7
    2d8e:	d100      	bne.n	2d92 <_strtod_r+0x8ea>
    2d90:	e14d      	b.n	302e <_strtod_r+0xb86>
    2d92:	e003      	b.n	2d9c <_strtod_r+0x8f4>
    2d94:	9b18      	ldr	r3, [sp, #96]	; 0x60
    2d96:	4233      	tst	r3, r6
    2d98:	d100      	bne.n	2d9c <_strtod_r+0x8f4>
    2d9a:	e148      	b.n	302e <_strtod_r+0xb86>
    2d9c:	9b0c      	ldr	r3, [sp, #48]	; 0x30
    2d9e:	1c30      	adds	r0, r6, #0
    2da0:	1c39      	adds	r1, r7, #0
    2da2:	9a06      	ldr	r2, [sp, #24]
    2da4:	2b00      	cmp	r3, #0
    2da6:	d00a      	beq.n	2dbe <_strtod_r+0x916>
    2da8:	f7ff fb68 	bl	247c <sulp>
    2dac:	1c02      	adds	r2, r0, #0
    2dae:	1c0b      	adds	r3, r1, #0
    2db0:	980e      	ldr	r0, [sp, #56]	; 0x38
    2db2:	990f      	ldr	r1, [sp, #60]	; 0x3c
    2db4:	f002 fa96 	bl	52e4 <__aeabi_dadd>
    2db8:	1c06      	adds	r6, r0, #0
    2dba:	1c0f      	adds	r7, r1, #0
    2dbc:	e137      	b.n	302e <_strtod_r+0xb86>
    2dbe:	f7ff fb5d 	bl	247c <sulp>
    2dc2:	1c02      	adds	r2, r0, #0
    2dc4:	1c0b      	adds	r3, r1, #0
    2dc6:	980e      	ldr	r0, [sp, #56]	; 0x38
    2dc8:	990f      	ldr	r1, [sp, #60]	; 0x3c
    2dca:	f003 fc8b 	bl	66e4 <__aeabi_dsub>
    2dce:	2200      	movs	r2, #0
    2dd0:	2300      	movs	r3, #0
    2dd2:	1c06      	adds	r6, r0, #0
    2dd4:	1c0f      	adds	r7, r1, #0
    2dd6:	f001 fb8d 	bl	44f4 <__aeabi_dcmpeq>
    2dda:	2800      	cmp	r0, #0
    2ddc:	d000      	beq.n	2de0 <_strtod_r+0x938>
    2dde:	e73a      	b.n	2c56 <_strtod_r+0x7ae>
    2de0:	e125      	b.n	302e <_strtod_r+0xb86>
    2de2:	9804      	ldr	r0, [sp, #16]
    2de4:	9905      	ldr	r1, [sp, #20]
    2de6:	f001 f8e9 	bl	3fbc <__ratio>
    2dea:	2380      	movs	r3, #128	; 0x80
    2dec:	2200      	movs	r2, #0
    2dee:	05db      	lsls	r3, r3, #23
    2df0:	1c04      	adds	r4, r0, #0
    2df2:	1c0d      	adds	r5, r1, #0
    2df4:	f001 fb8e 	bl	4514 <__aeabi_dcmple>
    2df8:	2800      	cmp	r0, #0
    2dfa:	d036      	beq.n	2e6a <_strtod_r+0x9c2>
    2dfc:	9b0c      	ldr	r3, [sp, #48]	; 0x30
    2dfe:	2b00      	cmp	r3, #0
    2e00:	d002      	beq.n	2e08 <_strtod_r+0x960>
    2e02:	2400      	movs	r4, #0
    2e04:	4d27      	ldr	r5, [pc, #156]	; (2ea4 <_strtod_r+0x9fc>)
    2e06:	e00b      	b.n	2e20 <_strtod_r+0x978>
    2e08:	2e00      	cmp	r6, #0
    2e0a:	d102      	bne.n	2e12 <_strtod_r+0x96a>
    2e0c:	033b      	lsls	r3, r7, #12
    2e0e:	d105      	bne.n	2e1c <_strtod_r+0x974>
    2e10:	e00b      	b.n	2e2a <_strtod_r+0x982>
    2e12:	2e01      	cmp	r6, #1
    2e14:	d102      	bne.n	2e1c <_strtod_r+0x974>
    2e16:	2f00      	cmp	r7, #0
    2e18:	d100      	bne.n	2e1c <_strtod_r+0x974>
    2e1a:	e71c      	b.n	2c56 <_strtod_r+0x7ae>
    2e1c:	2400      	movs	r4, #0
    2e1e:	4d22      	ldr	r5, [pc, #136]	; (2ea8 <_strtod_r+0xa00>)
    2e20:	2300      	movs	r3, #0
    2e22:	9307      	str	r3, [sp, #28]
    2e24:	4b1f      	ldr	r3, [pc, #124]	; (2ea4 <_strtod_r+0x9fc>)
    2e26:	930a      	str	r3, [sp, #40]	; 0x28
    2e28:	e048      	b.n	2ebc <_strtod_r+0xa14>
    2e2a:	1c20      	adds	r0, r4, #0
    2e2c:	1c29      	adds	r1, r5, #0
    2e2e:	2200      	movs	r2, #0
    2e30:	4b1c      	ldr	r3, [pc, #112]	; (2ea4 <_strtod_r+0x9fc>)
    2e32:	f001 fb65 	bl	4500 <__aeabi_dcmplt>
    2e36:	2800      	cmp	r0, #0
    2e38:	d108      	bne.n	2e4c <_strtod_r+0x9a4>
    2e3a:	1c20      	adds	r0, r4, #0
    2e3c:	1c29      	adds	r1, r5, #0
    2e3e:	2200      	movs	r2, #0
    2e40:	4b1a      	ldr	r3, [pc, #104]	; (2eac <_strtod_r+0xa04>)
    2e42:	f003 f9b5 	bl	61b0 <__aeabi_dmul>
    2e46:	9007      	str	r0, [sp, #28]
    2e48:	910a      	str	r1, [sp, #40]	; 0x28
    2e4a:	e003      	b.n	2e54 <_strtod_r+0x9ac>
    2e4c:	9b0c      	ldr	r3, [sp, #48]	; 0x30
    2e4e:	9307      	str	r3, [sp, #28]
    2e50:	4b16      	ldr	r3, [pc, #88]	; (2eac <_strtod_r+0xa04>)
    2e52:	930a      	str	r3, [sp, #40]	; 0x28
    2e54:	2280      	movs	r2, #128	; 0x80
    2e56:	0612      	lsls	r2, r2, #24
    2e58:	4694      	mov	ip, r2
    2e5a:	9b07      	ldr	r3, [sp, #28]
    2e5c:	931a      	str	r3, [sp, #104]	; 0x68
    2e5e:	9b0a      	ldr	r3, [sp, #40]	; 0x28
    2e60:	4463      	add	r3, ip
    2e62:	931b      	str	r3, [sp, #108]	; 0x6c
    2e64:	9c1a      	ldr	r4, [sp, #104]	; 0x68
    2e66:	9d1b      	ldr	r5, [sp, #108]	; 0x6c
    2e68:	e028      	b.n	2ebc <_strtod_r+0xa14>
    2e6a:	4b10      	ldr	r3, [pc, #64]	; (2eac <_strtod_r+0xa04>)
    2e6c:	1c20      	adds	r0, r4, #0
    2e6e:	1c29      	adds	r1, r5, #0
    2e70:	2200      	movs	r2, #0
    2e72:	f003 f99d 	bl	61b0 <__aeabi_dmul>
    2e76:	9b0c      	ldr	r3, [sp, #48]	; 0x30
    2e78:	9007      	str	r0, [sp, #28]
    2e7a:	910a      	str	r1, [sp, #40]	; 0x28
    2e7c:	2b00      	cmp	r3, #0
    2e7e:	d117      	bne.n	2eb0 <_strtod_r+0xa08>
    2e80:	2380      	movs	r3, #128	; 0x80
    2e82:	061b      	lsls	r3, r3, #24
    2e84:	18cb      	adds	r3, r1, r3
    2e86:	9014      	str	r0, [sp, #80]	; 0x50
    2e88:	9315      	str	r3, [sp, #84]	; 0x54
    2e8a:	e015      	b.n	2eb8 <_strtod_r+0xa10>
    2e8c:	fffffc03 	.word	0xfffffc03
    2e90:	7ff00000 	.word	0x7ff00000
    2e94:	fffffbe3 	.word	0xfffffbe3
    2e98:	000fffff 	.word	0x000fffff
    2e9c:	7fefffff 	.word	0x7fefffff
    2ea0:	fff00000 	.word	0xfff00000
    2ea4:	3ff00000 	.word	0x3ff00000
    2ea8:	bff00000 	.word	0xbff00000
    2eac:	3fe00000 	.word	0x3fe00000
    2eb0:	9a07      	ldr	r2, [sp, #28]
    2eb2:	9b0a      	ldr	r3, [sp, #40]	; 0x28
    2eb4:	9214      	str	r2, [sp, #80]	; 0x50
    2eb6:	9315      	str	r3, [sp, #84]	; 0x54
    2eb8:	9c14      	ldr	r4, [sp, #80]	; 0x50
    2eba:	9d15      	ldr	r5, [sp, #84]	; 0x54
    2ebc:	4b7a      	ldr	r3, [pc, #488]	; (30a8 <_strtod_r+0xc00>)
    2ebe:	403b      	ands	r3, r7
    2ec0:	9312      	str	r3, [sp, #72]	; 0x48
    2ec2:	9a12      	ldr	r2, [sp, #72]	; 0x48
    2ec4:	4b79      	ldr	r3, [pc, #484]	; (30ac <_strtod_r+0xc04>)
    2ec6:	429a      	cmp	r2, r3
    2ec8:	d12b      	bne.n	2f22 <_strtod_r+0xa7a>
    2eca:	9a0e      	ldr	r2, [sp, #56]	; 0x38
    2ecc:	9b0f      	ldr	r3, [sp, #60]	; 0x3c
    2ece:	9210      	str	r2, [sp, #64]	; 0x40
    2ed0:	9311      	str	r3, [sp, #68]	; 0x44
    2ed2:	4b77      	ldr	r3, [pc, #476]	; (30b0 <_strtod_r+0xc08>)
    2ed4:	1c30      	adds	r0, r6, #0
    2ed6:	18ff      	adds	r7, r7, r3
    2ed8:	1c39      	adds	r1, r7, #0
    2eda:	f000 ffa5 	bl	3e28 <__ulp>
    2ede:	1c02      	adds	r2, r0, #0
    2ee0:	1c0b      	adds	r3, r1, #0
    2ee2:	1c20      	adds	r0, r4, #0
    2ee4:	1c29      	adds	r1, r5, #0
    2ee6:	f003 f963 	bl	61b0 <__aeabi_dmul>
    2eea:	1c02      	adds	r2, r0, #0
    2eec:	1c0b      	adds	r3, r1, #0
    2eee:	1c30      	adds	r0, r6, #0
    2ef0:	1c39      	adds	r1, r7, #0
    2ef2:	f002 f9f7 	bl	52e4 <__aeabi_dadd>
    2ef6:	4b6c      	ldr	r3, [pc, #432]	; (30a8 <_strtod_r+0xc00>)
    2ef8:	4a6e      	ldr	r2, [pc, #440]	; (30b4 <_strtod_r+0xc0c>)
    2efa:	1c06      	adds	r6, r0, #0
    2efc:	400b      	ands	r3, r1
    2efe:	4293      	cmp	r3, r2
    2f00:	d90b      	bls.n	2f1a <_strtod_r+0xa72>
    2f02:	4b6d      	ldr	r3, [pc, #436]	; (30b8 <_strtod_r+0xc10>)
    2f04:	9a11      	ldr	r2, [sp, #68]	; 0x44
    2f06:	429a      	cmp	r2, r3
    2f08:	d103      	bne.n	2f12 <_strtod_r+0xa6a>
    2f0a:	9b10      	ldr	r3, [sp, #64]	; 0x40
    2f0c:	3301      	adds	r3, #1
    2f0e:	d100      	bne.n	2f12 <_strtod_r+0xa6a>
    2f10:	e52e      	b.n	2970 <_strtod_r+0x4c8>
    2f12:	2601      	movs	r6, #1
    2f14:	4f68      	ldr	r7, [pc, #416]	; (30b8 <_strtod_r+0xc10>)
    2f16:	4276      	negs	r6, r6
    2f18:	e078      	b.n	300c <_strtod_r+0xb64>
    2f1a:	23d4      	movs	r3, #212	; 0xd4
    2f1c:	049b      	lsls	r3, r3, #18
    2f1e:	18cf      	adds	r7, r1, r3
    2f20:	e040      	b.n	2fa4 <_strtod_r+0xafc>
    2f22:	9b06      	ldr	r3, [sp, #24]
    2f24:	2b00      	cmp	r3, #0
    2f26:	d02b      	beq.n	2f80 <_strtod_r+0xad8>
    2f28:	23d4      	movs	r3, #212	; 0xd4
    2f2a:	9a12      	ldr	r2, [sp, #72]	; 0x48
    2f2c:	04db      	lsls	r3, r3, #19
    2f2e:	429a      	cmp	r2, r3
    2f30:	d826      	bhi.n	2f80 <_strtod_r+0xad8>
    2f32:	9807      	ldr	r0, [sp, #28]
    2f34:	990a      	ldr	r1, [sp, #40]	; 0x28
    2f36:	4a61      	ldr	r2, [pc, #388]	; (30bc <_strtod_r+0xc14>)
    2f38:	4b61      	ldr	r3, [pc, #388]	; (30c0 <_strtod_r+0xc18>)
    2f3a:	f001 faeb 	bl	4514 <__aeabi_dcmple>
    2f3e:	2800      	cmp	r0, #0
    2f40:	d019      	beq.n	2f76 <_strtod_r+0xace>
    2f42:	9807      	ldr	r0, [sp, #28]
    2f44:	990a      	ldr	r1, [sp, #40]	; 0x28
    2f46:	f001 fb65 	bl	4614 <__aeabi_d2uiz>
    2f4a:	2800      	cmp	r0, #0
    2f4c:	d100      	bne.n	2f50 <_strtod_r+0xaa8>
    2f4e:	3001      	adds	r0, #1
    2f50:	f003 ffb4 	bl	6ebc <__aeabi_ui2d>
    2f54:	9b0c      	ldr	r3, [sp, #48]	; 0x30
    2f56:	9007      	str	r0, [sp, #28]
    2f58:	910a      	str	r1, [sp, #40]	; 0x28
    2f5a:	2b00      	cmp	r3, #0
    2f5c:	d105      	bne.n	2f6a <_strtod_r+0xac2>
    2f5e:	2380      	movs	r3, #128	; 0x80
    2f60:	061b      	lsls	r3, r3, #24
    2f62:	18cb      	adds	r3, r1, r3
    2f64:	9016      	str	r0, [sp, #88]	; 0x58
    2f66:	9317      	str	r3, [sp, #92]	; 0x5c
    2f68:	e003      	b.n	2f72 <_strtod_r+0xaca>
    2f6a:	9a07      	ldr	r2, [sp, #28]
    2f6c:	9b0a      	ldr	r3, [sp, #40]	; 0x28
    2f6e:	9216      	str	r2, [sp, #88]	; 0x58
    2f70:	9317      	str	r3, [sp, #92]	; 0x5c
    2f72:	9c16      	ldr	r4, [sp, #88]	; 0x58
    2f74:	9d17      	ldr	r5, [sp, #92]	; 0x5c
    2f76:	23d6      	movs	r3, #214	; 0xd6
    2f78:	9a12      	ldr	r2, [sp, #72]	; 0x48
    2f7a:	04db      	lsls	r3, r3, #19
    2f7c:	18eb      	adds	r3, r5, r3
    2f7e:	1a9d      	subs	r5, r3, r2
    2f80:	980e      	ldr	r0, [sp, #56]	; 0x38
    2f82:	990f      	ldr	r1, [sp, #60]	; 0x3c
    2f84:	f000 ff50 	bl	3e28 <__ulp>
    2f88:	1c02      	adds	r2, r0, #0
    2f8a:	1c0b      	adds	r3, r1, #0
    2f8c:	1c20      	adds	r0, r4, #0
    2f8e:	1c29      	adds	r1, r5, #0
    2f90:	f003 f90e 	bl	61b0 <__aeabi_dmul>
    2f94:	1c02      	adds	r2, r0, #0
    2f96:	1c0b      	adds	r3, r1, #0
    2f98:	980e      	ldr	r0, [sp, #56]	; 0x38
    2f9a:	990f      	ldr	r1, [sp, #60]	; 0x3c
    2f9c:	f002 f9a2 	bl	52e4 <__aeabi_dadd>
    2fa0:	1c06      	adds	r6, r0, #0
    2fa2:	1c0f      	adds	r7, r1, #0
    2fa4:	9b06      	ldr	r3, [sp, #24]
    2fa6:	970e      	str	r7, [sp, #56]	; 0x38
    2fa8:	2b00      	cmp	r3, #0
    2faa:	d12f      	bne.n	300c <_strtod_r+0xb64>
    2fac:	4b3e      	ldr	r3, [pc, #248]	; (30a8 <_strtod_r+0xc00>)
    2fae:	9a12      	ldr	r2, [sp, #72]	; 0x48
    2fb0:	403b      	ands	r3, r7
    2fb2:	429a      	cmp	r2, r3
    2fb4:	d12a      	bne.n	300c <_strtod_r+0xb64>
    2fb6:	990a      	ldr	r1, [sp, #40]	; 0x28
    2fb8:	9807      	ldr	r0, [sp, #28]
    2fba:	f003 ff0d 	bl	6dd8 <__aeabi_d2iz>
    2fbe:	f003 ff41 	bl	6e44 <__aeabi_i2d>
    2fc2:	1c0b      	adds	r3, r1, #0
    2fc4:	1c02      	adds	r2, r0, #0
    2fc6:	990a      	ldr	r1, [sp, #40]	; 0x28
    2fc8:	9807      	ldr	r0, [sp, #28]
    2fca:	f003 fb8b 	bl	66e4 <__aeabi_dsub>
    2fce:	9b0c      	ldr	r3, [sp, #48]	; 0x30
    2fd0:	1c04      	adds	r4, r0, #0
    2fd2:	1c0d      	adds	r5, r1, #0
    2fd4:	2b00      	cmp	r3, #0
    2fd6:	d104      	bne.n	2fe2 <_strtod_r+0xb3a>
    2fd8:	2e00      	cmp	r6, #0
    2fda:	d102      	bne.n	2fe2 <_strtod_r+0xb3a>
    2fdc:	9b0e      	ldr	r3, [sp, #56]	; 0x38
    2fde:	031b      	lsls	r3, r3, #12
    2fe0:	d00e      	beq.n	3000 <_strtod_r+0xb58>
    2fe2:	1c20      	adds	r0, r4, #0
    2fe4:	1c29      	adds	r1, r5, #0
    2fe6:	4a37      	ldr	r2, [pc, #220]	; (30c4 <_strtod_r+0xc1c>)
    2fe8:	4b37      	ldr	r3, [pc, #220]	; (30c8 <_strtod_r+0xc20>)
    2fea:	f001 fa89 	bl	4500 <__aeabi_dcmplt>
    2fee:	2800      	cmp	r0, #0
    2ff0:	d132      	bne.n	3058 <_strtod_r+0xbb0>
    2ff2:	1c20      	adds	r0, r4, #0
    2ff4:	1c29      	adds	r1, r5, #0
    2ff6:	4a35      	ldr	r2, [pc, #212]	; (30cc <_strtod_r+0xc24>)
    2ff8:	4b35      	ldr	r3, [pc, #212]	; (30d0 <_strtod_r+0xc28>)
    2ffa:	f001 fa95 	bl	4528 <__aeabi_dcmpgt>
    2ffe:	e003      	b.n	3008 <_strtod_r+0xb60>
    3000:	4a30      	ldr	r2, [pc, #192]	; (30c4 <_strtod_r+0xc1c>)
    3002:	4b34      	ldr	r3, [pc, #208]	; (30d4 <_strtod_r+0xc2c>)
    3004:	f001 fa7c 	bl	4500 <__aeabi_dcmplt>
    3008:	2800      	cmp	r0, #0
    300a:	d125      	bne.n	3058 <_strtod_r+0xbb0>
    300c:	9803      	ldr	r0, [sp, #12]
    300e:	991e      	ldr	r1, [sp, #120]	; 0x78
    3010:	f000 fc6b 	bl	38ea <_Bfree>
    3014:	9803      	ldr	r0, [sp, #12]
    3016:	9908      	ldr	r1, [sp, #32]
    3018:	f000 fc67 	bl	38ea <_Bfree>
    301c:	9803      	ldr	r0, [sp, #12]
    301e:	9905      	ldr	r1, [sp, #20]
    3020:	f000 fc63 	bl	38ea <_Bfree>
    3024:	9803      	ldr	r0, [sp, #12]
    3026:	9904      	ldr	r1, [sp, #16]
    3028:	f000 fc5f 	bl	38ea <_Bfree>
    302c:	e55f      	b.n	2aee <_strtod_r+0x646>
    302e:	9b06      	ldr	r3, [sp, #24]
    3030:	2b00      	cmp	r3, #0
    3032:	d011      	beq.n	3058 <_strtod_r+0xbb0>
    3034:	4b28      	ldr	r3, [pc, #160]	; (30d8 <_strtod_r+0xc30>)
    3036:	1c30      	adds	r0, r6, #0
    3038:	9311      	str	r3, [sp, #68]	; 0x44
    303a:	2300      	movs	r3, #0
    303c:	9310      	str	r3, [sp, #64]	; 0x40
    303e:	1c39      	adds	r1, r7, #0
    3040:	9a10      	ldr	r2, [sp, #64]	; 0x40
    3042:	9b11      	ldr	r3, [sp, #68]	; 0x44
    3044:	f003 f8b4 	bl	61b0 <__aeabi_dmul>
    3048:	1c06      	adds	r6, r0, #0
    304a:	1e0f      	subs	r7, r1, #0
    304c:	d104      	bne.n	3058 <_strtod_r+0xbb0>
    304e:	2800      	cmp	r0, #0
    3050:	d102      	bne.n	3058 <_strtod_r+0xbb0>
    3052:	2322      	movs	r3, #34	; 0x22
    3054:	9a03      	ldr	r2, [sp, #12]
    3056:	6013      	str	r3, [r2, #0]
    3058:	9803      	ldr	r0, [sp, #12]
    305a:	991e      	ldr	r1, [sp, #120]	; 0x78
    305c:	f000 fc45 	bl	38ea <_Bfree>
    3060:	9803      	ldr	r0, [sp, #12]
    3062:	9908      	ldr	r1, [sp, #32]
    3064:	f000 fc41 	bl	38ea <_Bfree>
    3068:	9803      	ldr	r0, [sp, #12]
    306a:	9905      	ldr	r1, [sp, #20]
    306c:	f000 fc3d 	bl	38ea <_Bfree>
    3070:	9803      	ldr	r0, [sp, #12]
    3072:	990b      	ldr	r1, [sp, #44]	; 0x2c
    3074:	f000 fc39 	bl	38ea <_Bfree>
    3078:	9803      	ldr	r0, [sp, #12]
    307a:	9904      	ldr	r1, [sp, #16]
    307c:	f000 fc35 	bl	38ea <_Bfree>
    3080:	9b19      	ldr	r3, [sp, #100]	; 0x64
    3082:	2b00      	cmp	r3, #0
    3084:	d002      	beq.n	308c <_strtod_r+0xbe4>
    3086:	9b19      	ldr	r3, [sp, #100]	; 0x64
    3088:	9a1d      	ldr	r2, [sp, #116]	; 0x74
    308a:	601a      	str	r2, [r3, #0]
    308c:	9b0d      	ldr	r3, [sp, #52]	; 0x34
    308e:	2b00      	cmp	r3, #0
    3090:	d004      	beq.n	309c <_strtod_r+0xbf4>
    3092:	2380      	movs	r3, #128	; 0x80
    3094:	061b      	lsls	r3, r3, #24
    3096:	1c32      	adds	r2, r6, #0
    3098:	18fb      	adds	r3, r7, r3
    309a:	e001      	b.n	30a0 <_strtod_r+0xbf8>
    309c:	1c32      	adds	r2, r6, #0
    309e:	1c3b      	adds	r3, r7, #0
    30a0:	1c10      	adds	r0, r2, #0
    30a2:	1c19      	adds	r1, r3, #0
    30a4:	b023      	add	sp, #140	; 0x8c
    30a6:	bdf0      	pop	{r4, r5, r6, r7, pc}
    30a8:	7ff00000 	.word	0x7ff00000
    30ac:	7fe00000 	.word	0x7fe00000
    30b0:	fcb00000 	.word	0xfcb00000
    30b4:	7c9fffff 	.word	0x7c9fffff
    30b8:	7fefffff 	.word	0x7fefffff
    30bc:	ffc00000 	.word	0xffc00000
    30c0:	41dfffff 	.word	0x41dfffff
    30c4:	94a03595 	.word	0x94a03595
    30c8:	3fdfffff 	.word	0x3fdfffff
    30cc:	35afe535 	.word	0x35afe535
    30d0:	3fe00000 	.word	0x3fe00000
    30d4:	3fcfffff 	.word	0x3fcfffff
    30d8:	39500000 	.word	0x39500000

000030dc <strtod>:
    30dc:	b508      	push	{r3, lr}
    30de:	1c03      	adds	r3, r0, #0
    30e0:	1c0a      	adds	r2, r1, #0
    30e2:	4903      	ldr	r1, [pc, #12]	; (30f0 <strtod+0x14>)
    30e4:	6808      	ldr	r0, [r1, #0]
    30e6:	1c19      	adds	r1, r3, #0
    30e8:	f7ff f9de 	bl	24a8 <_strtod_r>
    30ec:	bd08      	pop	{r3, pc}
    30ee:	46c0      	nop			; (mov r8, r8)
    30f0:	20000070 	.word	0x20000070

000030f4 <_strtol_r>:
    30f4:	b5f0      	push	{r4, r5, r6, r7, lr}
    30f6:	1c1e      	adds	r6, r3, #0
    30f8:	4b44      	ldr	r3, [pc, #272]	; (320c <_strtol_r+0x118>)
    30fa:	b087      	sub	sp, #28
    30fc:	681b      	ldr	r3, [r3, #0]
    30fe:	9005      	str	r0, [sp, #20]
    3100:	9302      	str	r3, [sp, #8]
    3102:	1c0b      	adds	r3, r1, #0
    3104:	9103      	str	r1, [sp, #12]
    3106:	9201      	str	r2, [sp, #4]
    3108:	781c      	ldrb	r4, [r3, #0]
    310a:	9a02      	ldr	r2, [sp, #8]
    310c:	1c5d      	adds	r5, r3, #1
    310e:	1912      	adds	r2, r2, r4
    3110:	7850      	ldrb	r0, [r2, #1]
    3112:	2208      	movs	r2, #8
    3114:	4010      	ands	r0, r2
    3116:	d001      	beq.n	311c <_strtol_r+0x28>
    3118:	1c2b      	adds	r3, r5, #0
    311a:	e7f5      	b.n	3108 <_strtol_r+0x14>
    311c:	2c2d      	cmp	r4, #45	; 0x2d
    311e:	d104      	bne.n	312a <_strtol_r+0x36>
    3120:	1c9d      	adds	r5, r3, #2
    3122:	785c      	ldrb	r4, [r3, #1]
    3124:	2301      	movs	r3, #1
    3126:	9300      	str	r3, [sp, #0]
    3128:	e004      	b.n	3134 <_strtol_r+0x40>
    312a:	9000      	str	r0, [sp, #0]
    312c:	2c2b      	cmp	r4, #43	; 0x2b
    312e:	d101      	bne.n	3134 <_strtol_r+0x40>
    3130:	785c      	ldrb	r4, [r3, #1]
    3132:	1c9d      	adds	r5, r3, #2
    3134:	2e00      	cmp	r6, #0
    3136:	d002      	beq.n	313e <_strtol_r+0x4a>
    3138:	2e10      	cmp	r6, #16
    313a:	d10a      	bne.n	3152 <_strtol_r+0x5e>
    313c:	e060      	b.n	3200 <_strtol_r+0x10c>
    313e:	2c30      	cmp	r4, #48	; 0x30
    3140:	d15c      	bne.n	31fc <_strtol_r+0x108>
    3142:	2220      	movs	r2, #32
    3144:	782b      	ldrb	r3, [r5, #0]
    3146:	4393      	bics	r3, r2
    3148:	2b58      	cmp	r3, #88	; 0x58
    314a:	d152      	bne.n	31f2 <_strtol_r+0xfe>
    314c:	2610      	movs	r6, #16
    314e:	786c      	ldrb	r4, [r5, #1]
    3150:	3502      	adds	r5, #2
    3152:	9f00      	ldr	r7, [sp, #0]
    3154:	1c31      	adds	r1, r6, #0
    3156:	1e7b      	subs	r3, r7, #1
    3158:	419f      	sbcs	r7, r3
    315a:	4b2d      	ldr	r3, [pc, #180]	; (3210 <_strtol_r+0x11c>)
    315c:	18ff      	adds	r7, r7, r3
    315e:	1c38      	adds	r0, r7, #0
    3160:	f001 f8bc 	bl	42dc <__aeabi_uidivmod>
    3164:	1c38      	adds	r0, r7, #0
    3166:	9104      	str	r1, [sp, #16]
    3168:	1c31      	adds	r1, r6, #0
    316a:	f001 f831 	bl	41d0 <__aeabi_uidiv>
    316e:	2200      	movs	r2, #0
    3170:	1c07      	adds	r7, r0, #0
    3172:	1c13      	adds	r3, r2, #0
    3174:	9902      	ldr	r1, [sp, #8]
    3176:	1909      	adds	r1, r1, r4
    3178:	7849      	ldrb	r1, [r1, #1]
    317a:	0748      	lsls	r0, r1, #29
    317c:	d501      	bpl.n	3182 <_strtol_r+0x8e>
    317e:	3c30      	subs	r4, #48	; 0x30
    3180:	e007      	b.n	3192 <_strtol_r+0x9e>
    3182:	2003      	movs	r0, #3
    3184:	4008      	ands	r0, r1
    3186:	d017      	beq.n	31b8 <_strtol_r+0xc4>
    3188:	2137      	movs	r1, #55	; 0x37
    318a:	2801      	cmp	r0, #1
    318c:	d000      	beq.n	3190 <_strtol_r+0x9c>
    318e:	3120      	adds	r1, #32
    3190:	1a64      	subs	r4, r4, r1
    3192:	42b4      	cmp	r4, r6
    3194:	da10      	bge.n	31b8 <_strtol_r+0xc4>
    3196:	1c51      	adds	r1, r2, #1
    3198:	d00b      	beq.n	31b2 <_strtol_r+0xbe>
    319a:	42bb      	cmp	r3, r7
    319c:	d807      	bhi.n	31ae <_strtol_r+0xba>
    319e:	d102      	bne.n	31a6 <_strtol_r+0xb2>
    31a0:	9a04      	ldr	r2, [sp, #16]
    31a2:	4294      	cmp	r4, r2
    31a4:	dc03      	bgt.n	31ae <_strtol_r+0xba>
    31a6:	4373      	muls	r3, r6
    31a8:	2201      	movs	r2, #1
    31aa:	18e3      	adds	r3, r4, r3
    31ac:	e001      	b.n	31b2 <_strtol_r+0xbe>
    31ae:	2201      	movs	r2, #1
    31b0:	4252      	negs	r2, r2
    31b2:	782c      	ldrb	r4, [r5, #0]
    31b4:	3501      	adds	r5, #1
    31b6:	e7dd      	b.n	3174 <_strtol_r+0x80>
    31b8:	1c18      	adds	r0, r3, #0
    31ba:	1c51      	adds	r1, r2, #1
    31bc:	d10b      	bne.n	31d6 <_strtol_r+0xe2>
    31be:	9800      	ldr	r0, [sp, #0]
    31c0:	9a05      	ldr	r2, [sp, #20]
    31c2:	1e43      	subs	r3, r0, #1
    31c4:	4198      	sbcs	r0, r3
    31c6:	4b12      	ldr	r3, [pc, #72]	; (3210 <_strtol_r+0x11c>)
    31c8:	18c0      	adds	r0, r0, r3
    31ca:	2322      	movs	r3, #34	; 0x22
    31cc:	6013      	str	r3, [r2, #0]
    31ce:	9b01      	ldr	r3, [sp, #4]
    31d0:	2b00      	cmp	r3, #0
    31d2:	d10a      	bne.n	31ea <_strtol_r+0xf6>
    31d4:	e017      	b.n	3206 <_strtol_r+0x112>
    31d6:	9900      	ldr	r1, [sp, #0]
    31d8:	2900      	cmp	r1, #0
    31da:	d000      	beq.n	31de <_strtol_r+0xea>
    31dc:	4258      	negs	r0, r3
    31de:	9b01      	ldr	r3, [sp, #4]
    31e0:	2b00      	cmp	r3, #0
    31e2:	d010      	beq.n	3206 <_strtol_r+0x112>
    31e4:	9b03      	ldr	r3, [sp, #12]
    31e6:	2a00      	cmp	r2, #0
    31e8:	d000      	beq.n	31ec <_strtol_r+0xf8>
    31ea:	1e6b      	subs	r3, r5, #1
    31ec:	9a01      	ldr	r2, [sp, #4]
    31ee:	6013      	str	r3, [r2, #0]
    31f0:	e009      	b.n	3206 <_strtol_r+0x112>
    31f2:	2430      	movs	r4, #48	; 0x30
    31f4:	2e00      	cmp	r6, #0
    31f6:	d1ac      	bne.n	3152 <_strtol_r+0x5e>
    31f8:	2608      	movs	r6, #8
    31fa:	e7aa      	b.n	3152 <_strtol_r+0x5e>
    31fc:	260a      	movs	r6, #10
    31fe:	e7a8      	b.n	3152 <_strtol_r+0x5e>
    3200:	2c30      	cmp	r4, #48	; 0x30
    3202:	d1a6      	bne.n	3152 <_strtol_r+0x5e>
    3204:	e79d      	b.n	3142 <_strtol_r+0x4e>
    3206:	b007      	add	sp, #28
    3208:	bdf0      	pop	{r4, r5, r6, r7, pc}
    320a:	46c0      	nop			; (mov r8, r8)
    320c:	20000074 	.word	0x20000074
    3210:	7fffffff 	.word	0x7fffffff

00003214 <strtol>:
    3214:	b538      	push	{r3, r4, r5, lr}
    3216:	1c05      	adds	r5, r0, #0
    3218:	1c0c      	adds	r4, r1, #0
    321a:	1c13      	adds	r3, r2, #0
    321c:	4a03      	ldr	r2, [pc, #12]	; (322c <strtol+0x18>)
    321e:	1c29      	adds	r1, r5, #0
    3220:	6810      	ldr	r0, [r2, #0]
    3222:	1c22      	adds	r2, r4, #0
    3224:	f7ff ff66 	bl	30f4 <_strtol_r>
    3228:	bd38      	pop	{r3, r4, r5, pc}
    322a:	46c0      	nop			; (mov r8, r8)
    322c:	20000070 	.word	0x20000070

00003230 <rshift>:
    3230:	b5f0      	push	{r4, r5, r6, r7, lr}
    3232:	1c06      	adds	r6, r0, #0
    3234:	6905      	ldr	r5, [r0, #16]
    3236:	3614      	adds	r6, #20
    3238:	114a      	asrs	r2, r1, #5
    323a:	1c34      	adds	r4, r6, #0
    323c:	42aa      	cmp	r2, r5
    323e:	da25      	bge.n	328c <rshift+0x5c>
    3240:	231f      	movs	r3, #31
    3242:	00ad      	lsls	r5, r5, #2
    3244:	0092      	lsls	r2, r2, #2
    3246:	4019      	ands	r1, r3
    3248:	1975      	adds	r5, r6, r5
    324a:	18b2      	adds	r2, r6, r2
    324c:	1c33      	adds	r3, r6, #0
    324e:	2900      	cmp	r1, #0
    3250:	d016      	beq.n	3280 <rshift+0x50>
    3252:	1c13      	adds	r3, r2, #0
    3254:	cb04      	ldmia	r3!, {r2}
    3256:	2720      	movs	r7, #32
    3258:	40ca      	lsrs	r2, r1
    325a:	46b4      	mov	ip, r6
    325c:	1a7f      	subs	r7, r7, r1
    325e:	4664      	mov	r4, ip
    3260:	42ab      	cmp	r3, r5
    3262:	d208      	bcs.n	3276 <rshift+0x46>
    3264:	681c      	ldr	r4, [r3, #0]
    3266:	40bc      	lsls	r4, r7
    3268:	4322      	orrs	r2, r4
    326a:	4664      	mov	r4, ip
    326c:	c404      	stmia	r4!, {r2}
    326e:	cb04      	ldmia	r3!, {r2}
    3270:	46a4      	mov	ip, r4
    3272:	40ca      	lsrs	r2, r1
    3274:	e7f3      	b.n	325e <rshift+0x2e>
    3276:	6022      	str	r2, [r4, #0]
    3278:	2a00      	cmp	r2, #0
    327a:	d007      	beq.n	328c <rshift+0x5c>
    327c:	3404      	adds	r4, #4
    327e:	e005      	b.n	328c <rshift+0x5c>
    3280:	1c1c      	adds	r4, r3, #0
    3282:	42aa      	cmp	r2, r5
    3284:	d202      	bcs.n	328c <rshift+0x5c>
    3286:	ca02      	ldmia	r2!, {r1}
    3288:	c302      	stmia	r3!, {r1}
    328a:	e7f9      	b.n	3280 <rshift+0x50>
    328c:	1ba3      	subs	r3, r4, r6
    328e:	109b      	asrs	r3, r3, #2
    3290:	6103      	str	r3, [r0, #16]
    3292:	d100      	bne.n	3296 <rshift+0x66>
    3294:	6143      	str	r3, [r0, #20]
    3296:	bdf0      	pop	{r4, r5, r6, r7, pc}

00003298 <__hexdig_fun>:
    3298:	1c03      	adds	r3, r0, #0
    329a:	3b30      	subs	r3, #48	; 0x30
    329c:	2b09      	cmp	r3, #9
    329e:	d801      	bhi.n	32a4 <__hexdig_fun+0xc>
    32a0:	3820      	subs	r0, #32
    32a2:	e00b      	b.n	32bc <__hexdig_fun+0x24>
    32a4:	1c03      	adds	r3, r0, #0
    32a6:	3b61      	subs	r3, #97	; 0x61
    32a8:	2b05      	cmp	r3, #5
    32aa:	d801      	bhi.n	32b0 <__hexdig_fun+0x18>
    32ac:	3847      	subs	r0, #71	; 0x47
    32ae:	e005      	b.n	32bc <__hexdig_fun+0x24>
    32b0:	1c02      	adds	r2, r0, #0
    32b2:	3a41      	subs	r2, #65	; 0x41
    32b4:	2300      	movs	r3, #0
    32b6:	2a05      	cmp	r2, #5
    32b8:	d801      	bhi.n	32be <__hexdig_fun+0x26>
    32ba:	3827      	subs	r0, #39	; 0x27
    32bc:	b2c3      	uxtb	r3, r0
    32be:	1c18      	adds	r0, r3, #0
    32c0:	4770      	bx	lr

000032c2 <__gethex>:
    32c2:	b5f0      	push	{r4, r5, r6, r7, lr}
    32c4:	b08d      	sub	sp, #52	; 0x34
    32c6:	9109      	str	r1, [sp, #36]	; 0x24
    32c8:	9202      	str	r2, [sp, #8]
    32ca:	930a      	str	r3, [sp, #40]	; 0x28
    32cc:	9005      	str	r0, [sp, #20]
    32ce:	f000 fac7 	bl	3860 <_localeconv_r>
    32d2:	6803      	ldr	r3, [r0, #0]
    32d4:	1c18      	adds	r0, r3, #0
    32d6:	9307      	str	r3, [sp, #28]
    32d8:	f000 ff4a 	bl	4170 <strlen>
    32dc:	9b07      	ldr	r3, [sp, #28]
    32de:	9004      	str	r0, [sp, #16]
    32e0:	181b      	adds	r3, r3, r0
    32e2:	3b01      	subs	r3, #1
    32e4:	781b      	ldrb	r3, [r3, #0]
    32e6:	930b      	str	r3, [sp, #44]	; 0x2c
    32e8:	9b09      	ldr	r3, [sp, #36]	; 0x24
    32ea:	6819      	ldr	r1, [r3, #0]
    32ec:	1c8a      	adds	r2, r1, #2
    32ee:	9201      	str	r2, [sp, #4]
    32f0:	9801      	ldr	r0, [sp, #4]
    32f2:	1a53      	subs	r3, r2, r1
    32f4:	7800      	ldrb	r0, [r0, #0]
    32f6:	3b02      	subs	r3, #2
    32f8:	3201      	adds	r2, #1
    32fa:	2830      	cmp	r0, #48	; 0x30
    32fc:	d0f7      	beq.n	32ee <__gethex+0x2c>
    32fe:	9308      	str	r3, [sp, #32]
    3300:	f7ff ffca 	bl	3298 <__hexdig_fun>
    3304:	1e06      	subs	r6, r0, #0
    3306:	d120      	bne.n	334a <__gethex+0x88>
    3308:	9801      	ldr	r0, [sp, #4]
    330a:	9907      	ldr	r1, [sp, #28]
    330c:	9a04      	ldr	r2, [sp, #16]
    330e:	f000 ff36 	bl	417e <strncmp>
    3312:	2800      	cmp	r0, #0
    3314:	d13c      	bne.n	3390 <__gethex+0xce>
    3316:	9b01      	ldr	r3, [sp, #4]
    3318:	9a04      	ldr	r2, [sp, #16]
    331a:	189c      	adds	r4, r3, r2
    331c:	7820      	ldrb	r0, [r4, #0]
    331e:	f7ff ffbb 	bl	3298 <__hexdig_fun>
    3322:	2800      	cmp	r0, #0
    3324:	d037      	beq.n	3396 <__gethex+0xd4>
    3326:	9401      	str	r4, [sp, #4]
    3328:	9b01      	ldr	r3, [sp, #4]
    332a:	7818      	ldrb	r0, [r3, #0]
    332c:	2830      	cmp	r0, #48	; 0x30
    332e:	d103      	bne.n	3338 <__gethex+0x76>
    3330:	9b01      	ldr	r3, [sp, #4]
    3332:	3301      	adds	r3, #1
    3334:	9301      	str	r3, [sp, #4]
    3336:	e7f7      	b.n	3328 <__gethex+0x66>
    3338:	f7ff ffae 	bl	3298 <__hexdig_fun>
    333c:	4243      	negs	r3, r0
    333e:	4143      	adcs	r3, r0
    3340:	9303      	str	r3, [sp, #12]
    3342:	2301      	movs	r3, #1
    3344:	1c26      	adds	r6, r4, #0
    3346:	9308      	str	r3, [sp, #32]
    3348:	e002      	b.n	3350 <__gethex+0x8e>
    334a:	2300      	movs	r3, #0
    334c:	1c1e      	adds	r6, r3, #0
    334e:	9303      	str	r3, [sp, #12]
    3350:	9c01      	ldr	r4, [sp, #4]
    3352:	7820      	ldrb	r0, [r4, #0]
    3354:	f7ff ffa0 	bl	3298 <__hexdig_fun>
    3358:	2800      	cmp	r0, #0
    335a:	d001      	beq.n	3360 <__gethex+0x9e>
    335c:	3401      	adds	r4, #1
    335e:	e7f8      	b.n	3352 <__gethex+0x90>
    3360:	1c20      	adds	r0, r4, #0
    3362:	9907      	ldr	r1, [sp, #28]
    3364:	9a04      	ldr	r2, [sp, #16]
    3366:	f000 ff0a 	bl	417e <strncmp>
    336a:	2800      	cmp	r0, #0
    336c:	d10b      	bne.n	3386 <__gethex+0xc4>
    336e:	2e00      	cmp	r6, #0
    3370:	d10b      	bne.n	338a <__gethex+0xc8>
    3372:	9b04      	ldr	r3, [sp, #16]
    3374:	18e6      	adds	r6, r4, r3
    3376:	1c34      	adds	r4, r6, #0
    3378:	7820      	ldrb	r0, [r4, #0]
    337a:	f7ff ff8d 	bl	3298 <__hexdig_fun>
    337e:	2800      	cmp	r0, #0
    3380:	d001      	beq.n	3386 <__gethex+0xc4>
    3382:	3401      	adds	r4, #1
    3384:	e7f8      	b.n	3378 <__gethex+0xb6>
    3386:	1e37      	subs	r7, r6, #0
    3388:	d008      	beq.n	339c <__gethex+0xda>
    338a:	1b36      	subs	r6, r6, r4
    338c:	00b7      	lsls	r7, r6, #2
    338e:	e005      	b.n	339c <__gethex+0xda>
    3390:	9c01      	ldr	r4, [sp, #4]
    3392:	1c37      	adds	r7, r6, #0
    3394:	e000      	b.n	3398 <__gethex+0xd6>
    3396:	1c07      	adds	r7, r0, #0
    3398:	2301      	movs	r3, #1
    339a:	9303      	str	r3, [sp, #12]
    339c:	7823      	ldrb	r3, [r4, #0]
    339e:	2b50      	cmp	r3, #80	; 0x50
    33a0:	d001      	beq.n	33a6 <__gethex+0xe4>
    33a2:	2b70      	cmp	r3, #112	; 0x70
    33a4:	d128      	bne.n	33f8 <__gethex+0x136>
    33a6:	7863      	ldrb	r3, [r4, #1]
    33a8:	2b2b      	cmp	r3, #43	; 0x2b
    33aa:	d007      	beq.n	33bc <__gethex+0xfa>
    33ac:	2b2d      	cmp	r3, #45	; 0x2d
    33ae:	d003      	beq.n	33b8 <__gethex+0xf6>
    33b0:	2300      	movs	r3, #0
    33b2:	1c65      	adds	r5, r4, #1
    33b4:	9306      	str	r3, [sp, #24]
    33b6:	e004      	b.n	33c2 <__gethex+0x100>
    33b8:	2301      	movs	r3, #1
    33ba:	e000      	b.n	33be <__gethex+0xfc>
    33bc:	2300      	movs	r3, #0
    33be:	9306      	str	r3, [sp, #24]
    33c0:	1ca5      	adds	r5, r4, #2
    33c2:	7828      	ldrb	r0, [r5, #0]
    33c4:	f7ff ff68 	bl	3298 <__hexdig_fun>
    33c8:	1e43      	subs	r3, r0, #1
    33ca:	b2db      	uxtb	r3, r3
    33cc:	2b18      	cmp	r3, #24
    33ce:	d813      	bhi.n	33f8 <__gethex+0x136>
    33d0:	3810      	subs	r0, #16
    33d2:	3501      	adds	r5, #1
    33d4:	1c06      	adds	r6, r0, #0
    33d6:	7828      	ldrb	r0, [r5, #0]
    33d8:	f7ff ff5e 	bl	3298 <__hexdig_fun>
    33dc:	1e43      	subs	r3, r0, #1
    33de:	b2db      	uxtb	r3, r3
    33e0:	2b18      	cmp	r3, #24
    33e2:	d803      	bhi.n	33ec <__gethex+0x12a>
    33e4:	230a      	movs	r3, #10
    33e6:	435e      	muls	r6, r3
    33e8:	1830      	adds	r0, r6, r0
    33ea:	e7f1      	b.n	33d0 <__gethex+0x10e>
    33ec:	9b06      	ldr	r3, [sp, #24]
    33ee:	2b00      	cmp	r3, #0
    33f0:	d000      	beq.n	33f4 <__gethex+0x132>
    33f2:	4276      	negs	r6, r6
    33f4:	19bf      	adds	r7, r7, r6
    33f6:	e000      	b.n	33fa <__gethex+0x138>
    33f8:	1c25      	adds	r5, r4, #0
    33fa:	9b09      	ldr	r3, [sp, #36]	; 0x24
    33fc:	601d      	str	r5, [r3, #0]
    33fe:	9b03      	ldr	r3, [sp, #12]
    3400:	2b00      	cmp	r3, #0
    3402:	d006      	beq.n	3412 <__gethex+0x150>
    3404:	2000      	movs	r0, #0
    3406:	9b08      	ldr	r3, [sp, #32]
    3408:	4283      	cmp	r3, r0
    340a:	d000      	beq.n	340e <__gethex+0x14c>
    340c:	e17b      	b.n	3706 <__gethex+0x444>
    340e:	3006      	adds	r0, #6
    3410:	e179      	b.n	3706 <__gethex+0x444>
    3412:	9b01      	ldr	r3, [sp, #4]
    3414:	9903      	ldr	r1, [sp, #12]
    3416:	1ae3      	subs	r3, r4, r3
    3418:	3b01      	subs	r3, #1
    341a:	2b07      	cmp	r3, #7
    341c:	dd02      	ble.n	3424 <__gethex+0x162>
    341e:	3101      	adds	r1, #1
    3420:	105b      	asrs	r3, r3, #1
    3422:	e7fa      	b.n	341a <__gethex+0x158>
    3424:	9805      	ldr	r0, [sp, #20]
    3426:	f000 fa28 	bl	387a <_Balloc>
    342a:	1c03      	adds	r3, r0, #0
    342c:	2600      	movs	r6, #0
    342e:	1c05      	adds	r5, r0, #0
    3430:	3314      	adds	r3, #20
    3432:	9303      	str	r3, [sp, #12]
    3434:	9308      	str	r3, [sp, #32]
    3436:	9606      	str	r6, [sp, #24]
    3438:	9b01      	ldr	r3, [sp, #4]
    343a:	429c      	cmp	r4, r3
    343c:	d92a      	bls.n	3494 <__gethex+0x1d2>
    343e:	1e63      	subs	r3, r4, #1
    3440:	9309      	str	r3, [sp, #36]	; 0x24
    3442:	9a0b      	ldr	r2, [sp, #44]	; 0x2c
    3444:	781b      	ldrb	r3, [r3, #0]
    3446:	4293      	cmp	r3, r2
    3448:	d009      	beq.n	345e <__gethex+0x19c>
    344a:	9b06      	ldr	r3, [sp, #24]
    344c:	2b20      	cmp	r3, #32
    344e:	d114      	bne.n	347a <__gethex+0x1b8>
    3450:	9b08      	ldr	r3, [sp, #32]
    3452:	601e      	str	r6, [r3, #0]
    3454:	2600      	movs	r6, #0
    3456:	3304      	adds	r3, #4
    3458:	9308      	str	r3, [sp, #32]
    345a:	9606      	str	r6, [sp, #24]
    345c:	e00d      	b.n	347a <__gethex+0x1b8>
    345e:	9b09      	ldr	r3, [sp, #36]	; 0x24
    3460:	9a04      	ldr	r2, [sp, #16]
    3462:	1a9c      	subs	r4, r3, r2
    3464:	9b01      	ldr	r3, [sp, #4]
    3466:	3401      	adds	r4, #1
    3468:	429c      	cmp	r4, r3
    346a:	d3ee      	bcc.n	344a <__gethex+0x188>
    346c:	1c20      	adds	r0, r4, #0
    346e:	9907      	ldr	r1, [sp, #28]
    3470:	f000 fe85 	bl	417e <strncmp>
    3474:	2800      	cmp	r0, #0
    3476:	d0df      	beq.n	3438 <__gethex+0x176>
    3478:	e7e7      	b.n	344a <__gethex+0x188>
    347a:	9b09      	ldr	r3, [sp, #36]	; 0x24
    347c:	7818      	ldrb	r0, [r3, #0]
    347e:	f7ff ff0b 	bl	3298 <__hexdig_fun>
    3482:	230f      	movs	r3, #15
    3484:	4018      	ands	r0, r3
    3486:	9b06      	ldr	r3, [sp, #24]
    3488:	9c09      	ldr	r4, [sp, #36]	; 0x24
    348a:	4098      	lsls	r0, r3
    348c:	3304      	adds	r3, #4
    348e:	4306      	orrs	r6, r0
    3490:	9306      	str	r3, [sp, #24]
    3492:	e7d1      	b.n	3438 <__gethex+0x176>
    3494:	9c08      	ldr	r4, [sp, #32]
    3496:	9b03      	ldr	r3, [sp, #12]
    3498:	c440      	stmia	r4!, {r6}
    349a:	1ae4      	subs	r4, r4, r3
    349c:	10a4      	asrs	r4, r4, #2
    349e:	612c      	str	r4, [r5, #16]
    34a0:	1c30      	adds	r0, r6, #0
    34a2:	f000 fab7 	bl	3a14 <__hi0bits>
    34a6:	9b02      	ldr	r3, [sp, #8]
    34a8:	0164      	lsls	r4, r4, #5
    34aa:	681b      	ldr	r3, [r3, #0]
    34ac:	1a26      	subs	r6, r4, r0
    34ae:	9301      	str	r3, [sp, #4]
    34b0:	429e      	cmp	r6, r3
    34b2:	dd25      	ble.n	3500 <__gethex+0x23e>
    34b4:	1af6      	subs	r6, r6, r3
    34b6:	1c28      	adds	r0, r5, #0
    34b8:	1c31      	adds	r1, r6, #0
    34ba:	f000 fdbf 	bl	403c <__any_on>
    34be:	2400      	movs	r4, #0
    34c0:	42a0      	cmp	r0, r4
    34c2:	d017      	beq.n	34f4 <__gethex+0x232>
    34c4:	231f      	movs	r3, #31
    34c6:	3401      	adds	r4, #1
    34c8:	1c20      	adds	r0, r4, #0
    34ca:	1e72      	subs	r2, r6, #1
    34cc:	4013      	ands	r3, r2
    34ce:	4098      	lsls	r0, r3
    34d0:	1c03      	adds	r3, r0, #0
    34d2:	1151      	asrs	r1, r2, #5
    34d4:	9803      	ldr	r0, [sp, #12]
    34d6:	0089      	lsls	r1, r1, #2
    34d8:	5809      	ldr	r1, [r1, r0]
    34da:	4219      	tst	r1, r3
    34dc:	d00a      	beq.n	34f4 <__gethex+0x232>
    34de:	42a2      	cmp	r2, r4
    34e0:	dc01      	bgt.n	34e6 <__gethex+0x224>
    34e2:	2402      	movs	r4, #2
    34e4:	e006      	b.n	34f4 <__gethex+0x232>
    34e6:	1eb1      	subs	r1, r6, #2
    34e8:	1c28      	adds	r0, r5, #0
    34ea:	f000 fda7 	bl	403c <__any_on>
    34ee:	2800      	cmp	r0, #0
    34f0:	d0f7      	beq.n	34e2 <__gethex+0x220>
    34f2:	2403      	movs	r4, #3
    34f4:	1c28      	adds	r0, r5, #0
    34f6:	1c31      	adds	r1, r6, #0
    34f8:	f7ff fe9a 	bl	3230 <rshift>
    34fc:	19bf      	adds	r7, r7, r6
    34fe:	e00e      	b.n	351e <__gethex+0x25c>
    3500:	9b01      	ldr	r3, [sp, #4]
    3502:	2400      	movs	r4, #0
    3504:	429e      	cmp	r6, r3
    3506:	da0a      	bge.n	351e <__gethex+0x25c>
    3508:	1b9e      	subs	r6, r3, r6
    350a:	1c29      	adds	r1, r5, #0
    350c:	9805      	ldr	r0, [sp, #20]
    350e:	1c32      	adds	r2, r6, #0
    3510:	f000 fbb2 	bl	3c78 <__lshift>
    3514:	1c03      	adds	r3, r0, #0
    3516:	1c05      	adds	r5, r0, #0
    3518:	3314      	adds	r3, #20
    351a:	1bbf      	subs	r7, r7, r6
    351c:	9303      	str	r3, [sp, #12]
    351e:	9b02      	ldr	r3, [sp, #8]
    3520:	689b      	ldr	r3, [r3, #8]
    3522:	9304      	str	r3, [sp, #16]
    3524:	429f      	cmp	r7, r3
    3526:	dd08      	ble.n	353a <__gethex+0x278>
    3528:	9805      	ldr	r0, [sp, #20]
    352a:	1c29      	adds	r1, r5, #0
    352c:	f000 f9dd 	bl	38ea <_Bfree>
    3530:	2300      	movs	r3, #0
    3532:	9a12      	ldr	r2, [sp, #72]	; 0x48
    3534:	20a3      	movs	r0, #163	; 0xa3
    3536:	6013      	str	r3, [r2, #0]
    3538:	e0e5      	b.n	3706 <__gethex+0x444>
    353a:	9b02      	ldr	r3, [sp, #8]
    353c:	685e      	ldr	r6, [r3, #4]
    353e:	42b7      	cmp	r7, r6
    3540:	da5a      	bge.n	35f8 <__gethex+0x336>
    3542:	9b01      	ldr	r3, [sp, #4]
    3544:	1bf6      	subs	r6, r6, r7
    3546:	429e      	cmp	r6, r3
    3548:	db32      	blt.n	35b0 <__gethex+0x2ee>
    354a:	9b02      	ldr	r3, [sp, #8]
    354c:	68db      	ldr	r3, [r3, #12]
    354e:	2b02      	cmp	r3, #2
    3550:	d01e      	beq.n	3590 <__gethex+0x2ce>
    3552:	2b03      	cmp	r3, #3
    3554:	d020      	beq.n	3598 <__gethex+0x2d6>
    3556:	2b01      	cmp	r3, #1
    3558:	d121      	bne.n	359e <__gethex+0x2dc>
    355a:	9b01      	ldr	r3, [sp, #4]
    355c:	429e      	cmp	r6, r3
    355e:	d11e      	bne.n	359e <__gethex+0x2dc>
    3560:	2b01      	cmp	r3, #1
    3562:	dc0d      	bgt.n	3580 <__gethex+0x2be>
    3564:	9b02      	ldr	r3, [sp, #8]
    3566:	2062      	movs	r0, #98	; 0x62
    3568:	685b      	ldr	r3, [r3, #4]
    356a:	9301      	str	r3, [sp, #4]
    356c:	9a01      	ldr	r2, [sp, #4]
    356e:	9b0a      	ldr	r3, [sp, #40]	; 0x28
    3570:	601a      	str	r2, [r3, #0]
    3572:	2301      	movs	r3, #1
    3574:	9a03      	ldr	r2, [sp, #12]
    3576:	612b      	str	r3, [r5, #16]
    3578:	6013      	str	r3, [r2, #0]
    357a:	9b12      	ldr	r3, [sp, #72]	; 0x48
    357c:	601d      	str	r5, [r3, #0]
    357e:	e0c2      	b.n	3706 <__gethex+0x444>
    3580:	9901      	ldr	r1, [sp, #4]
    3582:	1c28      	adds	r0, r5, #0
    3584:	3901      	subs	r1, #1
    3586:	f000 fd59 	bl	403c <__any_on>
    358a:	2800      	cmp	r0, #0
    358c:	d1ea      	bne.n	3564 <__gethex+0x2a2>
    358e:	e006      	b.n	359e <__gethex+0x2dc>
    3590:	9b13      	ldr	r3, [sp, #76]	; 0x4c
    3592:	2b00      	cmp	r3, #0
    3594:	d0e6      	beq.n	3564 <__gethex+0x2a2>
    3596:	e002      	b.n	359e <__gethex+0x2dc>
    3598:	9b13      	ldr	r3, [sp, #76]	; 0x4c
    359a:	2b00      	cmp	r3, #0
    359c:	d1e2      	bne.n	3564 <__gethex+0x2a2>
    359e:	9805      	ldr	r0, [sp, #20]
    35a0:	1c29      	adds	r1, r5, #0
    35a2:	f000 f9a2 	bl	38ea <_Bfree>
    35a6:	2300      	movs	r3, #0
    35a8:	9a12      	ldr	r2, [sp, #72]	; 0x48
    35aa:	2050      	movs	r0, #80	; 0x50
    35ac:	6013      	str	r3, [r2, #0]
    35ae:	e0aa      	b.n	3706 <__gethex+0x444>
    35b0:	1e77      	subs	r7, r6, #1
    35b2:	2c00      	cmp	r4, #0
    35b4:	d107      	bne.n	35c6 <__gethex+0x304>
    35b6:	2f00      	cmp	r7, #0
    35b8:	dd06      	ble.n	35c8 <__gethex+0x306>
    35ba:	1c28      	adds	r0, r5, #0
    35bc:	1c39      	adds	r1, r7, #0
    35be:	f000 fd3d 	bl	403c <__any_on>
    35c2:	1c04      	adds	r4, r0, #0
    35c4:	e000      	b.n	35c8 <__gethex+0x306>
    35c6:	2401      	movs	r4, #1
    35c8:	231f      	movs	r3, #31
    35ca:	117a      	asrs	r2, r7, #5
    35cc:	401f      	ands	r7, r3
    35ce:	3b1e      	subs	r3, #30
    35d0:	40bb      	lsls	r3, r7
    35d2:	1c1f      	adds	r7, r3, #0
    35d4:	9b03      	ldr	r3, [sp, #12]
    35d6:	0092      	lsls	r2, r2, #2
    35d8:	58d3      	ldr	r3, [r2, r3]
    35da:	423b      	tst	r3, r7
    35dc:	d001      	beq.n	35e2 <__gethex+0x320>
    35de:	2302      	movs	r3, #2
    35e0:	431c      	orrs	r4, r3
    35e2:	9b01      	ldr	r3, [sp, #4]
    35e4:	1c31      	adds	r1, r6, #0
    35e6:	1b9b      	subs	r3, r3, r6
    35e8:	1c28      	adds	r0, r5, #0
    35ea:	9301      	str	r3, [sp, #4]
    35ec:	f7ff fe20 	bl	3230 <rshift>
    35f0:	9b02      	ldr	r3, [sp, #8]
    35f2:	2602      	movs	r6, #2
    35f4:	685f      	ldr	r7, [r3, #4]
    35f6:	e000      	b.n	35fa <__gethex+0x338>
    35f8:	2601      	movs	r6, #1
    35fa:	2c00      	cmp	r4, #0
    35fc:	d07e      	beq.n	36fc <__gethex+0x43a>
    35fe:	9b02      	ldr	r3, [sp, #8]
    3600:	68db      	ldr	r3, [r3, #12]
    3602:	2b02      	cmp	r3, #2
    3604:	d00b      	beq.n	361e <__gethex+0x35c>
    3606:	2b03      	cmp	r3, #3
    3608:	d00d      	beq.n	3626 <__gethex+0x364>
    360a:	2b01      	cmp	r3, #1
    360c:	d174      	bne.n	36f8 <__gethex+0x436>
    360e:	07a2      	lsls	r2, r4, #30
    3610:	d572      	bpl.n	36f8 <__gethex+0x436>
    3612:	9a03      	ldr	r2, [sp, #12]
    3614:	6812      	ldr	r2, [r2, #0]
    3616:	4314      	orrs	r4, r2
    3618:	421c      	tst	r4, r3
    361a:	d107      	bne.n	362c <__gethex+0x36a>
    361c:	e06c      	b.n	36f8 <__gethex+0x436>
    361e:	2301      	movs	r3, #1
    3620:	9a13      	ldr	r2, [sp, #76]	; 0x4c
    3622:	1a9b      	subs	r3, r3, r2
    3624:	9313      	str	r3, [sp, #76]	; 0x4c
    3626:	9b13      	ldr	r3, [sp, #76]	; 0x4c
    3628:	2b00      	cmp	r3, #0
    362a:	d065      	beq.n	36f8 <__gethex+0x436>
    362c:	692c      	ldr	r4, [r5, #16]
    362e:	00a3      	lsls	r3, r4, #2
    3630:	9303      	str	r3, [sp, #12]
    3632:	1c2b      	adds	r3, r5, #0
    3634:	9a03      	ldr	r2, [sp, #12]
    3636:	3314      	adds	r3, #20
    3638:	1899      	adds	r1, r3, r2
    363a:	681a      	ldr	r2, [r3, #0]
    363c:	1c50      	adds	r0, r2, #1
    363e:	d002      	beq.n	3646 <__gethex+0x384>
    3640:	3201      	adds	r2, #1
    3642:	601a      	str	r2, [r3, #0]
    3644:	e021      	b.n	368a <__gethex+0x3c8>
    3646:	2200      	movs	r2, #0
    3648:	c304      	stmia	r3!, {r2}
    364a:	4299      	cmp	r1, r3
    364c:	d8f5      	bhi.n	363a <__gethex+0x378>
    364e:	68ab      	ldr	r3, [r5, #8]
    3650:	429c      	cmp	r4, r3
    3652:	db12      	blt.n	367a <__gethex+0x3b8>
    3654:	686b      	ldr	r3, [r5, #4]
    3656:	9805      	ldr	r0, [sp, #20]
    3658:	1c59      	adds	r1, r3, #1
    365a:	f000 f90e 	bl	387a <_Balloc>
    365e:	1c29      	adds	r1, r5, #0
    3660:	692b      	ldr	r3, [r5, #16]
    3662:	9004      	str	r0, [sp, #16]
    3664:	1c9a      	adds	r2, r3, #2
    3666:	310c      	adds	r1, #12
    3668:	0092      	lsls	r2, r2, #2
    366a:	300c      	adds	r0, #12
    366c:	f000 f8fc 	bl	3868 <memcpy>
    3670:	1c29      	adds	r1, r5, #0
    3672:	9805      	ldr	r0, [sp, #20]
    3674:	f000 f939 	bl	38ea <_Bfree>
    3678:	9d04      	ldr	r5, [sp, #16]
    367a:	692b      	ldr	r3, [r5, #16]
    367c:	1c5a      	adds	r2, r3, #1
    367e:	612a      	str	r2, [r5, #16]
    3680:	2201      	movs	r2, #1
    3682:	3304      	adds	r3, #4
    3684:	009b      	lsls	r3, r3, #2
    3686:	18eb      	adds	r3, r5, r3
    3688:	605a      	str	r2, [r3, #4]
    368a:	1c2b      	adds	r3, r5, #0
    368c:	3314      	adds	r3, #20
    368e:	2e02      	cmp	r6, #2
    3690:	d111      	bne.n	36b6 <__gethex+0x3f4>
    3692:	9a02      	ldr	r2, [sp, #8]
    3694:	9901      	ldr	r1, [sp, #4]
    3696:	6812      	ldr	r2, [r2, #0]
    3698:	3a01      	subs	r2, #1
    369a:	4291      	cmp	r1, r2
    369c:	d12a      	bne.n	36f4 <__gethex+0x432>
    369e:	114a      	asrs	r2, r1, #5
    36a0:	211f      	movs	r1, #31
    36a2:	9801      	ldr	r0, [sp, #4]
    36a4:	0092      	lsls	r2, r2, #2
    36a6:	4001      	ands	r1, r0
    36a8:	2001      	movs	r0, #1
    36aa:	1c04      	adds	r4, r0, #0
    36ac:	408c      	lsls	r4, r1
    36ae:	58d3      	ldr	r3, [r2, r3]
    36b0:	4223      	tst	r3, r4
    36b2:	d01f      	beq.n	36f4 <__gethex+0x432>
    36b4:	e00c      	b.n	36d0 <__gethex+0x40e>
    36b6:	692a      	ldr	r2, [r5, #16]
    36b8:	42a2      	cmp	r2, r4
    36ba:	dd0b      	ble.n	36d4 <__gethex+0x412>
    36bc:	1c28      	adds	r0, r5, #0
    36be:	2101      	movs	r1, #1
    36c0:	f7ff fdb6 	bl	3230 <rshift>
    36c4:	9b02      	ldr	r3, [sp, #8]
    36c6:	3701      	adds	r7, #1
    36c8:	689b      	ldr	r3, [r3, #8]
    36ca:	429f      	cmp	r7, r3
    36cc:	dd00      	ble.n	36d0 <__gethex+0x40e>
    36ce:	e72b      	b.n	3528 <__gethex+0x266>
    36d0:	2601      	movs	r6, #1
    36d2:	e00f      	b.n	36f4 <__gethex+0x432>
    36d4:	241f      	movs	r4, #31
    36d6:	9a01      	ldr	r2, [sp, #4]
    36d8:	2601      	movs	r6, #1
    36da:	4022      	ands	r2, r4
    36dc:	1e14      	subs	r4, r2, #0
    36de:	d009      	beq.n	36f4 <__gethex+0x432>
    36e0:	9a03      	ldr	r2, [sp, #12]
    36e2:	189b      	adds	r3, r3, r2
    36e4:	3b04      	subs	r3, #4
    36e6:	6818      	ldr	r0, [r3, #0]
    36e8:	f000 f994 	bl	3a14 <__hi0bits>
    36ec:	2120      	movs	r1, #32
    36ee:	1b0c      	subs	r4, r1, r4
    36f0:	42a0      	cmp	r0, r4
    36f2:	dbe3      	blt.n	36bc <__gethex+0x3fa>
    36f4:	2320      	movs	r3, #32
    36f6:	e000      	b.n	36fa <__gethex+0x438>
    36f8:	2310      	movs	r3, #16
    36fa:	431e      	orrs	r6, r3
    36fc:	1c30      	adds	r0, r6, #0
    36fe:	9b12      	ldr	r3, [sp, #72]	; 0x48
    3700:	601d      	str	r5, [r3, #0]
    3702:	9b0a      	ldr	r3, [sp, #40]	; 0x28
    3704:	601f      	str	r7, [r3, #0]
    3706:	b00d      	add	sp, #52	; 0x34
    3708:	bdf0      	pop	{r4, r5, r6, r7, pc}

0000370a <L_shift>:
    370a:	2308      	movs	r3, #8
    370c:	b570      	push	{r4, r5, r6, lr}
    370e:	2520      	movs	r5, #32
    3710:	1a9a      	subs	r2, r3, r2
    3712:	0092      	lsls	r2, r2, #2
    3714:	1aad      	subs	r5, r5, r2
    3716:	6843      	ldr	r3, [r0, #4]
    3718:	6806      	ldr	r6, [r0, #0]
    371a:	1c1c      	adds	r4, r3, #0
    371c:	40ac      	lsls	r4, r5
    371e:	40d3      	lsrs	r3, r2
    3720:	4334      	orrs	r4, r6
    3722:	6004      	str	r4, [r0, #0]
    3724:	6043      	str	r3, [r0, #4]
    3726:	3004      	adds	r0, #4
    3728:	4288      	cmp	r0, r1
    372a:	d3f4      	bcc.n	3716 <L_shift+0xc>
    372c:	bd70      	pop	{r4, r5, r6, pc}

0000372e <__hexnan>:
    372e:	b5f0      	push	{r4, r5, r6, r7, lr}
    3730:	b089      	sub	sp, #36	; 0x24
    3732:	9200      	str	r2, [sp, #0]
    3734:	680a      	ldr	r2, [r1, #0]
    3736:	9900      	ldr	r1, [sp, #0]
    3738:	1153      	asrs	r3, r2, #5
    373a:	009b      	lsls	r3, r3, #2
    373c:	18cb      	adds	r3, r1, r3
    373e:	9302      	str	r3, [sp, #8]
    3740:	231f      	movs	r3, #31
    3742:	401a      	ands	r2, r3
    3744:	9007      	str	r0, [sp, #28]
    3746:	9205      	str	r2, [sp, #20]
    3748:	d002      	beq.n	3750 <__hexnan+0x22>
    374a:	9b02      	ldr	r3, [sp, #8]
    374c:	3304      	adds	r3, #4
    374e:	9302      	str	r3, [sp, #8]
    3750:	9b02      	ldr	r3, [sp, #8]
    3752:	2500      	movs	r5, #0
    3754:	1f1e      	subs	r6, r3, #4
    3756:	1c37      	adds	r7, r6, #0
    3758:	1c34      	adds	r4, r6, #0
    375a:	9b07      	ldr	r3, [sp, #28]
    375c:	6035      	str	r5, [r6, #0]
    375e:	681b      	ldr	r3, [r3, #0]
    3760:	9506      	str	r5, [sp, #24]
    3762:	9303      	str	r3, [sp, #12]
    3764:	9501      	str	r5, [sp, #4]
    3766:	9b03      	ldr	r3, [sp, #12]
    3768:	3301      	adds	r3, #1
    376a:	9303      	str	r3, [sp, #12]
    376c:	781b      	ldrb	r3, [r3, #0]
    376e:	9304      	str	r3, [sp, #16]
    3770:	2b00      	cmp	r3, #0
    3772:	d03b      	beq.n	37ec <__hexnan+0xbe>
    3774:	9804      	ldr	r0, [sp, #16]
    3776:	f7ff fd8f 	bl	3298 <__hexdig_fun>
    377a:	2800      	cmp	r0, #0
    377c:	d122      	bne.n	37c4 <__hexnan+0x96>
    377e:	9b04      	ldr	r3, [sp, #16]
    3780:	2b20      	cmp	r3, #32
    3782:	d817      	bhi.n	37b4 <__hexnan+0x86>
    3784:	9b06      	ldr	r3, [sp, #24]
    3786:	9a01      	ldr	r2, [sp, #4]
    3788:	4293      	cmp	r3, r2
    378a:	daec      	bge.n	3766 <__hexnan+0x38>
    378c:	42bc      	cmp	r4, r7
    378e:	d206      	bcs.n	379e <__hexnan+0x70>
    3790:	2d07      	cmp	r5, #7
    3792:	dc04      	bgt.n	379e <__hexnan+0x70>
    3794:	1c20      	adds	r0, r4, #0
    3796:	1c39      	adds	r1, r7, #0
    3798:	1c2a      	adds	r2, r5, #0
    379a:	f7ff ffb6 	bl	370a <L_shift>
    379e:	9b00      	ldr	r3, [sp, #0]
    37a0:	2508      	movs	r5, #8
    37a2:	429c      	cmp	r4, r3
    37a4:	d9df      	bls.n	3766 <__hexnan+0x38>
    37a6:	2500      	movs	r5, #0
    37a8:	9b01      	ldr	r3, [sp, #4]
    37aa:	1f27      	subs	r7, r4, #4
    37ac:	603d      	str	r5, [r7, #0]
    37ae:	9306      	str	r3, [sp, #24]
    37b0:	1c3c      	adds	r4, r7, #0
    37b2:	e7d8      	b.n	3766 <__hexnan+0x38>
    37b4:	9b04      	ldr	r3, [sp, #16]
    37b6:	2b29      	cmp	r3, #41	; 0x29
    37b8:	d14c      	bne.n	3854 <__hexnan+0x126>
    37ba:	9b03      	ldr	r3, [sp, #12]
    37bc:	9a07      	ldr	r2, [sp, #28]
    37be:	3301      	adds	r3, #1
    37c0:	6013      	str	r3, [r2, #0]
    37c2:	e013      	b.n	37ec <__hexnan+0xbe>
    37c4:	9b01      	ldr	r3, [sp, #4]
    37c6:	3501      	adds	r5, #1
    37c8:	3301      	adds	r3, #1
    37ca:	9301      	str	r3, [sp, #4]
    37cc:	2d08      	cmp	r5, #8
    37ce:	dd06      	ble.n	37de <__hexnan+0xb0>
    37d0:	9b00      	ldr	r3, [sp, #0]
    37d2:	429c      	cmp	r4, r3
    37d4:	d9c7      	bls.n	3766 <__hexnan+0x38>
    37d6:	2300      	movs	r3, #0
    37d8:	2501      	movs	r5, #1
    37da:	3c04      	subs	r4, #4
    37dc:	6023      	str	r3, [r4, #0]
    37de:	6823      	ldr	r3, [r4, #0]
    37e0:	011a      	lsls	r2, r3, #4
    37e2:	230f      	movs	r3, #15
    37e4:	4018      	ands	r0, r3
    37e6:	4310      	orrs	r0, r2
    37e8:	6020      	str	r0, [r4, #0]
    37ea:	e7bc      	b.n	3766 <__hexnan+0x38>
    37ec:	9b01      	ldr	r3, [sp, #4]
    37ee:	2b00      	cmp	r3, #0
    37f0:	d030      	beq.n	3854 <__hexnan+0x126>
    37f2:	42bc      	cmp	r4, r7
    37f4:	d206      	bcs.n	3804 <__hexnan+0xd6>
    37f6:	2d07      	cmp	r5, #7
    37f8:	dc04      	bgt.n	3804 <__hexnan+0xd6>
    37fa:	1c20      	adds	r0, r4, #0
    37fc:	1c39      	adds	r1, r7, #0
    37fe:	1c2a      	adds	r2, r5, #0
    3800:	f7ff ff83 	bl	370a <L_shift>
    3804:	9b00      	ldr	r3, [sp, #0]
    3806:	429c      	cmp	r4, r3
    3808:	d90a      	bls.n	3820 <__hexnan+0xf2>
    380a:	3304      	adds	r3, #4
    380c:	cc02      	ldmia	r4!, {r1}
    380e:	1f1a      	subs	r2, r3, #4
    3810:	6011      	str	r1, [r2, #0]
    3812:	42a6      	cmp	r6, r4
    3814:	d2f9      	bcs.n	380a <__hexnan+0xdc>
    3816:	2200      	movs	r2, #0
    3818:	c304      	stmia	r3!, {r2}
    381a:	429e      	cmp	r6, r3
    381c:	d2fb      	bcs.n	3816 <__hexnan+0xe8>
    381e:	e00e      	b.n	383e <__hexnan+0x110>
    3820:	9b05      	ldr	r3, [sp, #20]
    3822:	2b00      	cmp	r3, #0
    3824:	d00b      	beq.n	383e <__hexnan+0x110>
    3826:	2220      	movs	r2, #32
    3828:	9905      	ldr	r1, [sp, #20]
    382a:	9b02      	ldr	r3, [sp, #8]
    382c:	1a52      	subs	r2, r2, r1
    382e:	2101      	movs	r1, #1
    3830:	4249      	negs	r1, r1
    3832:	40d1      	lsrs	r1, r2
    3834:	1c0a      	adds	r2, r1, #0
    3836:	3b04      	subs	r3, #4
    3838:	6819      	ldr	r1, [r3, #0]
    383a:	400a      	ands	r2, r1
    383c:	601a      	str	r2, [r3, #0]
    383e:	6833      	ldr	r3, [r6, #0]
    3840:	2b00      	cmp	r3, #0
    3842:	d109      	bne.n	3858 <__hexnan+0x12a>
    3844:	9b00      	ldr	r3, [sp, #0]
    3846:	429e      	cmp	r6, r3
    3848:	d102      	bne.n	3850 <__hexnan+0x122>
    384a:	2301      	movs	r3, #1
    384c:	6033      	str	r3, [r6, #0]
    384e:	e003      	b.n	3858 <__hexnan+0x12a>
    3850:	3e04      	subs	r6, #4
    3852:	e7f4      	b.n	383e <__hexnan+0x110>
    3854:	2004      	movs	r0, #4
    3856:	e000      	b.n	385a <__hexnan+0x12c>
    3858:	2005      	movs	r0, #5
    385a:	b009      	add	sp, #36	; 0x24
    385c:	bdf0      	pop	{r4, r5, r6, r7, pc}
	...

00003860 <_localeconv_r>:
    3860:	4800      	ldr	r0, [pc, #0]	; (3864 <_localeconv_r+0x4>)
    3862:	4770      	bx	lr
    3864:	20000078 	.word	0x20000078

00003868 <memcpy>:
    3868:	2300      	movs	r3, #0
    386a:	b510      	push	{r4, lr}
    386c:	4293      	cmp	r3, r2
    386e:	d003      	beq.n	3878 <memcpy+0x10>
    3870:	5ccc      	ldrb	r4, [r1, r3]
    3872:	54c4      	strb	r4, [r0, r3]
    3874:	3301      	adds	r3, #1
    3876:	e7f9      	b.n	386c <memcpy+0x4>
    3878:	bd10      	pop	{r4, pc}

0000387a <_Balloc>:
    387a:	b570      	push	{r4, r5, r6, lr}
    387c:	6a46      	ldr	r6, [r0, #36]	; 0x24
    387e:	1c04      	adds	r4, r0, #0
    3880:	1c0d      	adds	r5, r1, #0
    3882:	2e00      	cmp	r6, #0
    3884:	d107      	bne.n	3896 <_Balloc+0x1c>
    3886:	2010      	movs	r0, #16
    3888:	f000 fc8e 	bl	41a8 <malloc>
    388c:	6260      	str	r0, [r4, #36]	; 0x24
    388e:	6046      	str	r6, [r0, #4]
    3890:	6086      	str	r6, [r0, #8]
    3892:	6006      	str	r6, [r0, #0]
    3894:	60c6      	str	r6, [r0, #12]
    3896:	6a66      	ldr	r6, [r4, #36]	; 0x24
    3898:	68f3      	ldr	r3, [r6, #12]
    389a:	2b00      	cmp	r3, #0
    389c:	d009      	beq.n	38b2 <_Balloc+0x38>
    389e:	6a62      	ldr	r2, [r4, #36]	; 0x24
    38a0:	00ab      	lsls	r3, r5, #2
    38a2:	68d2      	ldr	r2, [r2, #12]
    38a4:	18d3      	adds	r3, r2, r3
    38a6:	6818      	ldr	r0, [r3, #0]
    38a8:	2800      	cmp	r0, #0
    38aa:	d00e      	beq.n	38ca <_Balloc+0x50>
    38ac:	6802      	ldr	r2, [r0, #0]
    38ae:	601a      	str	r2, [r3, #0]
    38b0:	e017      	b.n	38e2 <_Balloc+0x68>
    38b2:	1c20      	adds	r0, r4, #0
    38b4:	2104      	movs	r1, #4
    38b6:	2221      	movs	r2, #33	; 0x21
    38b8:	f000 fbe1 	bl	407e <_calloc_r>
    38bc:	6a63      	ldr	r3, [r4, #36]	; 0x24
    38be:	60f0      	str	r0, [r6, #12]
    38c0:	68db      	ldr	r3, [r3, #12]
    38c2:	2b00      	cmp	r3, #0
    38c4:	d1eb      	bne.n	389e <_Balloc+0x24>
    38c6:	2000      	movs	r0, #0
    38c8:	e00e      	b.n	38e8 <_Balloc+0x6e>
    38ca:	2101      	movs	r1, #1
    38cc:	1c0e      	adds	r6, r1, #0
    38ce:	40ae      	lsls	r6, r5
    38d0:	1d72      	adds	r2, r6, #5
    38d2:	0092      	lsls	r2, r2, #2
    38d4:	1c20      	adds	r0, r4, #0
    38d6:	f000 fbd2 	bl	407e <_calloc_r>
    38da:	2800      	cmp	r0, #0
    38dc:	d0f3      	beq.n	38c6 <_Balloc+0x4c>
    38de:	6045      	str	r5, [r0, #4]
    38e0:	6086      	str	r6, [r0, #8]
    38e2:	2300      	movs	r3, #0
    38e4:	6103      	str	r3, [r0, #16]
    38e6:	60c3      	str	r3, [r0, #12]
    38e8:	bd70      	pop	{r4, r5, r6, pc}

000038ea <_Bfree>:
    38ea:	b570      	push	{r4, r5, r6, lr}
    38ec:	6a45      	ldr	r5, [r0, #36]	; 0x24
    38ee:	1c06      	adds	r6, r0, #0
    38f0:	1c0c      	adds	r4, r1, #0
    38f2:	2d00      	cmp	r5, #0
    38f4:	d107      	bne.n	3906 <_Bfree+0x1c>
    38f6:	2010      	movs	r0, #16
    38f8:	f000 fc56 	bl	41a8 <malloc>
    38fc:	6270      	str	r0, [r6, #36]	; 0x24
    38fe:	6045      	str	r5, [r0, #4]
    3900:	6085      	str	r5, [r0, #8]
    3902:	6005      	str	r5, [r0, #0]
    3904:	60c5      	str	r5, [r0, #12]
    3906:	2c00      	cmp	r4, #0
    3908:	d007      	beq.n	391a <_Bfree+0x30>
    390a:	6a72      	ldr	r2, [r6, #36]	; 0x24
    390c:	6863      	ldr	r3, [r4, #4]
    390e:	68d2      	ldr	r2, [r2, #12]
    3910:	009b      	lsls	r3, r3, #2
    3912:	18d3      	adds	r3, r2, r3
    3914:	681a      	ldr	r2, [r3, #0]
    3916:	6022      	str	r2, [r4, #0]
    3918:	601c      	str	r4, [r3, #0]
    391a:	bd70      	pop	{r4, r5, r6, pc}

0000391c <__multadd>:
    391c:	b5f7      	push	{r0, r1, r2, r4, r5, r6, r7, lr}
    391e:	1c1e      	adds	r6, r3, #0
    3920:	2314      	movs	r3, #20
    3922:	469c      	mov	ip, r3
    3924:	1c07      	adds	r7, r0, #0
    3926:	1c0c      	adds	r4, r1, #0
    3928:	2000      	movs	r0, #0
    392a:	690d      	ldr	r5, [r1, #16]
    392c:	448c      	add	ip, r1
    392e:	4663      	mov	r3, ip
    3930:	8819      	ldrh	r1, [r3, #0]
    3932:	681b      	ldr	r3, [r3, #0]
    3934:	4351      	muls	r1, r2
    3936:	0c1b      	lsrs	r3, r3, #16
    3938:	4353      	muls	r3, r2
    393a:	1989      	adds	r1, r1, r6
    393c:	0c0e      	lsrs	r6, r1, #16
    393e:	18f3      	adds	r3, r6, r3
    3940:	b289      	uxth	r1, r1
    3942:	0c1e      	lsrs	r6, r3, #16
    3944:	041b      	lsls	r3, r3, #16
    3946:	185b      	adds	r3, r3, r1
    3948:	4661      	mov	r1, ip
    394a:	3001      	adds	r0, #1
    394c:	c108      	stmia	r1!, {r3}
    394e:	468c      	mov	ip, r1
    3950:	42a8      	cmp	r0, r5
    3952:	dbec      	blt.n	392e <__multadd+0x12>
    3954:	2e00      	cmp	r6, #0
    3956:	d01b      	beq.n	3990 <__multadd+0x74>
    3958:	68a3      	ldr	r3, [r4, #8]
    395a:	429d      	cmp	r5, r3
    395c:	db12      	blt.n	3984 <__multadd+0x68>
    395e:	6863      	ldr	r3, [r4, #4]
    3960:	1c38      	adds	r0, r7, #0
    3962:	1c59      	adds	r1, r3, #1
    3964:	f7ff ff89 	bl	387a <_Balloc>
    3968:	1c21      	adds	r1, r4, #0
    396a:	6923      	ldr	r3, [r4, #16]
    396c:	9001      	str	r0, [sp, #4]
    396e:	1c9a      	adds	r2, r3, #2
    3970:	310c      	adds	r1, #12
    3972:	0092      	lsls	r2, r2, #2
    3974:	300c      	adds	r0, #12
    3976:	f7ff ff77 	bl	3868 <memcpy>
    397a:	1c21      	adds	r1, r4, #0
    397c:	1c38      	adds	r0, r7, #0
    397e:	f7ff ffb4 	bl	38ea <_Bfree>
    3982:	9c01      	ldr	r4, [sp, #4]
    3984:	1d2b      	adds	r3, r5, #4
    3986:	009b      	lsls	r3, r3, #2
    3988:	18e3      	adds	r3, r4, r3
    398a:	3501      	adds	r5, #1
    398c:	605e      	str	r6, [r3, #4]
    398e:	6125      	str	r5, [r4, #16]
    3990:	1c20      	adds	r0, r4, #0
    3992:	bdfe      	pop	{r1, r2, r3, r4, r5, r6, r7, pc}

00003994 <__s2b>:
    3994:	b5f7      	push	{r0, r1, r2, r4, r5, r6, r7, lr}
    3996:	1c06      	adds	r6, r0, #0
    3998:	1c18      	adds	r0, r3, #0
    399a:	1c0c      	adds	r4, r1, #0
    399c:	3008      	adds	r0, #8
    399e:	2109      	movs	r1, #9
    39a0:	9301      	str	r3, [sp, #4]
    39a2:	1c15      	adds	r5, r2, #0
    39a4:	f000 fca4 	bl	42f0 <__aeabi_idiv>
    39a8:	2301      	movs	r3, #1
    39aa:	2100      	movs	r1, #0
    39ac:	4298      	cmp	r0, r3
    39ae:	dd02      	ble.n	39b6 <__s2b+0x22>
    39b0:	005b      	lsls	r3, r3, #1
    39b2:	3101      	adds	r1, #1
    39b4:	e7fa      	b.n	39ac <__s2b+0x18>
    39b6:	1c30      	adds	r0, r6, #0
    39b8:	f7ff ff5f 	bl	387a <_Balloc>
    39bc:	9b08      	ldr	r3, [sp, #32]
    39be:	1c01      	adds	r1, r0, #0
    39c0:	6143      	str	r3, [r0, #20]
    39c2:	2301      	movs	r3, #1
    39c4:	6103      	str	r3, [r0, #16]
    39c6:	2d09      	cmp	r5, #9
    39c8:	dd12      	ble.n	39f0 <__s2b+0x5c>
    39ca:	1c23      	adds	r3, r4, #0
    39cc:	3309      	adds	r3, #9
    39ce:	1c1f      	adds	r7, r3, #0
    39d0:	9300      	str	r3, [sp, #0]
    39d2:	1964      	adds	r4, r4, r5
    39d4:	783b      	ldrb	r3, [r7, #0]
    39d6:	1c30      	adds	r0, r6, #0
    39d8:	3b30      	subs	r3, #48	; 0x30
    39da:	220a      	movs	r2, #10
    39dc:	f7ff ff9e 	bl	391c <__multadd>
    39e0:	3701      	adds	r7, #1
    39e2:	1c01      	adds	r1, r0, #0
    39e4:	42a7      	cmp	r7, r4
    39e6:	d1f5      	bne.n	39d4 <__s2b+0x40>
    39e8:	9b00      	ldr	r3, [sp, #0]
    39ea:	195c      	adds	r4, r3, r5
    39ec:	3c08      	subs	r4, #8
    39ee:	e001      	b.n	39f4 <__s2b+0x60>
    39f0:	2509      	movs	r5, #9
    39f2:	340a      	adds	r4, #10
    39f4:	1c2f      	adds	r7, r5, #0
    39f6:	9b01      	ldr	r3, [sp, #4]
    39f8:	429f      	cmp	r7, r3
    39fa:	da09      	bge.n	3a10 <__s2b+0x7c>
    39fc:	1b63      	subs	r3, r4, r5
    39fe:	5ddb      	ldrb	r3, [r3, r7]
    3a00:	1c30      	adds	r0, r6, #0
    3a02:	3b30      	subs	r3, #48	; 0x30
    3a04:	220a      	movs	r2, #10
    3a06:	f7ff ff89 	bl	391c <__multadd>
    3a0a:	3701      	adds	r7, #1
    3a0c:	1c01      	adds	r1, r0, #0
    3a0e:	e7f2      	b.n	39f6 <__s2b+0x62>
    3a10:	1c08      	adds	r0, r1, #0
    3a12:	bdfe      	pop	{r1, r2, r3, r4, r5, r6, r7, pc}

00003a14 <__hi0bits>:
    3a14:	2200      	movs	r2, #0
    3a16:	1c03      	adds	r3, r0, #0
    3a18:	0c01      	lsrs	r1, r0, #16
    3a1a:	4291      	cmp	r1, r2
    3a1c:	d101      	bne.n	3a22 <__hi0bits+0xe>
    3a1e:	0403      	lsls	r3, r0, #16
    3a20:	3210      	adds	r2, #16
    3a22:	0e19      	lsrs	r1, r3, #24
    3a24:	d101      	bne.n	3a2a <__hi0bits+0x16>
    3a26:	3208      	adds	r2, #8
    3a28:	021b      	lsls	r3, r3, #8
    3a2a:	0f19      	lsrs	r1, r3, #28
    3a2c:	d101      	bne.n	3a32 <__hi0bits+0x1e>
    3a2e:	3204      	adds	r2, #4
    3a30:	011b      	lsls	r3, r3, #4
    3a32:	0f99      	lsrs	r1, r3, #30
    3a34:	d101      	bne.n	3a3a <__hi0bits+0x26>
    3a36:	3202      	adds	r2, #2
    3a38:	009b      	lsls	r3, r3, #2
    3a3a:	1c10      	adds	r0, r2, #0
    3a3c:	2b00      	cmp	r3, #0
    3a3e:	db03      	blt.n	3a48 <__hi0bits+0x34>
    3a40:	2020      	movs	r0, #32
    3a42:	005b      	lsls	r3, r3, #1
    3a44:	d500      	bpl.n	3a48 <__hi0bits+0x34>
    3a46:	1c50      	adds	r0, r2, #1
    3a48:	4770      	bx	lr

00003a4a <__lo0bits>:
    3a4a:	2207      	movs	r2, #7
    3a4c:	6803      	ldr	r3, [r0, #0]
    3a4e:	b510      	push	{r4, lr}
    3a50:	1c01      	adds	r1, r0, #0
    3a52:	401a      	ands	r2, r3
    3a54:	d00c      	beq.n	3a70 <__lo0bits+0x26>
    3a56:	2401      	movs	r4, #1
    3a58:	2000      	movs	r0, #0
    3a5a:	4223      	tst	r3, r4
    3a5c:	d123      	bne.n	3aa6 <__lo0bits+0x5c>
    3a5e:	2202      	movs	r2, #2
    3a60:	4213      	tst	r3, r2
    3a62:	d003      	beq.n	3a6c <__lo0bits+0x22>
    3a64:	40e3      	lsrs	r3, r4
    3a66:	1c20      	adds	r0, r4, #0
    3a68:	600b      	str	r3, [r1, #0]
    3a6a:	e01c      	b.n	3aa6 <__lo0bits+0x5c>
    3a6c:	089b      	lsrs	r3, r3, #2
    3a6e:	e018      	b.n	3aa2 <__lo0bits+0x58>
    3a70:	b298      	uxth	r0, r3
    3a72:	2800      	cmp	r0, #0
    3a74:	d101      	bne.n	3a7a <__lo0bits+0x30>
    3a76:	2210      	movs	r2, #16
    3a78:	0c1b      	lsrs	r3, r3, #16
    3a7a:	b2d8      	uxtb	r0, r3
    3a7c:	2800      	cmp	r0, #0
    3a7e:	d101      	bne.n	3a84 <__lo0bits+0x3a>
    3a80:	3208      	adds	r2, #8
    3a82:	0a1b      	lsrs	r3, r3, #8
    3a84:	0718      	lsls	r0, r3, #28
    3a86:	d101      	bne.n	3a8c <__lo0bits+0x42>
    3a88:	3204      	adds	r2, #4
    3a8a:	091b      	lsrs	r3, r3, #4
    3a8c:	0798      	lsls	r0, r3, #30
    3a8e:	d101      	bne.n	3a94 <__lo0bits+0x4a>
    3a90:	3202      	adds	r2, #2
    3a92:	089b      	lsrs	r3, r3, #2
    3a94:	07d8      	lsls	r0, r3, #31
    3a96:	d404      	bmi.n	3aa2 <__lo0bits+0x58>
    3a98:	085b      	lsrs	r3, r3, #1
    3a9a:	2020      	movs	r0, #32
    3a9c:	2b00      	cmp	r3, #0
    3a9e:	d002      	beq.n	3aa6 <__lo0bits+0x5c>
    3aa0:	3201      	adds	r2, #1
    3aa2:	1c10      	adds	r0, r2, #0
    3aa4:	600b      	str	r3, [r1, #0]
    3aa6:	bd10      	pop	{r4, pc}

00003aa8 <__i2b>:
    3aa8:	b510      	push	{r4, lr}
    3aaa:	1c0c      	adds	r4, r1, #0
    3aac:	2101      	movs	r1, #1
    3aae:	f7ff fee4 	bl	387a <_Balloc>
    3ab2:	2301      	movs	r3, #1
    3ab4:	6144      	str	r4, [r0, #20]
    3ab6:	6103      	str	r3, [r0, #16]
    3ab8:	bd10      	pop	{r4, pc}

00003aba <__multiply>:
    3aba:	b5f0      	push	{r4, r5, r6, r7, lr}
    3abc:	690b      	ldr	r3, [r1, #16]
    3abe:	1c14      	adds	r4, r2, #0
    3ac0:	6912      	ldr	r2, [r2, #16]
    3ac2:	b089      	sub	sp, #36	; 0x24
    3ac4:	1c0d      	adds	r5, r1, #0
    3ac6:	4293      	cmp	r3, r2
    3ac8:	da01      	bge.n	3ace <__multiply+0x14>
    3aca:	1c25      	adds	r5, r4, #0
    3acc:	1c0c      	adds	r4, r1, #0
    3ace:	692f      	ldr	r7, [r5, #16]
    3ad0:	6926      	ldr	r6, [r4, #16]
    3ad2:	68aa      	ldr	r2, [r5, #8]
    3ad4:	19bb      	adds	r3, r7, r6
    3ad6:	6869      	ldr	r1, [r5, #4]
    3ad8:	9300      	str	r3, [sp, #0]
    3ada:	4293      	cmp	r3, r2
    3adc:	dd00      	ble.n	3ae0 <__multiply+0x26>
    3ade:	3101      	adds	r1, #1
    3ae0:	f7ff fecb 	bl	387a <_Balloc>
    3ae4:	1c01      	adds	r1, r0, #0
    3ae6:	9b00      	ldr	r3, [sp, #0]
    3ae8:	3114      	adds	r1, #20
    3aea:	4684      	mov	ip, r0
    3aec:	0098      	lsls	r0, r3, #2
    3aee:	1c0b      	adds	r3, r1, #0
    3af0:	1808      	adds	r0, r1, r0
    3af2:	4283      	cmp	r3, r0
    3af4:	d202      	bcs.n	3afc <__multiply+0x42>
    3af6:	2200      	movs	r2, #0
    3af8:	c304      	stmia	r3!, {r2}
    3afa:	e7fa      	b.n	3af2 <__multiply+0x38>
    3afc:	3514      	adds	r5, #20
    3afe:	00bf      	lsls	r7, r7, #2
    3b00:	19eb      	adds	r3, r5, r7
    3b02:	3414      	adds	r4, #20
    3b04:	00b6      	lsls	r6, r6, #2
    3b06:	9304      	str	r3, [sp, #16]
    3b08:	19a3      	adds	r3, r4, r6
    3b0a:	9502      	str	r5, [sp, #8]
    3b0c:	9306      	str	r3, [sp, #24]
    3b0e:	9b06      	ldr	r3, [sp, #24]
    3b10:	429c      	cmp	r4, r3
    3b12:	d256      	bcs.n	3bc2 <__multiply+0x108>
    3b14:	8823      	ldrh	r3, [r4, #0]
    3b16:	9303      	str	r3, [sp, #12]
    3b18:	2b00      	cmp	r3, #0
    3b1a:	d022      	beq.n	3b62 <__multiply+0xa8>
    3b1c:	1c0e      	adds	r6, r1, #0
    3b1e:	2700      	movs	r7, #0
    3b20:	9b02      	ldr	r3, [sp, #8]
    3b22:	9301      	str	r3, [sp, #4]
    3b24:	9b01      	ldr	r3, [sp, #4]
    3b26:	9d03      	ldr	r5, [sp, #12]
    3b28:	cb04      	ldmia	r3!, {r2}
    3b2a:	9605      	str	r6, [sp, #20]
    3b2c:	9301      	str	r3, [sp, #4]
    3b2e:	8833      	ldrh	r3, [r6, #0]
    3b30:	9307      	str	r3, [sp, #28]
    3b32:	b293      	uxth	r3, r2
    3b34:	436b      	muls	r3, r5
    3b36:	9d07      	ldr	r5, [sp, #28]
    3b38:	0c12      	lsrs	r2, r2, #16
    3b3a:	18eb      	adds	r3, r5, r3
    3b3c:	6835      	ldr	r5, [r6, #0]
    3b3e:	19db      	adds	r3, r3, r7
    3b40:	0c2f      	lsrs	r7, r5, #16
    3b42:	9d03      	ldr	r5, [sp, #12]
    3b44:	436a      	muls	r2, r5
    3b46:	18ba      	adds	r2, r7, r2
    3b48:	0c1f      	lsrs	r7, r3, #16
    3b4a:	19d2      	adds	r2, r2, r7
    3b4c:	0c17      	lsrs	r7, r2, #16
    3b4e:	b29b      	uxth	r3, r3
    3b50:	0412      	lsls	r2, r2, #16
    3b52:	4313      	orrs	r3, r2
    3b54:	c608      	stmia	r6!, {r3}
    3b56:	9a01      	ldr	r2, [sp, #4]
    3b58:	9b04      	ldr	r3, [sp, #16]
    3b5a:	429a      	cmp	r2, r3
    3b5c:	d3e2      	bcc.n	3b24 <__multiply+0x6a>
    3b5e:	9b05      	ldr	r3, [sp, #20]
    3b60:	605f      	str	r7, [r3, #4]
    3b62:	6823      	ldr	r3, [r4, #0]
    3b64:	0c1b      	lsrs	r3, r3, #16
    3b66:	9301      	str	r3, [sp, #4]
    3b68:	d021      	beq.n	3bae <__multiply+0xf4>
    3b6a:	2200      	movs	r2, #0
    3b6c:	1c0d      	adds	r5, r1, #0
    3b6e:	680b      	ldr	r3, [r1, #0]
    3b70:	9f02      	ldr	r7, [sp, #8]
    3b72:	9203      	str	r2, [sp, #12]
    3b74:	883e      	ldrh	r6, [r7, #0]
    3b76:	9a01      	ldr	r2, [sp, #4]
    3b78:	b29b      	uxth	r3, r3
    3b7a:	4356      	muls	r6, r2
    3b7c:	682a      	ldr	r2, [r5, #0]
    3b7e:	9505      	str	r5, [sp, #20]
    3b80:	0c12      	lsrs	r2, r2, #16
    3b82:	18b2      	adds	r2, r6, r2
    3b84:	9e03      	ldr	r6, [sp, #12]
    3b86:	1992      	adds	r2, r2, r6
    3b88:	0416      	lsls	r6, r2, #16
    3b8a:	4333      	orrs	r3, r6
    3b8c:	602b      	str	r3, [r5, #0]
    3b8e:	cf08      	ldmia	r7!, {r3}
    3b90:	9e01      	ldr	r6, [sp, #4]
    3b92:	0c1b      	lsrs	r3, r3, #16
    3b94:	4373      	muls	r3, r6
    3b96:	88ae      	ldrh	r6, [r5, #4]
    3b98:	0c12      	lsrs	r2, r2, #16
    3b9a:	199b      	adds	r3, r3, r6
    3b9c:	189b      	adds	r3, r3, r2
    3b9e:	0c1a      	lsrs	r2, r3, #16
    3ba0:	9203      	str	r2, [sp, #12]
    3ba2:	9a04      	ldr	r2, [sp, #16]
    3ba4:	3504      	adds	r5, #4
    3ba6:	42ba      	cmp	r2, r7
    3ba8:	d8e4      	bhi.n	3b74 <__multiply+0xba>
    3baa:	9a05      	ldr	r2, [sp, #20]
    3bac:	6053      	str	r3, [r2, #4]
    3bae:	3404      	adds	r4, #4
    3bb0:	3104      	adds	r1, #4
    3bb2:	e7ac      	b.n	3b0e <__multiply+0x54>
    3bb4:	3804      	subs	r0, #4
    3bb6:	6803      	ldr	r3, [r0, #0]
    3bb8:	2b00      	cmp	r3, #0
    3bba:	d105      	bne.n	3bc8 <__multiply+0x10e>
    3bbc:	9b00      	ldr	r3, [sp, #0]
    3bbe:	3b01      	subs	r3, #1
    3bc0:	9300      	str	r3, [sp, #0]
    3bc2:	9b00      	ldr	r3, [sp, #0]
    3bc4:	2b00      	cmp	r3, #0
    3bc6:	dcf5      	bgt.n	3bb4 <__multiply+0xfa>
    3bc8:	4663      	mov	r3, ip
    3bca:	4660      	mov	r0, ip
    3bcc:	9a00      	ldr	r2, [sp, #0]
    3bce:	611a      	str	r2, [r3, #16]
    3bd0:	b009      	add	sp, #36	; 0x24
    3bd2:	bdf0      	pop	{r4, r5, r6, r7, pc}

00003bd4 <__pow5mult>:
    3bd4:	2303      	movs	r3, #3
    3bd6:	b5f7      	push	{r0, r1, r2, r4, r5, r6, r7, lr}
    3bd8:	4013      	ands	r3, r2
    3bda:	1c05      	adds	r5, r0, #0
    3bdc:	1c0e      	adds	r6, r1, #0
    3bde:	1c14      	adds	r4, r2, #0
    3be0:	2b00      	cmp	r3, #0
    3be2:	d007      	beq.n	3bf4 <__pow5mult+0x20>
    3be4:	4a22      	ldr	r2, [pc, #136]	; (3c70 <__pow5mult+0x9c>)
    3be6:	3b01      	subs	r3, #1
    3be8:	009b      	lsls	r3, r3, #2
    3bea:	589a      	ldr	r2, [r3, r2]
    3bec:	2300      	movs	r3, #0
    3bee:	f7ff fe95 	bl	391c <__multadd>
    3bf2:	1c06      	adds	r6, r0, #0
    3bf4:	10a3      	asrs	r3, r4, #2
    3bf6:	9301      	str	r3, [sp, #4]
    3bf8:	d037      	beq.n	3c6a <__pow5mult+0x96>
    3bfa:	6a6c      	ldr	r4, [r5, #36]	; 0x24
    3bfc:	2c00      	cmp	r4, #0
    3bfe:	d107      	bne.n	3c10 <__pow5mult+0x3c>
    3c00:	2010      	movs	r0, #16
    3c02:	f000 fad1 	bl	41a8 <malloc>
    3c06:	6268      	str	r0, [r5, #36]	; 0x24
    3c08:	6044      	str	r4, [r0, #4]
    3c0a:	6084      	str	r4, [r0, #8]
    3c0c:	6004      	str	r4, [r0, #0]
    3c0e:	60c4      	str	r4, [r0, #12]
    3c10:	6a6f      	ldr	r7, [r5, #36]	; 0x24
    3c12:	68bc      	ldr	r4, [r7, #8]
    3c14:	2c00      	cmp	r4, #0
    3c16:	d110      	bne.n	3c3a <__pow5mult+0x66>
    3c18:	1c28      	adds	r0, r5, #0
    3c1a:	4916      	ldr	r1, [pc, #88]	; (3c74 <__pow5mult+0xa0>)
    3c1c:	f7ff ff44 	bl	3aa8 <__i2b>
    3c20:	2300      	movs	r3, #0
    3c22:	60b8      	str	r0, [r7, #8]
    3c24:	1c04      	adds	r4, r0, #0
    3c26:	6003      	str	r3, [r0, #0]
    3c28:	e007      	b.n	3c3a <__pow5mult+0x66>
    3c2a:	9b01      	ldr	r3, [sp, #4]
    3c2c:	105b      	asrs	r3, r3, #1
    3c2e:	9301      	str	r3, [sp, #4]
    3c30:	d01b      	beq.n	3c6a <__pow5mult+0x96>
    3c32:	6820      	ldr	r0, [r4, #0]
    3c34:	2800      	cmp	r0, #0
    3c36:	d00f      	beq.n	3c58 <__pow5mult+0x84>
    3c38:	1c04      	adds	r4, r0, #0
    3c3a:	9b01      	ldr	r3, [sp, #4]
    3c3c:	07db      	lsls	r3, r3, #31
    3c3e:	d5f4      	bpl.n	3c2a <__pow5mult+0x56>
    3c40:	1c31      	adds	r1, r6, #0
    3c42:	1c22      	adds	r2, r4, #0
    3c44:	1c28      	adds	r0, r5, #0
    3c46:	f7ff ff38 	bl	3aba <__multiply>
    3c4a:	1c07      	adds	r7, r0, #0
    3c4c:	1c31      	adds	r1, r6, #0
    3c4e:	1c28      	adds	r0, r5, #0
    3c50:	f7ff fe4b 	bl	38ea <_Bfree>
    3c54:	1c3e      	adds	r6, r7, #0
    3c56:	e7e8      	b.n	3c2a <__pow5mult+0x56>
    3c58:	1c28      	adds	r0, r5, #0
    3c5a:	1c21      	adds	r1, r4, #0
    3c5c:	1c22      	adds	r2, r4, #0
    3c5e:	f7ff ff2c 	bl	3aba <__multiply>
    3c62:	2300      	movs	r3, #0
    3c64:	6020      	str	r0, [r4, #0]
    3c66:	6003      	str	r3, [r0, #0]
    3c68:	e7e6      	b.n	3c38 <__pow5mult+0x64>
    3c6a:	1c30      	adds	r0, r6, #0
    3c6c:	bdfe      	pop	{r1, r2, r3, r4, r5, r6, r7, pc}
    3c6e:	46c0      	nop			; (mov r8, r8)
    3c70:	000078d0 	.word	0x000078d0
    3c74:	00000271 	.word	0x00000271

00003c78 <__lshift>:
    3c78:	b5f0      	push	{r4, r5, r6, r7, lr}
    3c7a:	1c0c      	adds	r4, r1, #0
    3c7c:	1c17      	adds	r7, r2, #0
    3c7e:	6923      	ldr	r3, [r4, #16]
    3c80:	1155      	asrs	r5, r2, #5
    3c82:	b085      	sub	sp, #20
    3c84:	18eb      	adds	r3, r5, r3
    3c86:	9301      	str	r3, [sp, #4]
    3c88:	3301      	adds	r3, #1
    3c8a:	9300      	str	r3, [sp, #0]
    3c8c:	6849      	ldr	r1, [r1, #4]
    3c8e:	68a3      	ldr	r3, [r4, #8]
    3c90:	9002      	str	r0, [sp, #8]
    3c92:	9a00      	ldr	r2, [sp, #0]
    3c94:	429a      	cmp	r2, r3
    3c96:	dd02      	ble.n	3c9e <__lshift+0x26>
    3c98:	3101      	adds	r1, #1
    3c9a:	005b      	lsls	r3, r3, #1
    3c9c:	e7f9      	b.n	3c92 <__lshift+0x1a>
    3c9e:	9802      	ldr	r0, [sp, #8]
    3ca0:	f7ff fdeb 	bl	387a <_Balloc>
    3ca4:	1c02      	adds	r2, r0, #0
    3ca6:	1c06      	adds	r6, r0, #0
    3ca8:	2300      	movs	r3, #0
    3caa:	3214      	adds	r2, #20
    3cac:	42ab      	cmp	r3, r5
    3cae:	da04      	bge.n	3cba <__lshift+0x42>
    3cb0:	2000      	movs	r0, #0
    3cb2:	0099      	lsls	r1, r3, #2
    3cb4:	5050      	str	r0, [r2, r1]
    3cb6:	3301      	adds	r3, #1
    3cb8:	e7f8      	b.n	3cac <__lshift+0x34>
    3cba:	43eb      	mvns	r3, r5
    3cbc:	17db      	asrs	r3, r3, #31
    3cbe:	401d      	ands	r5, r3
    3cc0:	1c23      	adds	r3, r4, #0
    3cc2:	00ad      	lsls	r5, r5, #2
    3cc4:	1955      	adds	r5, r2, r5
    3cc6:	6922      	ldr	r2, [r4, #16]
    3cc8:	3314      	adds	r3, #20
    3cca:	0092      	lsls	r2, r2, #2
    3ccc:	189a      	adds	r2, r3, r2
    3cce:	4694      	mov	ip, r2
    3cd0:	221f      	movs	r2, #31
    3cd2:	4017      	ands	r7, r2
    3cd4:	d014      	beq.n	3d00 <__lshift+0x88>
    3cd6:	3201      	adds	r2, #1
    3cd8:	1bd2      	subs	r2, r2, r7
    3cda:	9203      	str	r2, [sp, #12]
    3cdc:	2200      	movs	r2, #0
    3cde:	6819      	ldr	r1, [r3, #0]
    3ce0:	1c28      	adds	r0, r5, #0
    3ce2:	40b9      	lsls	r1, r7
    3ce4:	430a      	orrs	r2, r1
    3ce6:	c504      	stmia	r5!, {r2}
    3ce8:	cb04      	ldmia	r3!, {r2}
    3cea:	9903      	ldr	r1, [sp, #12]
    3cec:	40ca      	lsrs	r2, r1
    3cee:	459c      	cmp	ip, r3
    3cf0:	d8f5      	bhi.n	3cde <__lshift+0x66>
    3cf2:	6042      	str	r2, [r0, #4]
    3cf4:	2a00      	cmp	r2, #0
    3cf6:	d007      	beq.n	3d08 <__lshift+0x90>
    3cf8:	9b01      	ldr	r3, [sp, #4]
    3cfa:	3302      	adds	r3, #2
    3cfc:	9300      	str	r3, [sp, #0]
    3cfe:	e003      	b.n	3d08 <__lshift+0x90>
    3d00:	cb04      	ldmia	r3!, {r2}
    3d02:	c504      	stmia	r5!, {r2}
    3d04:	459c      	cmp	ip, r3
    3d06:	d8fb      	bhi.n	3d00 <__lshift+0x88>
    3d08:	9b00      	ldr	r3, [sp, #0]
    3d0a:	9802      	ldr	r0, [sp, #8]
    3d0c:	3b01      	subs	r3, #1
    3d0e:	6133      	str	r3, [r6, #16]
    3d10:	1c21      	adds	r1, r4, #0
    3d12:	f7ff fdea 	bl	38ea <_Bfree>
    3d16:	1c30      	adds	r0, r6, #0
    3d18:	b005      	add	sp, #20
    3d1a:	bdf0      	pop	{r4, r5, r6, r7, pc}

00003d1c <__mcmp>:
    3d1c:	6903      	ldr	r3, [r0, #16]
    3d1e:	690a      	ldr	r2, [r1, #16]
    3d20:	b510      	push	{r4, lr}
    3d22:	1a9b      	subs	r3, r3, r2
    3d24:	1c04      	adds	r4, r0, #0
    3d26:	1e18      	subs	r0, r3, #0
    3d28:	d112      	bne.n	3d50 <__mcmp+0x34>
    3d2a:	0093      	lsls	r3, r2, #2
    3d2c:	3414      	adds	r4, #20
    3d2e:	3114      	adds	r1, #20
    3d30:	18e2      	adds	r2, r4, r3
    3d32:	18c9      	adds	r1, r1, r3
    3d34:	3a04      	subs	r2, #4
    3d36:	3904      	subs	r1, #4
    3d38:	6813      	ldr	r3, [r2, #0]
    3d3a:	6808      	ldr	r0, [r1, #0]
    3d3c:	4283      	cmp	r3, r0
    3d3e:	d004      	beq.n	3d4a <__mcmp+0x2e>
    3d40:	4283      	cmp	r3, r0
    3d42:	419b      	sbcs	r3, r3
    3d44:	2001      	movs	r0, #1
    3d46:	4318      	orrs	r0, r3
    3d48:	e002      	b.n	3d50 <__mcmp+0x34>
    3d4a:	42a2      	cmp	r2, r4
    3d4c:	d8f2      	bhi.n	3d34 <__mcmp+0x18>
    3d4e:	2000      	movs	r0, #0
    3d50:	bd10      	pop	{r4, pc}

00003d52 <__mdiff>:
    3d52:	b5f0      	push	{r4, r5, r6, r7, lr}
    3d54:	1c07      	adds	r7, r0, #0
    3d56:	b085      	sub	sp, #20
    3d58:	1c08      	adds	r0, r1, #0
    3d5a:	1c0c      	adds	r4, r1, #0
    3d5c:	1c11      	adds	r1, r2, #0
    3d5e:	1c15      	adds	r5, r2, #0
    3d60:	f7ff ffdc 	bl	3d1c <__mcmp>
    3d64:	1e06      	subs	r6, r0, #0
    3d66:	d107      	bne.n	3d78 <__mdiff+0x26>
    3d68:	1c38      	adds	r0, r7, #0
    3d6a:	1c31      	adds	r1, r6, #0
    3d6c:	f7ff fd85 	bl	387a <_Balloc>
    3d70:	2301      	movs	r3, #1
    3d72:	6146      	str	r6, [r0, #20]
    3d74:	6103      	str	r3, [r0, #16]
    3d76:	e055      	b.n	3e24 <__mdiff+0xd2>
    3d78:	2300      	movs	r3, #0
    3d7a:	9301      	str	r3, [sp, #4]
    3d7c:	4298      	cmp	r0, r3
    3d7e:	da04      	bge.n	3d8a <__mdiff+0x38>
    3d80:	1c23      	adds	r3, r4, #0
    3d82:	1c2c      	adds	r4, r5, #0
    3d84:	1c1d      	adds	r5, r3, #0
    3d86:	2301      	movs	r3, #1
    3d88:	9301      	str	r3, [sp, #4]
    3d8a:	1c38      	adds	r0, r7, #0
    3d8c:	6861      	ldr	r1, [r4, #4]
    3d8e:	f7ff fd74 	bl	387a <_Balloc>
    3d92:	9b01      	ldr	r3, [sp, #4]
    3d94:	6926      	ldr	r6, [r4, #16]
    3d96:	1c2f      	adds	r7, r5, #0
    3d98:	60c3      	str	r3, [r0, #12]
    3d9a:	3414      	adds	r4, #20
    3d9c:	00b3      	lsls	r3, r6, #2
    3d9e:	18e3      	adds	r3, r4, r3
    3da0:	1c02      	adds	r2, r0, #0
    3da2:	9302      	str	r3, [sp, #8]
    3da4:	692b      	ldr	r3, [r5, #16]
    3da6:	2500      	movs	r5, #0
    3da8:	3714      	adds	r7, #20
    3daa:	009b      	lsls	r3, r3, #2
    3dac:	18fb      	adds	r3, r7, r3
    3dae:	9303      	str	r3, [sp, #12]
    3db0:	3214      	adds	r2, #20
    3db2:	cc08      	ldmia	r4!, {r3}
    3db4:	4669      	mov	r1, sp
    3db6:	469c      	mov	ip, r3
    3db8:	cf08      	ldmia	r7!, {r3}
    3dba:	3204      	adds	r2, #4
    3dbc:	9300      	str	r3, [sp, #0]
    3dbe:	4663      	mov	r3, ip
    3dc0:	808b      	strh	r3, [r1, #4]
    3dc2:	888b      	ldrh	r3, [r1, #4]
    3dc4:	195d      	adds	r5, r3, r5
    3dc6:	9b00      	ldr	r3, [sp, #0]
    3dc8:	b29b      	uxth	r3, r3
    3dca:	1aeb      	subs	r3, r5, r3
    3dcc:	4665      	mov	r5, ip
    3dce:	9301      	str	r3, [sp, #4]
    3dd0:	9b00      	ldr	r3, [sp, #0]
    3dd2:	0c2d      	lsrs	r5, r5, #16
    3dd4:	0c19      	lsrs	r1, r3, #16
    3dd6:	9b01      	ldr	r3, [sp, #4]
    3dd8:	1a69      	subs	r1, r5, r1
    3dda:	141d      	asrs	r5, r3, #16
    3ddc:	1f13      	subs	r3, r2, #4
    3dde:	469c      	mov	ip, r3
    3de0:	466b      	mov	r3, sp
    3de2:	1949      	adds	r1, r1, r5
    3de4:	889b      	ldrh	r3, [r3, #4]
    3de6:	140d      	asrs	r5, r1, #16
    3de8:	0409      	lsls	r1, r1, #16
    3dea:	430b      	orrs	r3, r1
    3dec:	4661      	mov	r1, ip
    3dee:	600b      	str	r3, [r1, #0]
    3df0:	9b03      	ldr	r3, [sp, #12]
    3df2:	429f      	cmp	r7, r3
    3df4:	d3dd      	bcc.n	3db2 <__mdiff+0x60>
    3df6:	9902      	ldr	r1, [sp, #8]
    3df8:	1c13      	adds	r3, r2, #0
    3dfa:	428c      	cmp	r4, r1
    3dfc:	d20b      	bcs.n	3e16 <__mdiff+0xc4>
    3dfe:	cc08      	ldmia	r4!, {r3}
    3e00:	b299      	uxth	r1, r3
    3e02:	1949      	adds	r1, r1, r5
    3e04:	140d      	asrs	r5, r1, #16
    3e06:	0c1b      	lsrs	r3, r3, #16
    3e08:	18eb      	adds	r3, r5, r3
    3e0a:	141d      	asrs	r5, r3, #16
    3e0c:	b289      	uxth	r1, r1
    3e0e:	041b      	lsls	r3, r3, #16
    3e10:	430b      	orrs	r3, r1
    3e12:	c208      	stmia	r2!, {r3}
    3e14:	e7ef      	b.n	3df6 <__mdiff+0xa4>
    3e16:	3b04      	subs	r3, #4
    3e18:	681a      	ldr	r2, [r3, #0]
    3e1a:	2a00      	cmp	r2, #0
    3e1c:	d101      	bne.n	3e22 <__mdiff+0xd0>
    3e1e:	3e01      	subs	r6, #1
    3e20:	e7f9      	b.n	3e16 <__mdiff+0xc4>
    3e22:	6106      	str	r6, [r0, #16]
    3e24:	b005      	add	sp, #20
    3e26:	bdf0      	pop	{r4, r5, r6, r7, pc}

00003e28 <__ulp>:
    3e28:	4b0f      	ldr	r3, [pc, #60]	; (3e68 <__ulp+0x40>)
    3e2a:	b510      	push	{r4, lr}
    3e2c:	4019      	ands	r1, r3
    3e2e:	4b0f      	ldr	r3, [pc, #60]	; (3e6c <__ulp+0x44>)
    3e30:	18c9      	adds	r1, r1, r3
    3e32:	2900      	cmp	r1, #0
    3e34:	dd02      	ble.n	3e3c <__ulp+0x14>
    3e36:	2200      	movs	r2, #0
    3e38:	1c0b      	adds	r3, r1, #0
    3e3a:	e011      	b.n	3e60 <__ulp+0x38>
    3e3c:	4249      	negs	r1, r1
    3e3e:	1509      	asrs	r1, r1, #20
    3e40:	2200      	movs	r2, #0
    3e42:	2300      	movs	r3, #0
    3e44:	2913      	cmp	r1, #19
    3e46:	dc04      	bgt.n	3e52 <__ulp+0x2a>
    3e48:	2080      	movs	r0, #128	; 0x80
    3e4a:	0300      	lsls	r0, r0, #12
    3e4c:	4108      	asrs	r0, r1
    3e4e:	1c03      	adds	r3, r0, #0
    3e50:	e006      	b.n	3e60 <__ulp+0x38>
    3e52:	2001      	movs	r0, #1
    3e54:	2932      	cmp	r1, #50	; 0x32
    3e56:	dc02      	bgt.n	3e5e <__ulp+0x36>
    3e58:	2433      	movs	r4, #51	; 0x33
    3e5a:	1a61      	subs	r1, r4, r1
    3e5c:	4088      	lsls	r0, r1
    3e5e:	1c02      	adds	r2, r0, #0
    3e60:	1c10      	adds	r0, r2, #0
    3e62:	1c19      	adds	r1, r3, #0
    3e64:	bd10      	pop	{r4, pc}
    3e66:	46c0      	nop			; (mov r8, r8)
    3e68:	7ff00000 	.word	0x7ff00000
    3e6c:	fcc00000 	.word	0xfcc00000

00003e70 <__b2d>:
    3e70:	b5f7      	push	{r0, r1, r2, r4, r5, r6, r7, lr}
    3e72:	1c06      	adds	r6, r0, #0
    3e74:	6903      	ldr	r3, [r0, #16]
    3e76:	3614      	adds	r6, #20
    3e78:	009b      	lsls	r3, r3, #2
    3e7a:	18f3      	adds	r3, r6, r3
    3e7c:	1f1d      	subs	r5, r3, #4
    3e7e:	682c      	ldr	r4, [r5, #0]
    3e80:	1c0f      	adds	r7, r1, #0
    3e82:	1c20      	adds	r0, r4, #0
    3e84:	9301      	str	r3, [sp, #4]
    3e86:	f7ff fdc5 	bl	3a14 <__hi0bits>
    3e8a:	2320      	movs	r3, #32
    3e8c:	1a1b      	subs	r3, r3, r0
    3e8e:	603b      	str	r3, [r7, #0]
    3e90:	491f      	ldr	r1, [pc, #124]	; (3f10 <__b2d+0xa0>)
    3e92:	280a      	cmp	r0, #10
    3e94:	dc13      	bgt.n	3ebe <__b2d+0x4e>
    3e96:	230b      	movs	r3, #11
    3e98:	1c27      	adds	r7, r4, #0
    3e9a:	1a1b      	subs	r3, r3, r0
    3e9c:	40df      	lsrs	r7, r3
    3e9e:	4339      	orrs	r1, r7
    3ea0:	469c      	mov	ip, r3
    3ea2:	1c0b      	adds	r3, r1, #0
    3ea4:	2100      	movs	r1, #0
    3ea6:	42b5      	cmp	r5, r6
    3ea8:	d902      	bls.n	3eb0 <__b2d+0x40>
    3eaa:	9901      	ldr	r1, [sp, #4]
    3eac:	3908      	subs	r1, #8
    3eae:	6809      	ldr	r1, [r1, #0]
    3eb0:	4665      	mov	r5, ip
    3eb2:	3015      	adds	r0, #21
    3eb4:	40e9      	lsrs	r1, r5
    3eb6:	4084      	lsls	r4, r0
    3eb8:	4321      	orrs	r1, r4
    3eba:	1c0a      	adds	r2, r1, #0
    3ebc:	e024      	b.n	3f08 <__b2d+0x98>
    3ebe:	2700      	movs	r7, #0
    3ec0:	42b5      	cmp	r5, r6
    3ec2:	d902      	bls.n	3eca <__b2d+0x5a>
    3ec4:	9d01      	ldr	r5, [sp, #4]
    3ec6:	3d08      	subs	r5, #8
    3ec8:	682f      	ldr	r7, [r5, #0]
    3eca:	230b      	movs	r3, #11
    3ecc:	425b      	negs	r3, r3
    3ece:	469c      	mov	ip, r3
    3ed0:	4484      	add	ip, r0
    3ed2:	4663      	mov	r3, ip
    3ed4:	2b00      	cmp	r3, #0
    3ed6:	d014      	beq.n	3f02 <__b2d+0x92>
    3ed8:	232b      	movs	r3, #43	; 0x2b
    3eda:	1a18      	subs	r0, r3, r0
    3edc:	4663      	mov	r3, ip
    3ede:	409c      	lsls	r4, r3
    3ee0:	4321      	orrs	r1, r4
    3ee2:	1c3c      	adds	r4, r7, #0
    3ee4:	40c4      	lsrs	r4, r0
    3ee6:	4321      	orrs	r1, r4
    3ee8:	1c0b      	adds	r3, r1, #0
    3eea:	2400      	movs	r4, #0
    3eec:	42b5      	cmp	r5, r6
    3eee:	d901      	bls.n	3ef4 <__b2d+0x84>
    3ef0:	3d04      	subs	r5, #4
    3ef2:	682c      	ldr	r4, [r5, #0]
    3ef4:	40c4      	lsrs	r4, r0
    3ef6:	4661      	mov	r1, ip
    3ef8:	1c20      	adds	r0, r4, #0
    3efa:	408f      	lsls	r7, r1
    3efc:	4338      	orrs	r0, r7
    3efe:	1c02      	adds	r2, r0, #0
    3f00:	e002      	b.n	3f08 <__b2d+0x98>
    3f02:	4321      	orrs	r1, r4
    3f04:	1c0b      	adds	r3, r1, #0
    3f06:	1c3a      	adds	r2, r7, #0
    3f08:	1c10      	adds	r0, r2, #0
    3f0a:	1c19      	adds	r1, r3, #0
    3f0c:	b003      	add	sp, #12
    3f0e:	bdf0      	pop	{r4, r5, r6, r7, pc}
    3f10:	3ff00000 	.word	0x3ff00000

00003f14 <__d2b>:
    3f14:	b5f7      	push	{r0, r1, r2, r4, r5, r6, r7, lr}
    3f16:	1c1d      	adds	r5, r3, #0
    3f18:	2101      	movs	r1, #1
    3f1a:	9f08      	ldr	r7, [sp, #32]
    3f1c:	1c14      	adds	r4, r2, #0
    3f1e:	f7ff fcac 	bl	387a <_Balloc>
    3f22:	032b      	lsls	r3, r5, #12
    3f24:	006d      	lsls	r5, r5, #1
    3f26:	1c06      	adds	r6, r0, #0
    3f28:	0b1b      	lsrs	r3, r3, #12
    3f2a:	0d6d      	lsrs	r5, r5, #21
    3f2c:	d002      	beq.n	3f34 <__d2b+0x20>
    3f2e:	2280      	movs	r2, #128	; 0x80
    3f30:	0352      	lsls	r2, r2, #13
    3f32:	4313      	orrs	r3, r2
    3f34:	9301      	str	r3, [sp, #4]
    3f36:	2c00      	cmp	r4, #0
    3f38:	d018      	beq.n	3f6c <__d2b+0x58>
    3f3a:	4668      	mov	r0, sp
    3f3c:	9400      	str	r4, [sp, #0]
    3f3e:	f7ff fd84 	bl	3a4a <__lo0bits>
    3f42:	9c00      	ldr	r4, [sp, #0]
    3f44:	2800      	cmp	r0, #0
    3f46:	d009      	beq.n	3f5c <__d2b+0x48>
    3f48:	2320      	movs	r3, #32
    3f4a:	9a01      	ldr	r2, [sp, #4]
    3f4c:	1a19      	subs	r1, r3, r0
    3f4e:	1c13      	adds	r3, r2, #0
    3f50:	408b      	lsls	r3, r1
    3f52:	40c2      	lsrs	r2, r0
    3f54:	4323      	orrs	r3, r4
    3f56:	6173      	str	r3, [r6, #20]
    3f58:	9201      	str	r2, [sp, #4]
    3f5a:	e000      	b.n	3f5e <__d2b+0x4a>
    3f5c:	6174      	str	r4, [r6, #20]
    3f5e:	9c01      	ldr	r4, [sp, #4]
    3f60:	61b4      	str	r4, [r6, #24]
    3f62:	1e63      	subs	r3, r4, #1
    3f64:	419c      	sbcs	r4, r3
    3f66:	3401      	adds	r4, #1
    3f68:	6134      	str	r4, [r6, #16]
    3f6a:	e007      	b.n	3f7c <__d2b+0x68>
    3f6c:	a801      	add	r0, sp, #4
    3f6e:	f7ff fd6c 	bl	3a4a <__lo0bits>
    3f72:	2401      	movs	r4, #1
    3f74:	9b01      	ldr	r3, [sp, #4]
    3f76:	6134      	str	r4, [r6, #16]
    3f78:	6173      	str	r3, [r6, #20]
    3f7a:	3020      	adds	r0, #32
    3f7c:	2d00      	cmp	r5, #0
    3f7e:	d006      	beq.n	3f8e <__d2b+0x7a>
    3f80:	4b0b      	ldr	r3, [pc, #44]	; (3fb0 <__d2b+0x9c>)
    3f82:	18ed      	adds	r5, r5, r3
    3f84:	2335      	movs	r3, #53	; 0x35
    3f86:	182d      	adds	r5, r5, r0
    3f88:	603d      	str	r5, [r7, #0]
    3f8a:	1a18      	subs	r0, r3, r0
    3f8c:	e00b      	b.n	3fa6 <__d2b+0x92>
    3f8e:	4b09      	ldr	r3, [pc, #36]	; (3fb4 <__d2b+0xa0>)
    3f90:	18c0      	adds	r0, r0, r3
    3f92:	4b09      	ldr	r3, [pc, #36]	; (3fb8 <__d2b+0xa4>)
    3f94:	6038      	str	r0, [r7, #0]
    3f96:	18e3      	adds	r3, r4, r3
    3f98:	009b      	lsls	r3, r3, #2
    3f9a:	18f3      	adds	r3, r6, r3
    3f9c:	6958      	ldr	r0, [r3, #20]
    3f9e:	f7ff fd39 	bl	3a14 <__hi0bits>
    3fa2:	0164      	lsls	r4, r4, #5
    3fa4:	1a20      	subs	r0, r4, r0
    3fa6:	9b09      	ldr	r3, [sp, #36]	; 0x24
    3fa8:	6018      	str	r0, [r3, #0]
    3faa:	1c30      	adds	r0, r6, #0
    3fac:	bdfe      	pop	{r1, r2, r3, r4, r5, r6, r7, pc}
    3fae:	46c0      	nop			; (mov r8, r8)
    3fb0:	fffffbcd 	.word	0xfffffbcd
    3fb4:	fffffbce 	.word	0xfffffbce
    3fb8:	3fffffff 	.word	0x3fffffff

00003fbc <__ratio>:
    3fbc:	b5f0      	push	{r4, r5, r6, r7, lr}
    3fbe:	b087      	sub	sp, #28
    3fc0:	1c0e      	adds	r6, r1, #0
    3fc2:	a904      	add	r1, sp, #16
    3fc4:	1c07      	adds	r7, r0, #0
    3fc6:	f7ff ff53 	bl	3e70 <__b2d>
    3fca:	1c04      	adds	r4, r0, #0
    3fcc:	1c0d      	adds	r5, r1, #0
    3fce:	1c30      	adds	r0, r6, #0
    3fd0:	a905      	add	r1, sp, #20
    3fd2:	9400      	str	r4, [sp, #0]
    3fd4:	9501      	str	r5, [sp, #4]
    3fd6:	f7ff ff4b 	bl	3e70 <__b2d>
    3fda:	9b04      	ldr	r3, [sp, #16]
    3fdc:	9a05      	ldr	r2, [sp, #20]
    3fde:	693f      	ldr	r7, [r7, #16]
    3fe0:	1a9a      	subs	r2, r3, r2
    3fe2:	6933      	ldr	r3, [r6, #16]
    3fe4:	9002      	str	r0, [sp, #8]
    3fe6:	9103      	str	r1, [sp, #12]
    3fe8:	1afb      	subs	r3, r7, r3
    3fea:	015b      	lsls	r3, r3, #5
    3fec:	18d3      	adds	r3, r2, r3
    3fee:	2b00      	cmp	r3, #0
    3ff0:	dd03      	ble.n	3ffa <__ratio+0x3e>
    3ff2:	051b      	lsls	r3, r3, #20
    3ff4:	195b      	adds	r3, r3, r5
    3ff6:	9301      	str	r3, [sp, #4]
    3ff8:	e002      	b.n	4000 <__ratio+0x44>
    3ffa:	051b      	lsls	r3, r3, #20
    3ffc:	1acb      	subs	r3, r1, r3
    3ffe:	9303      	str	r3, [sp, #12]
    4000:	9800      	ldr	r0, [sp, #0]
    4002:	9901      	ldr	r1, [sp, #4]
    4004:	9a02      	ldr	r2, [sp, #8]
    4006:	9b03      	ldr	r3, [sp, #12]
    4008:	f001 fc94 	bl	5934 <__aeabi_ddiv>
    400c:	b007      	add	sp, #28
    400e:	bdf0      	pop	{r4, r5, r6, r7, pc}

00004010 <__copybits>:
    4010:	1c13      	adds	r3, r2, #0
    4012:	3901      	subs	r1, #1
    4014:	b510      	push	{r4, lr}
    4016:	1149      	asrs	r1, r1, #5
    4018:	6912      	ldr	r2, [r2, #16]
    401a:	3101      	adds	r1, #1
    401c:	0089      	lsls	r1, r1, #2
    401e:	3314      	adds	r3, #20
    4020:	0092      	lsls	r2, r2, #2
    4022:	1841      	adds	r1, r0, r1
    4024:	189a      	adds	r2, r3, r2
    4026:	4293      	cmp	r3, r2
    4028:	d202      	bcs.n	4030 <__copybits+0x20>
    402a:	cb10      	ldmia	r3!, {r4}
    402c:	c010      	stmia	r0!, {r4}
    402e:	e7fa      	b.n	4026 <__copybits+0x16>
    4030:	4288      	cmp	r0, r1
    4032:	d202      	bcs.n	403a <__copybits+0x2a>
    4034:	2300      	movs	r3, #0
    4036:	c008      	stmia	r0!, {r3}
    4038:	e7fa      	b.n	4030 <__copybits+0x20>
    403a:	bd10      	pop	{r4, pc}

0000403c <__any_on>:
    403c:	b530      	push	{r4, r5, lr}
    403e:	1c04      	adds	r4, r0, #0
    4040:	6902      	ldr	r2, [r0, #16]
    4042:	3414      	adds	r4, #20
    4044:	114b      	asrs	r3, r1, #5
    4046:	4293      	cmp	r3, r2
    4048:	dc0c      	bgt.n	4064 <__any_on+0x28>
    404a:	da0c      	bge.n	4066 <__any_on+0x2a>
    404c:	221f      	movs	r2, #31
    404e:	4011      	ands	r1, r2
    4050:	d009      	beq.n	4066 <__any_on+0x2a>
    4052:	009a      	lsls	r2, r3, #2
    4054:	5915      	ldr	r5, [r2, r4]
    4056:	2001      	movs	r0, #1
    4058:	1c2a      	adds	r2, r5, #0
    405a:	40ca      	lsrs	r2, r1
    405c:	408a      	lsls	r2, r1
    405e:	42aa      	cmp	r2, r5
    4060:	d10c      	bne.n	407c <__any_on+0x40>
    4062:	e000      	b.n	4066 <__any_on+0x2a>
    4064:	1c13      	adds	r3, r2, #0
    4066:	009b      	lsls	r3, r3, #2
    4068:	18e3      	adds	r3, r4, r3
    406a:	42a3      	cmp	r3, r4
    406c:	d905      	bls.n	407a <__any_on+0x3e>
    406e:	3b04      	subs	r3, #4
    4070:	681a      	ldr	r2, [r3, #0]
    4072:	2a00      	cmp	r2, #0
    4074:	d0f9      	beq.n	406a <__any_on+0x2e>
    4076:	2001      	movs	r0, #1
    4078:	e000      	b.n	407c <__any_on+0x40>
    407a:	2000      	movs	r0, #0
    407c:	bd30      	pop	{r4, r5, pc}

0000407e <_calloc_r>:
    407e:	434a      	muls	r2, r1
    4080:	b538      	push	{r3, r4, r5, lr}
    4082:	1c11      	adds	r1, r2, #0
    4084:	1c14      	adds	r4, r2, #0
    4086:	f000 f809 	bl	409c <_malloc_r>
    408a:	1e05      	subs	r5, r0, #0
    408c:	d003      	beq.n	4096 <_calloc_r+0x18>
    408e:	2100      	movs	r1, #0
    4090:	1c22      	adds	r2, r4, #0
    4092:	f7fe f9b5 	bl	2400 <memset>
    4096:	1c28      	adds	r0, r5, #0
    4098:	bd38      	pop	{r3, r4, r5, pc}
	...

0000409c <_malloc_r>:
    409c:	2303      	movs	r3, #3
    409e:	b570      	push	{r4, r5, r6, lr}
    40a0:	1ccc      	adds	r4, r1, #3
    40a2:	439c      	bics	r4, r3
    40a4:	3408      	adds	r4, #8
    40a6:	1c05      	adds	r5, r0, #0
    40a8:	2c0c      	cmp	r4, #12
    40aa:	d201      	bcs.n	40b0 <_malloc_r+0x14>
    40ac:	240c      	movs	r4, #12
    40ae:	e005      	b.n	40bc <_malloc_r+0x20>
    40b0:	2c00      	cmp	r4, #0
    40b2:	da03      	bge.n	40bc <_malloc_r+0x20>
    40b4:	230c      	movs	r3, #12
    40b6:	2000      	movs	r0, #0
    40b8:	602b      	str	r3, [r5, #0]
    40ba:	e042      	b.n	4142 <_malloc_r+0xa6>
    40bc:	428c      	cmp	r4, r1
    40be:	d3f9      	bcc.n	40b4 <_malloc_r+0x18>
    40c0:	4a20      	ldr	r2, [pc, #128]	; (4144 <_malloc_r+0xa8>)
    40c2:	6813      	ldr	r3, [r2, #0]
    40c4:	1c10      	adds	r0, r2, #0
    40c6:	1c19      	adds	r1, r3, #0
    40c8:	2900      	cmp	r1, #0
    40ca:	d013      	beq.n	40f4 <_malloc_r+0x58>
    40cc:	680a      	ldr	r2, [r1, #0]
    40ce:	1b12      	subs	r2, r2, r4
    40d0:	d40d      	bmi.n	40ee <_malloc_r+0x52>
    40d2:	2a0b      	cmp	r2, #11
    40d4:	d902      	bls.n	40dc <_malloc_r+0x40>
    40d6:	600a      	str	r2, [r1, #0]
    40d8:	188b      	adds	r3, r1, r2
    40da:	e01f      	b.n	411c <_malloc_r+0x80>
    40dc:	428b      	cmp	r3, r1
    40de:	d102      	bne.n	40e6 <_malloc_r+0x4a>
    40e0:	685a      	ldr	r2, [r3, #4]
    40e2:	6002      	str	r2, [r0, #0]
    40e4:	e01b      	b.n	411e <_malloc_r+0x82>
    40e6:	684a      	ldr	r2, [r1, #4]
    40e8:	605a      	str	r2, [r3, #4]
    40ea:	1c0b      	adds	r3, r1, #0
    40ec:	e017      	b.n	411e <_malloc_r+0x82>
    40ee:	1c0b      	adds	r3, r1, #0
    40f0:	6849      	ldr	r1, [r1, #4]
    40f2:	e7e9      	b.n	40c8 <_malloc_r+0x2c>
    40f4:	4e14      	ldr	r6, [pc, #80]	; (4148 <_malloc_r+0xac>)
    40f6:	6833      	ldr	r3, [r6, #0]
    40f8:	2b00      	cmp	r3, #0
    40fa:	d103      	bne.n	4104 <_malloc_r+0x68>
    40fc:	1c28      	adds	r0, r5, #0
    40fe:	f000 f825 	bl	414c <_sbrk_r>
    4102:	6030      	str	r0, [r6, #0]
    4104:	1c28      	adds	r0, r5, #0
    4106:	1c21      	adds	r1, r4, #0
    4108:	f000 f820 	bl	414c <_sbrk_r>
    410c:	1c03      	adds	r3, r0, #0
    410e:	1c42      	adds	r2, r0, #1
    4110:	d0d0      	beq.n	40b4 <_malloc_r+0x18>
    4112:	2203      	movs	r2, #3
    4114:	1cc6      	adds	r6, r0, #3
    4116:	4396      	bics	r6, r2
    4118:	4286      	cmp	r6, r0
    411a:	d10a      	bne.n	4132 <_malloc_r+0x96>
    411c:	601c      	str	r4, [r3, #0]
    411e:	1c18      	adds	r0, r3, #0
    4120:	2107      	movs	r1, #7
    4122:	300b      	adds	r0, #11
    4124:	1d1a      	adds	r2, r3, #4
    4126:	4388      	bics	r0, r1
    4128:	1a82      	subs	r2, r0, r2
    412a:	d00a      	beq.n	4142 <_malloc_r+0xa6>
    412c:	4251      	negs	r1, r2
    412e:	5099      	str	r1, [r3, r2]
    4130:	e007      	b.n	4142 <_malloc_r+0xa6>
    4132:	1a31      	subs	r1, r6, r0
    4134:	1c28      	adds	r0, r5, #0
    4136:	f000 f809 	bl	414c <_sbrk_r>
    413a:	1c43      	adds	r3, r0, #1
    413c:	d0ba      	beq.n	40b4 <_malloc_r+0x18>
    413e:	1c33      	adds	r3, r6, #0
    4140:	e7ec      	b.n	411c <_malloc_r+0x80>
    4142:	bd70      	pop	{r4, r5, r6, pc}
    4144:	200000dc 	.word	0x200000dc
    4148:	200000d8 	.word	0x200000d8

0000414c <_sbrk_r>:
    414c:	b538      	push	{r3, r4, r5, lr}
    414e:	2300      	movs	r3, #0
    4150:	4c06      	ldr	r4, [pc, #24]	; (416c <_sbrk_r+0x20>)
    4152:	1c05      	adds	r5, r0, #0
    4154:	1c08      	adds	r0, r1, #0
    4156:	6023      	str	r3, [r4, #0]
    4158:	f7fc fa5c 	bl	614 <_sbrk>
    415c:	1c43      	adds	r3, r0, #1
    415e:	d103      	bne.n	4168 <_sbrk_r+0x1c>
    4160:	6823      	ldr	r3, [r4, #0]
    4162:	2b00      	cmp	r3, #0
    4164:	d000      	beq.n	4168 <_sbrk_r+0x1c>
    4166:	602b      	str	r3, [r5, #0]
    4168:	bd38      	pop	{r3, r4, r5, pc}
    416a:	46c0      	nop			; (mov r8, r8)
    416c:	20004f10 	.word	0x20004f10

00004170 <strlen>:
    4170:	2300      	movs	r3, #0
    4172:	5cc2      	ldrb	r2, [r0, r3]
    4174:	3301      	adds	r3, #1
    4176:	2a00      	cmp	r2, #0
    4178:	d1fb      	bne.n	4172 <strlen+0x2>
    417a:	1e58      	subs	r0, r3, #1
    417c:	4770      	bx	lr

0000417e <strncmp>:
    417e:	2300      	movs	r3, #0
    4180:	b530      	push	{r4, r5, lr}
    4182:	429a      	cmp	r2, r3
    4184:	d00d      	beq.n	41a2 <strncmp+0x24>
    4186:	3a01      	subs	r2, #1
    4188:	5cc4      	ldrb	r4, [r0, r3]
    418a:	5ccd      	ldrb	r5, [r1, r3]
    418c:	42ac      	cmp	r4, r5
    418e:	d102      	bne.n	4196 <strncmp+0x18>
    4190:	4293      	cmp	r3, r2
    4192:	d102      	bne.n	419a <strncmp+0x1c>
    4194:	1c25      	adds	r5, r4, #0
    4196:	1b63      	subs	r3, r4, r5
    4198:	e003      	b.n	41a2 <strncmp+0x24>
    419a:	3301      	adds	r3, #1
    419c:	2c00      	cmp	r4, #0
    419e:	d1f3      	bne.n	4188 <strncmp+0xa>
    41a0:	e7f8      	b.n	4194 <strncmp+0x16>
    41a2:	1c18      	adds	r0, r3, #0
    41a4:	bd30      	pop	{r4, r5, pc}
	...

000041a8 <malloc>:
    41a8:	b508      	push	{r3, lr}
    41aa:	4b03      	ldr	r3, [pc, #12]	; (41b8 <malloc+0x10>)
    41ac:	1c01      	adds	r1, r0, #0
    41ae:	6818      	ldr	r0, [r3, #0]
    41b0:	f7ff ff74 	bl	409c <_malloc_r>
    41b4:	bd08      	pop	{r3, pc}
    41b6:	46c0      	nop			; (mov r8, r8)
    41b8:	20000070 	.word	0x20000070

000041bc <__gnu_thumb1_case_uqi>:
    41bc:	b402      	push	{r1}
    41be:	4671      	mov	r1, lr
    41c0:	0849      	lsrs	r1, r1, #1
    41c2:	0049      	lsls	r1, r1, #1
    41c4:	5c09      	ldrb	r1, [r1, r0]
    41c6:	0049      	lsls	r1, r1, #1
    41c8:	448e      	add	lr, r1
    41ca:	bc02      	pop	{r1}
    41cc:	4770      	bx	lr
    41ce:	46c0      	nop			; (mov r8, r8)

000041d0 <__aeabi_uidiv>:
    41d0:	2200      	movs	r2, #0
    41d2:	0843      	lsrs	r3, r0, #1
    41d4:	428b      	cmp	r3, r1
    41d6:	d374      	bcc.n	42c2 <__aeabi_uidiv+0xf2>
    41d8:	0903      	lsrs	r3, r0, #4
    41da:	428b      	cmp	r3, r1
    41dc:	d35f      	bcc.n	429e <__aeabi_uidiv+0xce>
    41de:	0a03      	lsrs	r3, r0, #8
    41e0:	428b      	cmp	r3, r1
    41e2:	d344      	bcc.n	426e <__aeabi_uidiv+0x9e>
    41e4:	0b03      	lsrs	r3, r0, #12
    41e6:	428b      	cmp	r3, r1
    41e8:	d328      	bcc.n	423c <__aeabi_uidiv+0x6c>
    41ea:	0c03      	lsrs	r3, r0, #16
    41ec:	428b      	cmp	r3, r1
    41ee:	d30d      	bcc.n	420c <__aeabi_uidiv+0x3c>
    41f0:	22ff      	movs	r2, #255	; 0xff
    41f2:	0209      	lsls	r1, r1, #8
    41f4:	ba12      	rev	r2, r2
    41f6:	0c03      	lsrs	r3, r0, #16
    41f8:	428b      	cmp	r3, r1
    41fa:	d302      	bcc.n	4202 <__aeabi_uidiv+0x32>
    41fc:	1212      	asrs	r2, r2, #8
    41fe:	0209      	lsls	r1, r1, #8
    4200:	d065      	beq.n	42ce <__aeabi_uidiv+0xfe>
    4202:	0b03      	lsrs	r3, r0, #12
    4204:	428b      	cmp	r3, r1
    4206:	d319      	bcc.n	423c <__aeabi_uidiv+0x6c>
    4208:	e000      	b.n	420c <__aeabi_uidiv+0x3c>
    420a:	0a09      	lsrs	r1, r1, #8
    420c:	0bc3      	lsrs	r3, r0, #15
    420e:	428b      	cmp	r3, r1
    4210:	d301      	bcc.n	4216 <__aeabi_uidiv+0x46>
    4212:	03cb      	lsls	r3, r1, #15
    4214:	1ac0      	subs	r0, r0, r3
    4216:	4152      	adcs	r2, r2
    4218:	0b83      	lsrs	r3, r0, #14
    421a:	428b      	cmp	r3, r1
    421c:	d301      	bcc.n	4222 <__aeabi_uidiv+0x52>
    421e:	038b      	lsls	r3, r1, #14
    4220:	1ac0      	subs	r0, r0, r3
    4222:	4152      	adcs	r2, r2
    4224:	0b43      	lsrs	r3, r0, #13
    4226:	428b      	cmp	r3, r1
    4228:	d301      	bcc.n	422e <__aeabi_uidiv+0x5e>
    422a:	034b      	lsls	r3, r1, #13
    422c:	1ac0      	subs	r0, r0, r3
    422e:	4152      	adcs	r2, r2
    4230:	0b03      	lsrs	r3, r0, #12
    4232:	428b      	cmp	r3, r1
    4234:	d301      	bcc.n	423a <__aeabi_uidiv+0x6a>
    4236:	030b      	lsls	r3, r1, #12
    4238:	1ac0      	subs	r0, r0, r3
    423a:	4152      	adcs	r2, r2
    423c:	0ac3      	lsrs	r3, r0, #11
    423e:	428b      	cmp	r3, r1
    4240:	d301      	bcc.n	4246 <__aeabi_uidiv+0x76>
    4242:	02cb      	lsls	r3, r1, #11
    4244:	1ac0      	subs	r0, r0, r3
    4246:	4152      	adcs	r2, r2
    4248:	0a83      	lsrs	r3, r0, #10
    424a:	428b      	cmp	r3, r1
    424c:	d301      	bcc.n	4252 <__aeabi_uidiv+0x82>
    424e:	028b      	lsls	r3, r1, #10
    4250:	1ac0      	subs	r0, r0, r3
    4252:	4152      	adcs	r2, r2
    4254:	0a43      	lsrs	r3, r0, #9
    4256:	428b      	cmp	r3, r1
    4258:	d301      	bcc.n	425e <__aeabi_uidiv+0x8e>
    425a:	024b      	lsls	r3, r1, #9
    425c:	1ac0      	subs	r0, r0, r3
    425e:	4152      	adcs	r2, r2
    4260:	0a03      	lsrs	r3, r0, #8
    4262:	428b      	cmp	r3, r1
    4264:	d301      	bcc.n	426a <__aeabi_uidiv+0x9a>
    4266:	020b      	lsls	r3, r1, #8
    4268:	1ac0      	subs	r0, r0, r3
    426a:	4152      	adcs	r2, r2
    426c:	d2cd      	bcs.n	420a <__aeabi_uidiv+0x3a>
    426e:	09c3      	lsrs	r3, r0, #7
    4270:	428b      	cmp	r3, r1
    4272:	d301      	bcc.n	4278 <__aeabi_uidiv+0xa8>
    4274:	01cb      	lsls	r3, r1, #7
    4276:	1ac0      	subs	r0, r0, r3
    4278:	4152      	adcs	r2, r2
    427a:	0983      	lsrs	r3, r0, #6
    427c:	428b      	cmp	r3, r1
    427e:	d301      	bcc.n	4284 <__aeabi_uidiv+0xb4>
    4280:	018b      	lsls	r3, r1, #6
    4282:	1ac0      	subs	r0, r0, r3
    4284:	4152      	adcs	r2, r2
    4286:	0943      	lsrs	r3, r0, #5
    4288:	428b      	cmp	r3, r1
    428a:	d301      	bcc.n	4290 <__aeabi_uidiv+0xc0>
    428c:	014b      	lsls	r3, r1, #5
    428e:	1ac0      	subs	r0, r0, r3
    4290:	4152      	adcs	r2, r2
    4292:	0903      	lsrs	r3, r0, #4
    4294:	428b      	cmp	r3, r1
    4296:	d301      	bcc.n	429c <__aeabi_uidiv+0xcc>
    4298:	010b      	lsls	r3, r1, #4
    429a:	1ac0      	subs	r0, r0, r3
    429c:	4152      	adcs	r2, r2
    429e:	08c3      	lsrs	r3, r0, #3
    42a0:	428b      	cmp	r3, r1
    42a2:	d301      	bcc.n	42a8 <__aeabi_uidiv+0xd8>
    42a4:	00cb      	lsls	r3, r1, #3
    42a6:	1ac0      	subs	r0, r0, r3
    42a8:	4152      	adcs	r2, r2
    42aa:	0883      	lsrs	r3, r0, #2
    42ac:	428b      	cmp	r3, r1
    42ae:	d301      	bcc.n	42b4 <__aeabi_uidiv+0xe4>
    42b0:	008b      	lsls	r3, r1, #2
    42b2:	1ac0      	subs	r0, r0, r3
    42b4:	4152      	adcs	r2, r2
    42b6:	0843      	lsrs	r3, r0, #1
    42b8:	428b      	cmp	r3, r1
    42ba:	d301      	bcc.n	42c0 <__aeabi_uidiv+0xf0>
    42bc:	004b      	lsls	r3, r1, #1
    42be:	1ac0      	subs	r0, r0, r3
    42c0:	4152      	adcs	r2, r2
    42c2:	1a41      	subs	r1, r0, r1
    42c4:	d200      	bcs.n	42c8 <__aeabi_uidiv+0xf8>
    42c6:	4601      	mov	r1, r0
    42c8:	4152      	adcs	r2, r2
    42ca:	4610      	mov	r0, r2
    42cc:	4770      	bx	lr
    42ce:	e7ff      	b.n	42d0 <__aeabi_uidiv+0x100>
    42d0:	b501      	push	{r0, lr}
    42d2:	2000      	movs	r0, #0
    42d4:	f000 f8fc 	bl	44d0 <__aeabi_idiv0>
    42d8:	bd02      	pop	{r1, pc}
    42da:	46c0      	nop			; (mov r8, r8)

000042dc <__aeabi_uidivmod>:
    42dc:	2900      	cmp	r1, #0
    42de:	d0f7      	beq.n	42d0 <__aeabi_uidiv+0x100>
    42e0:	b503      	push	{r0, r1, lr}
    42e2:	f7ff ff75 	bl	41d0 <__aeabi_uidiv>
    42e6:	bc0e      	pop	{r1, r2, r3}
    42e8:	4342      	muls	r2, r0
    42ea:	1a89      	subs	r1, r1, r2
    42ec:	4718      	bx	r3
    42ee:	46c0      	nop			; (mov r8, r8)

000042f0 <__aeabi_idiv>:
    42f0:	4603      	mov	r3, r0
    42f2:	430b      	orrs	r3, r1
    42f4:	d47f      	bmi.n	43f6 <__aeabi_idiv+0x106>
    42f6:	2200      	movs	r2, #0
    42f8:	0843      	lsrs	r3, r0, #1
    42fa:	428b      	cmp	r3, r1
    42fc:	d374      	bcc.n	43e8 <__aeabi_idiv+0xf8>
    42fe:	0903      	lsrs	r3, r0, #4
    4300:	428b      	cmp	r3, r1
    4302:	d35f      	bcc.n	43c4 <__aeabi_idiv+0xd4>
    4304:	0a03      	lsrs	r3, r0, #8
    4306:	428b      	cmp	r3, r1
    4308:	d344      	bcc.n	4394 <__aeabi_idiv+0xa4>
    430a:	0b03      	lsrs	r3, r0, #12
    430c:	428b      	cmp	r3, r1
    430e:	d328      	bcc.n	4362 <__aeabi_idiv+0x72>
    4310:	0c03      	lsrs	r3, r0, #16
    4312:	428b      	cmp	r3, r1
    4314:	d30d      	bcc.n	4332 <__aeabi_idiv+0x42>
    4316:	22ff      	movs	r2, #255	; 0xff
    4318:	0209      	lsls	r1, r1, #8
    431a:	ba12      	rev	r2, r2
    431c:	0c03      	lsrs	r3, r0, #16
    431e:	428b      	cmp	r3, r1
    4320:	d302      	bcc.n	4328 <__aeabi_idiv+0x38>
    4322:	1212      	asrs	r2, r2, #8
    4324:	0209      	lsls	r1, r1, #8
    4326:	d065      	beq.n	43f4 <__aeabi_idiv+0x104>
    4328:	0b03      	lsrs	r3, r0, #12
    432a:	428b      	cmp	r3, r1
    432c:	d319      	bcc.n	4362 <__aeabi_idiv+0x72>
    432e:	e000      	b.n	4332 <__aeabi_idiv+0x42>
    4330:	0a09      	lsrs	r1, r1, #8
    4332:	0bc3      	lsrs	r3, r0, #15
    4334:	428b      	cmp	r3, r1
    4336:	d301      	bcc.n	433c <__aeabi_idiv+0x4c>
    4338:	03cb      	lsls	r3, r1, #15
    433a:	1ac0      	subs	r0, r0, r3
    433c:	4152      	adcs	r2, r2
    433e:	0b83      	lsrs	r3, r0, #14
    4340:	428b      	cmp	r3, r1
    4342:	d301      	bcc.n	4348 <__aeabi_idiv+0x58>
    4344:	038b      	lsls	r3, r1, #14
    4346:	1ac0      	subs	r0, r0, r3
    4348:	4152      	adcs	r2, r2
    434a:	0b43      	lsrs	r3, r0, #13
    434c:	428b      	cmp	r3, r1
    434e:	d301      	bcc.n	4354 <__aeabi_idiv+0x64>
    4350:	034b      	lsls	r3, r1, #13
    4352:	1ac0      	subs	r0, r0, r3
    4354:	4152      	adcs	r2, r2
    4356:	0b03      	lsrs	r3, r0, #12
    4358:	428b      	cmp	r3, r1
    435a:	d301      	bcc.n	4360 <__aeabi_idiv+0x70>
    435c:	030b      	lsls	r3, r1, #12
    435e:	1ac0      	subs	r0, r0, r3
    4360:	4152      	adcs	r2, r2
    4362:	0ac3      	lsrs	r3, r0, #11
    4364:	428b      	cmp	r3, r1
    4366:	d301      	bcc.n	436c <__aeabi_idiv+0x7c>
    4368:	02cb      	lsls	r3, r1, #11
    436a:	1ac0      	subs	r0, r0, r3
    436c:	4152      	adcs	r2, r2
    436e:	0a83      	lsrs	r3, r0, #10
    4370:	428b      	cmp	r3, r1
    4372:	d301      	bcc.n	4378 <__aeabi_idiv+0x88>
    4374:	028b      	lsls	r3, r1, #10
    4376:	1ac0      	subs	r0, r0, r3
    4378:	4152      	adcs	r2, r2
    437a:	0a43      	lsrs	r3, r0, #9
    437c:	428b      	cmp	r3, r1
    437e:	d301      	bcc.n	4384 <__aeabi_idiv+0x94>
    4380:	024b      	lsls	r3, r1, #9
    4382:	1ac0      	subs	r0, r0, r3
    4384:	4152      	adcs	r2, r2
    4386:	0a03      	lsrs	r3, r0, #8
    4388:	428b      	cmp	r3, r1
    438a:	d301      	bcc.n	4390 <__aeabi_idiv+0xa0>
    438c:	020b      	lsls	r3, r1, #8
    438e:	1ac0      	subs	r0, r0, r3
    4390:	4152      	adcs	r2, r2
    4392:	d2cd      	bcs.n	4330 <__aeabi_idiv+0x40>
    4394:	09c3      	lsrs	r3, r0, #7
    4396:	428b      	cmp	r3, r1
    4398:	d301      	bcc.n	439e <__aeabi_idiv+0xae>
    439a:	01cb      	lsls	r3, r1, #7
    439c:	1ac0      	subs	r0, r0, r3
    439e:	4152      	adcs	r2, r2
    43a0:	0983      	lsrs	r3, r0, #6
    43a2:	428b      	cmp	r3, r1
    43a4:	d301      	bcc.n	43aa <__aeabi_idiv+0xba>
    43a6:	018b      	lsls	r3, r1, #6
    43a8:	1ac0      	subs	r0, r0, r3
    43aa:	4152      	adcs	r2, r2
    43ac:	0943      	lsrs	r3, r0, #5
    43ae:	428b      	cmp	r3, r1
    43b0:	d301      	bcc.n	43b6 <__aeabi_idiv+0xc6>
    43b2:	014b      	lsls	r3, r1, #5
    43b4:	1ac0      	subs	r0, r0, r3
    43b6:	4152      	adcs	r2, r2
    43b8:	0903      	lsrs	r3, r0, #4
    43ba:	428b      	cmp	r3, r1
    43bc:	d301      	bcc.n	43c2 <__aeabi_idiv+0xd2>
    43be:	010b      	lsls	r3, r1, #4
    43c0:	1ac0      	subs	r0, r0, r3
    43c2:	4152      	adcs	r2, r2
    43c4:	08c3      	lsrs	r3, r0, #3
    43c6:	428b      	cmp	r3, r1
    43c8:	d301      	bcc.n	43ce <__aeabi_idiv+0xde>
    43ca:	00cb      	lsls	r3, r1, #3
    43cc:	1ac0      	subs	r0, r0, r3
    43ce:	4152      	adcs	r2, r2
    43d0:	0883      	lsrs	r3, r0, #2
    43d2:	428b      	cmp	r3, r1
    43d4:	d301      	bcc.n	43da <__aeabi_idiv+0xea>
    43d6:	008b      	lsls	r3, r1, #2
    43d8:	1ac0      	subs	r0, r0, r3
    43da:	4152      	adcs	r2, r2
    43dc:	0843      	lsrs	r3, r0, #1
    43de:	428b      	cmp	r3, r1
    43e0:	d301      	bcc.n	43e6 <__aeabi_idiv+0xf6>
    43e2:	004b      	lsls	r3, r1, #1
    43e4:	1ac0      	subs	r0, r0, r3
    43e6:	4152      	adcs	r2, r2
    43e8:	1a41      	subs	r1, r0, r1
    43ea:	d200      	bcs.n	43ee <__aeabi_idiv+0xfe>
    43ec:	4601      	mov	r1, r0
    43ee:	4152      	adcs	r2, r2
    43f0:	4610      	mov	r0, r2
    43f2:	4770      	bx	lr
    43f4:	e05d      	b.n	44b2 <__aeabi_idiv+0x1c2>
    43f6:	0fca      	lsrs	r2, r1, #31
    43f8:	d000      	beq.n	43fc <__aeabi_idiv+0x10c>
    43fa:	4249      	negs	r1, r1
    43fc:	1003      	asrs	r3, r0, #32
    43fe:	d300      	bcc.n	4402 <__aeabi_idiv+0x112>
    4400:	4240      	negs	r0, r0
    4402:	4053      	eors	r3, r2
    4404:	2200      	movs	r2, #0
    4406:	469c      	mov	ip, r3
    4408:	0903      	lsrs	r3, r0, #4
    440a:	428b      	cmp	r3, r1
    440c:	d32d      	bcc.n	446a <__aeabi_idiv+0x17a>
    440e:	0a03      	lsrs	r3, r0, #8
    4410:	428b      	cmp	r3, r1
    4412:	d312      	bcc.n	443a <__aeabi_idiv+0x14a>
    4414:	22fc      	movs	r2, #252	; 0xfc
    4416:	0189      	lsls	r1, r1, #6
    4418:	ba12      	rev	r2, r2
    441a:	0a03      	lsrs	r3, r0, #8
    441c:	428b      	cmp	r3, r1
    441e:	d30c      	bcc.n	443a <__aeabi_idiv+0x14a>
    4420:	0189      	lsls	r1, r1, #6
    4422:	1192      	asrs	r2, r2, #6
    4424:	428b      	cmp	r3, r1
    4426:	d308      	bcc.n	443a <__aeabi_idiv+0x14a>
    4428:	0189      	lsls	r1, r1, #6
    442a:	1192      	asrs	r2, r2, #6
    442c:	428b      	cmp	r3, r1
    442e:	d304      	bcc.n	443a <__aeabi_idiv+0x14a>
    4430:	0189      	lsls	r1, r1, #6
    4432:	d03a      	beq.n	44aa <__aeabi_idiv+0x1ba>
    4434:	1192      	asrs	r2, r2, #6
    4436:	e000      	b.n	443a <__aeabi_idiv+0x14a>
    4438:	0989      	lsrs	r1, r1, #6
    443a:	09c3      	lsrs	r3, r0, #7
    443c:	428b      	cmp	r3, r1
    443e:	d301      	bcc.n	4444 <__aeabi_idiv+0x154>
    4440:	01cb      	lsls	r3, r1, #7
    4442:	1ac0      	subs	r0, r0, r3
    4444:	4152      	adcs	r2, r2
    4446:	0983      	lsrs	r3, r0, #6
    4448:	428b      	cmp	r3, r1
    444a:	d301      	bcc.n	4450 <__aeabi_idiv+0x160>
    444c:	018b      	lsls	r3, r1, #6
    444e:	1ac0      	subs	r0, r0, r3
    4450:	4152      	adcs	r2, r2
    4452:	0943      	lsrs	r3, r0, #5
    4454:	428b      	cmp	r3, r1
    4456:	d301      	bcc.n	445c <__aeabi_idiv+0x16c>
    4458:	014b      	lsls	r3, r1, #5
    445a:	1ac0      	subs	r0, r0, r3
    445c:	4152      	adcs	r2, r2
    445e:	0903      	lsrs	r3, r0, #4
    4460:	428b      	cmp	r3, r1
    4462:	d301      	bcc.n	4468 <__aeabi_idiv+0x178>
    4464:	010b      	lsls	r3, r1, #4
    4466:	1ac0      	subs	r0, r0, r3
    4468:	4152      	adcs	r2, r2
    446a:	08c3      	lsrs	r3, r0, #3
    446c:	428b      	cmp	r3, r1
    446e:	d301      	bcc.n	4474 <__aeabi_idiv+0x184>
    4470:	00cb      	lsls	r3, r1, #3
    4472:	1ac0      	subs	r0, r0, r3
    4474:	4152      	adcs	r2, r2
    4476:	0883      	lsrs	r3, r0, #2
    4478:	428b      	cmp	r3, r1
    447a:	d301      	bcc.n	4480 <__aeabi_idiv+0x190>
    447c:	008b      	lsls	r3, r1, #2
    447e:	1ac0      	subs	r0, r0, r3
    4480:	4152      	adcs	r2, r2
    4482:	d2d9      	bcs.n	4438 <__aeabi_idiv+0x148>
    4484:	0843      	lsrs	r3, r0, #1
    4486:	428b      	cmp	r3, r1
    4488:	d301      	bcc.n	448e <__aeabi_idiv+0x19e>
    448a:	004b      	lsls	r3, r1, #1
    448c:	1ac0      	subs	r0, r0, r3
    448e:	4152      	adcs	r2, r2
    4490:	1a41      	subs	r1, r0, r1
    4492:	d200      	bcs.n	4496 <__aeabi_idiv+0x1a6>
    4494:	4601      	mov	r1, r0
    4496:	4663      	mov	r3, ip
    4498:	4152      	adcs	r2, r2
    449a:	105b      	asrs	r3, r3, #1
    449c:	4610      	mov	r0, r2
    449e:	d301      	bcc.n	44a4 <__aeabi_idiv+0x1b4>
    44a0:	4240      	negs	r0, r0
    44a2:	2b00      	cmp	r3, #0
    44a4:	d500      	bpl.n	44a8 <__aeabi_idiv+0x1b8>
    44a6:	4249      	negs	r1, r1
    44a8:	4770      	bx	lr
    44aa:	4663      	mov	r3, ip
    44ac:	105b      	asrs	r3, r3, #1
    44ae:	d300      	bcc.n	44b2 <__aeabi_idiv+0x1c2>
    44b0:	4240      	negs	r0, r0
    44b2:	b501      	push	{r0, lr}
    44b4:	2000      	movs	r0, #0
    44b6:	f000 f80b 	bl	44d0 <__aeabi_idiv0>
    44ba:	bd02      	pop	{r1, pc}

000044bc <__aeabi_idivmod>:
    44bc:	2900      	cmp	r1, #0
    44be:	d0f8      	beq.n	44b2 <__aeabi_idiv+0x1c2>
    44c0:	b503      	push	{r0, r1, lr}
    44c2:	f7ff ff15 	bl	42f0 <__aeabi_idiv>
    44c6:	bc0e      	pop	{r1, r2, r3}
    44c8:	4342      	muls	r2, r0
    44ca:	1a89      	subs	r1, r1, r2
    44cc:	4718      	bx	r3
    44ce:	46c0      	nop			; (mov r8, r8)

000044d0 <__aeabi_idiv0>:
    44d0:	4770      	bx	lr
    44d2:	46c0      	nop			; (mov r8, r8)

000044d4 <__aeabi_cdrcmple>:
    44d4:	4684      	mov	ip, r0
    44d6:	1c10      	adds	r0, r2, #0
    44d8:	4662      	mov	r2, ip
    44da:	468c      	mov	ip, r1
    44dc:	1c19      	adds	r1, r3, #0
    44de:	4663      	mov	r3, ip
    44e0:	e000      	b.n	44e4 <__aeabi_cdcmpeq>
    44e2:	46c0      	nop			; (mov r8, r8)

000044e4 <__aeabi_cdcmpeq>:
    44e4:	b51f      	push	{r0, r1, r2, r3, r4, lr}
    44e6:	f001 fdfd 	bl	60e4 <__ledf2>
    44ea:	2800      	cmp	r0, #0
    44ec:	d401      	bmi.n	44f2 <__aeabi_cdcmpeq+0xe>
    44ee:	2100      	movs	r1, #0
    44f0:	42c8      	cmn	r0, r1
    44f2:	bd1f      	pop	{r0, r1, r2, r3, r4, pc}

000044f4 <__aeabi_dcmpeq>:
    44f4:	b510      	push	{r4, lr}
    44f6:	f001 fd41 	bl	5f7c <__eqdf2>
    44fa:	4240      	negs	r0, r0
    44fc:	3001      	adds	r0, #1
    44fe:	bd10      	pop	{r4, pc}

00004500 <__aeabi_dcmplt>:
    4500:	b510      	push	{r4, lr}
    4502:	f001 fdef 	bl	60e4 <__ledf2>
    4506:	2800      	cmp	r0, #0
    4508:	db01      	blt.n	450e <__aeabi_dcmplt+0xe>
    450a:	2000      	movs	r0, #0
    450c:	bd10      	pop	{r4, pc}
    450e:	2001      	movs	r0, #1
    4510:	bd10      	pop	{r4, pc}
    4512:	46c0      	nop			; (mov r8, r8)

00004514 <__aeabi_dcmple>:
    4514:	b510      	push	{r4, lr}
    4516:	f001 fde5 	bl	60e4 <__ledf2>
    451a:	2800      	cmp	r0, #0
    451c:	dd01      	ble.n	4522 <__aeabi_dcmple+0xe>
    451e:	2000      	movs	r0, #0
    4520:	bd10      	pop	{r4, pc}
    4522:	2001      	movs	r0, #1
    4524:	bd10      	pop	{r4, pc}
    4526:	46c0      	nop			; (mov r8, r8)

00004528 <__aeabi_dcmpgt>:
    4528:	b510      	push	{r4, lr}
    452a:	f001 fd6b 	bl	6004 <__gedf2>
    452e:	2800      	cmp	r0, #0
    4530:	dc01      	bgt.n	4536 <__aeabi_dcmpgt+0xe>
    4532:	2000      	movs	r0, #0
    4534:	bd10      	pop	{r4, pc}
    4536:	2001      	movs	r0, #1
    4538:	bd10      	pop	{r4, pc}
    453a:	46c0      	nop			; (mov r8, r8)

0000453c <__aeabi_dcmpge>:
    453c:	b510      	push	{r4, lr}
    453e:	f001 fd61 	bl	6004 <__gedf2>
    4542:	2800      	cmp	r0, #0
    4544:	da01      	bge.n	454a <__aeabi_dcmpge+0xe>
    4546:	2000      	movs	r0, #0
    4548:	bd10      	pop	{r4, pc}
    454a:	2001      	movs	r0, #1
    454c:	bd10      	pop	{r4, pc}
    454e:	46c0      	nop			; (mov r8, r8)

00004550 <__aeabi_uldivmod>:
    4550:	2b00      	cmp	r3, #0
    4552:	d111      	bne.n	4578 <__aeabi_uldivmod+0x28>
    4554:	2a00      	cmp	r2, #0
    4556:	d10f      	bne.n	4578 <__aeabi_uldivmod+0x28>
    4558:	2900      	cmp	r1, #0
    455a:	d100      	bne.n	455e <__aeabi_uldivmod+0xe>
    455c:	2800      	cmp	r0, #0
    455e:	d002      	beq.n	4566 <__aeabi_uldivmod+0x16>
    4560:	2100      	movs	r1, #0
    4562:	43c9      	mvns	r1, r1
    4564:	1c08      	adds	r0, r1, #0
    4566:	b407      	push	{r0, r1, r2}
    4568:	4802      	ldr	r0, [pc, #8]	; (4574 <__aeabi_uldivmod+0x24>)
    456a:	a102      	add	r1, pc, #8	; (adr r1, 4574 <__aeabi_uldivmod+0x24>)
    456c:	1840      	adds	r0, r0, r1
    456e:	9002      	str	r0, [sp, #8]
    4570:	bd03      	pop	{r0, r1, pc}
    4572:	46c0      	nop			; (mov r8, r8)
    4574:	ffffff5d 	.word	0xffffff5d
    4578:	b403      	push	{r0, r1}
    457a:	4668      	mov	r0, sp
    457c:	b501      	push	{r0, lr}
    457e:	9802      	ldr	r0, [sp, #8]
    4580:	f000 f882 	bl	4688 <__gnu_uldivmod_helper>
    4584:	9b01      	ldr	r3, [sp, #4]
    4586:	469e      	mov	lr, r3
    4588:	b002      	add	sp, #8
    458a:	bc0c      	pop	{r2, r3}
    458c:	4770      	bx	lr
    458e:	46c0      	nop			; (mov r8, r8)

00004590 <__aeabi_lmul>:
    4590:	b5f0      	push	{r4, r5, r6, r7, lr}
    4592:	464f      	mov	r7, r9
    4594:	4646      	mov	r6, r8
    4596:	0405      	lsls	r5, r0, #16
    4598:	0c2d      	lsrs	r5, r5, #16
    459a:	1c2c      	adds	r4, r5, #0
    459c:	b4c0      	push	{r6, r7}
    459e:	0417      	lsls	r7, r2, #16
    45a0:	0c16      	lsrs	r6, r2, #16
    45a2:	0c3f      	lsrs	r7, r7, #16
    45a4:	4699      	mov	r9, r3
    45a6:	0c03      	lsrs	r3, r0, #16
    45a8:	437c      	muls	r4, r7
    45aa:	4375      	muls	r5, r6
    45ac:	435f      	muls	r7, r3
    45ae:	4373      	muls	r3, r6
    45b0:	197d      	adds	r5, r7, r5
    45b2:	0c26      	lsrs	r6, r4, #16
    45b4:	19ad      	adds	r5, r5, r6
    45b6:	469c      	mov	ip, r3
    45b8:	42af      	cmp	r7, r5
    45ba:	d903      	bls.n	45c4 <__aeabi_lmul+0x34>
    45bc:	2380      	movs	r3, #128	; 0x80
    45be:	025b      	lsls	r3, r3, #9
    45c0:	4698      	mov	r8, r3
    45c2:	44c4      	add	ip, r8
    45c4:	464b      	mov	r3, r9
    45c6:	4351      	muls	r1, r2
    45c8:	4343      	muls	r3, r0
    45ca:	0424      	lsls	r4, r4, #16
    45cc:	0c2e      	lsrs	r6, r5, #16
    45ce:	0c24      	lsrs	r4, r4, #16
    45d0:	042d      	lsls	r5, r5, #16
    45d2:	4466      	add	r6, ip
    45d4:	192c      	adds	r4, r5, r4
    45d6:	1859      	adds	r1, r3, r1
    45d8:	1989      	adds	r1, r1, r6
    45da:	1c20      	adds	r0, r4, #0
    45dc:	bc0c      	pop	{r2, r3}
    45de:	4690      	mov	r8, r2
    45e0:	4699      	mov	r9, r3
    45e2:	bdf0      	pop	{r4, r5, r6, r7, pc}

000045e4 <__aeabi_f2uiz>:
    45e4:	219e      	movs	r1, #158	; 0x9e
    45e6:	b510      	push	{r4, lr}
    45e8:	05c9      	lsls	r1, r1, #23
    45ea:	1c04      	adds	r4, r0, #0
    45ec:	f002 fd58 	bl	70a0 <__aeabi_fcmpge>
    45f0:	2800      	cmp	r0, #0
    45f2:	d103      	bne.n	45fc <__aeabi_f2uiz+0x18>
    45f4:	1c20      	adds	r0, r4, #0
    45f6:	f000 fdc5 	bl	5184 <__aeabi_f2iz>
    45fa:	bd10      	pop	{r4, pc}
    45fc:	219e      	movs	r1, #158	; 0x9e
    45fe:	1c20      	adds	r0, r4, #0
    4600:	05c9      	lsls	r1, r1, #23
    4602:	f000 fc41 	bl	4e88 <__aeabi_fsub>
    4606:	f000 fdbd 	bl	5184 <__aeabi_f2iz>
    460a:	2380      	movs	r3, #128	; 0x80
    460c:	061b      	lsls	r3, r3, #24
    460e:	469c      	mov	ip, r3
    4610:	4460      	add	r0, ip
    4612:	e7f2      	b.n	45fa <__aeabi_f2uiz+0x16>

00004614 <__aeabi_d2uiz>:
    4614:	b538      	push	{r3, r4, r5, lr}
    4616:	2200      	movs	r2, #0
    4618:	4b0c      	ldr	r3, [pc, #48]	; (464c <__aeabi_d2uiz+0x38>)
    461a:	1c04      	adds	r4, r0, #0
    461c:	1c0d      	adds	r5, r1, #0
    461e:	f7ff ff8d 	bl	453c <__aeabi_dcmpge>
    4622:	2800      	cmp	r0, #0
    4624:	d104      	bne.n	4630 <__aeabi_d2uiz+0x1c>
    4626:	1c20      	adds	r0, r4, #0
    4628:	1c29      	adds	r1, r5, #0
    462a:	f002 fbd5 	bl	6dd8 <__aeabi_d2iz>
    462e:	bd38      	pop	{r3, r4, r5, pc}
    4630:	4b06      	ldr	r3, [pc, #24]	; (464c <__aeabi_d2uiz+0x38>)
    4632:	2200      	movs	r2, #0
    4634:	1c20      	adds	r0, r4, #0
    4636:	1c29      	adds	r1, r5, #0
    4638:	f002 f854 	bl	66e4 <__aeabi_dsub>
    463c:	f002 fbcc 	bl	6dd8 <__aeabi_d2iz>
    4640:	2380      	movs	r3, #128	; 0x80
    4642:	061b      	lsls	r3, r3, #24
    4644:	469c      	mov	ip, r3
    4646:	4460      	add	r0, ip
    4648:	e7f1      	b.n	462e <__aeabi_d2uiz+0x1a>
    464a:	46c0      	nop			; (mov r8, r8)
    464c:	41e00000 	.word	0x41e00000

00004650 <__gnu_ldivmod_helper>:
    4650:	b5f0      	push	{r4, r5, r6, r7, lr}
    4652:	b083      	sub	sp, #12
    4654:	1c16      	adds	r6, r2, #0
    4656:	1c1f      	adds	r7, r3, #0
    4658:	9000      	str	r0, [sp, #0]
    465a:	9101      	str	r1, [sp, #4]
    465c:	f002 fd48 	bl	70f0 <__divdi3>
    4660:	1c04      	adds	r4, r0, #0
    4662:	1c0d      	adds	r5, r1, #0
    4664:	1c22      	adds	r2, r4, #0
    4666:	1c2b      	adds	r3, r5, #0
    4668:	1c30      	adds	r0, r6, #0
    466a:	1c39      	adds	r1, r7, #0
    466c:	f7ff ff90 	bl	4590 <__aeabi_lmul>
    4670:	9a00      	ldr	r2, [sp, #0]
    4672:	9b01      	ldr	r3, [sp, #4]
    4674:	1a12      	subs	r2, r2, r0
    4676:	418b      	sbcs	r3, r1
    4678:	9908      	ldr	r1, [sp, #32]
    467a:	1c20      	adds	r0, r4, #0
    467c:	600a      	str	r2, [r1, #0]
    467e:	604b      	str	r3, [r1, #4]
    4680:	1c29      	adds	r1, r5, #0
    4682:	b003      	add	sp, #12
    4684:	bdf0      	pop	{r4, r5, r6, r7, pc}
    4686:	46c0      	nop			; (mov r8, r8)

00004688 <__gnu_uldivmod_helper>:
    4688:	b5f0      	push	{r4, r5, r6, r7, lr}
    468a:	1c14      	adds	r4, r2, #0
    468c:	b083      	sub	sp, #12
    468e:	1c1d      	adds	r5, r3, #0
    4690:	9000      	str	r0, [sp, #0]
    4692:	9101      	str	r1, [sp, #4]
    4694:	f002 fe24 	bl	72e0 <__udivdi3>
    4698:	1c22      	adds	r2, r4, #0
    469a:	1c2b      	adds	r3, r5, #0
    469c:	1c06      	adds	r6, r0, #0
    469e:	1c0f      	adds	r7, r1, #0
    46a0:	f7ff ff76 	bl	4590 <__aeabi_lmul>
    46a4:	9a00      	ldr	r2, [sp, #0]
    46a6:	9b01      	ldr	r3, [sp, #4]
    46a8:	1a12      	subs	r2, r2, r0
    46aa:	418b      	sbcs	r3, r1
    46ac:	9908      	ldr	r1, [sp, #32]
    46ae:	1c30      	adds	r0, r6, #0
    46b0:	600a      	str	r2, [r1, #0]
    46b2:	604b      	str	r3, [r1, #4]
    46b4:	1c39      	adds	r1, r7, #0
    46b6:	b003      	add	sp, #12
    46b8:	bdf0      	pop	{r4, r5, r6, r7, pc}
    46ba:	46c0      	nop			; (mov r8, r8)

000046bc <__aeabi_fadd>:
    46bc:	b5f8      	push	{r3, r4, r5, r6, r7, lr}
    46be:	004a      	lsls	r2, r1, #1
    46c0:	0243      	lsls	r3, r0, #9
    46c2:	0044      	lsls	r4, r0, #1
    46c4:	024e      	lsls	r6, r1, #9
    46c6:	0fc5      	lsrs	r5, r0, #31
    46c8:	0e24      	lsrs	r4, r4, #24
    46ca:	1c28      	adds	r0, r5, #0
    46cc:	099b      	lsrs	r3, r3, #6
    46ce:	0e12      	lsrs	r2, r2, #24
    46d0:	0fc9      	lsrs	r1, r1, #31
    46d2:	09b7      	lsrs	r7, r6, #6
    46d4:	428d      	cmp	r5, r1
    46d6:	d040      	beq.n	475a <__aeabi_fadd+0x9e>
    46d8:	1aa0      	subs	r0, r4, r2
    46da:	2800      	cmp	r0, #0
    46dc:	dc00      	bgt.n	46e0 <__aeabi_fadd+0x24>
    46de:	e084      	b.n	47ea <__aeabi_fadd+0x12e>
    46e0:	2a00      	cmp	r2, #0
    46e2:	d11c      	bne.n	471e <__aeabi_fadd+0x62>
    46e4:	2f00      	cmp	r7, #0
    46e6:	d15c      	bne.n	47a2 <__aeabi_fadd+0xe6>
    46e8:	075a      	lsls	r2, r3, #29
    46ea:	d004      	beq.n	46f6 <__aeabi_fadd+0x3a>
    46ec:	220f      	movs	r2, #15
    46ee:	401a      	ands	r2, r3
    46f0:	2a04      	cmp	r2, #4
    46f2:	d000      	beq.n	46f6 <__aeabi_fadd+0x3a>
    46f4:	3304      	adds	r3, #4
    46f6:	2280      	movs	r2, #128	; 0x80
    46f8:	04d2      	lsls	r2, r2, #19
    46fa:	401a      	ands	r2, r3
    46fc:	1c28      	adds	r0, r5, #0
    46fe:	2a00      	cmp	r2, #0
    4700:	d024      	beq.n	474c <__aeabi_fadd+0x90>
    4702:	3401      	adds	r4, #1
    4704:	2cff      	cmp	r4, #255	; 0xff
    4706:	d100      	bne.n	470a <__aeabi_fadd+0x4e>
    4708:	e07b      	b.n	4802 <__aeabi_fadd+0x146>
    470a:	019b      	lsls	r3, r3, #6
    470c:	0a5b      	lsrs	r3, r3, #9
    470e:	b2e4      	uxtb	r4, r4
    4710:	025b      	lsls	r3, r3, #9
    4712:	05e4      	lsls	r4, r4, #23
    4714:	0a5b      	lsrs	r3, r3, #9
    4716:	4323      	orrs	r3, r4
    4718:	07c0      	lsls	r0, r0, #31
    471a:	4318      	orrs	r0, r3
    471c:	bdf8      	pop	{r3, r4, r5, r6, r7, pc}
    471e:	2cff      	cmp	r4, #255	; 0xff
    4720:	d0e2      	beq.n	46e8 <__aeabi_fadd+0x2c>
    4722:	2280      	movs	r2, #128	; 0x80
    4724:	04d2      	lsls	r2, r2, #19
    4726:	4317      	orrs	r7, r2
    4728:	2601      	movs	r6, #1
    472a:	281b      	cmp	r0, #27
    472c:	dc08      	bgt.n	4740 <__aeabi_fadd+0x84>
    472e:	1c39      	adds	r1, r7, #0
    4730:	2220      	movs	r2, #32
    4732:	1c3e      	adds	r6, r7, #0
    4734:	40c1      	lsrs	r1, r0
    4736:	1a10      	subs	r0, r2, r0
    4738:	4086      	lsls	r6, r0
    473a:	1e77      	subs	r7, r6, #1
    473c:	41be      	sbcs	r6, r7
    473e:	430e      	orrs	r6, r1
    4740:	1b9b      	subs	r3, r3, r6
    4742:	015a      	lsls	r2, r3, #5
    4744:	d433      	bmi.n	47ae <__aeabi_fadd+0xf2>
    4746:	1c28      	adds	r0, r5, #0
    4748:	075a      	lsls	r2, r3, #29
    474a:	d1cf      	bne.n	46ec <__aeabi_fadd+0x30>
    474c:	08db      	lsrs	r3, r3, #3
    474e:	2cff      	cmp	r4, #255	; 0xff
    4750:	d01e      	beq.n	4790 <__aeabi_fadd+0xd4>
    4752:	025b      	lsls	r3, r3, #9
    4754:	0a5b      	lsrs	r3, r3, #9
    4756:	b2e4      	uxtb	r4, r4
    4758:	e7da      	b.n	4710 <__aeabi_fadd+0x54>
    475a:	1aa1      	subs	r1, r4, r2
    475c:	2900      	cmp	r1, #0
    475e:	dd57      	ble.n	4810 <__aeabi_fadd+0x154>
    4760:	2a00      	cmp	r2, #0
    4762:	d03a      	beq.n	47da <__aeabi_fadd+0x11e>
    4764:	2cff      	cmp	r4, #255	; 0xff
    4766:	d0bf      	beq.n	46e8 <__aeabi_fadd+0x2c>
    4768:	2280      	movs	r2, #128	; 0x80
    476a:	04d2      	lsls	r2, r2, #19
    476c:	4317      	orrs	r7, r2
    476e:	2601      	movs	r6, #1
    4770:	291b      	cmp	r1, #27
    4772:	dd72      	ble.n	485a <__aeabi_fadd+0x19e>
    4774:	199b      	adds	r3, r3, r6
    4776:	015a      	lsls	r2, r3, #5
    4778:	d5e5      	bpl.n	4746 <__aeabi_fadd+0x8a>
    477a:	3401      	adds	r4, #1
    477c:	2cff      	cmp	r4, #255	; 0xff
    477e:	d100      	bne.n	4782 <__aeabi_fadd+0xc6>
    4780:	e087      	b.n	4892 <__aeabi_fadd+0x1d6>
    4782:	2101      	movs	r1, #1
    4784:	4a8a      	ldr	r2, [pc, #552]	; (49b0 <__aeabi_fadd+0x2f4>)
    4786:	4019      	ands	r1, r3
    4788:	4013      	ands	r3, r2
    478a:	085b      	lsrs	r3, r3, #1
    478c:	430b      	orrs	r3, r1
    478e:	e7ab      	b.n	46e8 <__aeabi_fadd+0x2c>
    4790:	2b00      	cmp	r3, #0
    4792:	d036      	beq.n	4802 <__aeabi_fadd+0x146>
    4794:	2280      	movs	r2, #128	; 0x80
    4796:	03d2      	lsls	r2, r2, #15
    4798:	4313      	orrs	r3, r2
    479a:	025b      	lsls	r3, r3, #9
    479c:	0a5b      	lsrs	r3, r3, #9
    479e:	24ff      	movs	r4, #255	; 0xff
    47a0:	e7b6      	b.n	4710 <__aeabi_fadd+0x54>
    47a2:	3801      	subs	r0, #1
    47a4:	2800      	cmp	r0, #0
    47a6:	d13f      	bne.n	4828 <__aeabi_fadd+0x16c>
    47a8:	1bdb      	subs	r3, r3, r7
    47aa:	015a      	lsls	r2, r3, #5
    47ac:	d5cb      	bpl.n	4746 <__aeabi_fadd+0x8a>
    47ae:	019b      	lsls	r3, r3, #6
    47b0:	099e      	lsrs	r6, r3, #6
    47b2:	1c30      	adds	r0, r6, #0
    47b4:	f002 fc7e 	bl	70b4 <__clzsi2>
    47b8:	3805      	subs	r0, #5
    47ba:	4086      	lsls	r6, r0
    47bc:	4284      	cmp	r4, r0
    47be:	dc23      	bgt.n	4808 <__aeabi_fadd+0x14c>
    47c0:	1b00      	subs	r0, r0, r4
    47c2:	241f      	movs	r4, #31
    47c4:	1c32      	adds	r2, r6, #0
    47c6:	1c43      	adds	r3, r0, #1
    47c8:	1a20      	subs	r0, r4, r0
    47ca:	40da      	lsrs	r2, r3
    47cc:	4086      	lsls	r6, r0
    47ce:	1c13      	adds	r3, r2, #0
    47d0:	1e74      	subs	r4, r6, #1
    47d2:	41a6      	sbcs	r6, r4
    47d4:	2400      	movs	r4, #0
    47d6:	4333      	orrs	r3, r6
    47d8:	e786      	b.n	46e8 <__aeabi_fadd+0x2c>
    47da:	2f00      	cmp	r7, #0
    47dc:	d100      	bne.n	47e0 <__aeabi_fadd+0x124>
    47de:	e783      	b.n	46e8 <__aeabi_fadd+0x2c>
    47e0:	3901      	subs	r1, #1
    47e2:	2900      	cmp	r1, #0
    47e4:	d150      	bne.n	4888 <__aeabi_fadd+0x1cc>
    47e6:	19db      	adds	r3, r3, r7
    47e8:	e7c5      	b.n	4776 <__aeabi_fadd+0xba>
    47ea:	2800      	cmp	r0, #0
    47ec:	d120      	bne.n	4830 <__aeabi_fadd+0x174>
    47ee:	1c62      	adds	r2, r4, #1
    47f0:	b2d2      	uxtb	r2, r2
    47f2:	2a01      	cmp	r2, #1
    47f4:	dd5e      	ble.n	48b4 <__aeabi_fadd+0x1f8>
    47f6:	1bde      	subs	r6, r3, r7
    47f8:	0172      	lsls	r2, r6, #5
    47fa:	d528      	bpl.n	484e <__aeabi_fadd+0x192>
    47fc:	1afe      	subs	r6, r7, r3
    47fe:	1c0d      	adds	r5, r1, #0
    4800:	e7d7      	b.n	47b2 <__aeabi_fadd+0xf6>
    4802:	24ff      	movs	r4, #255	; 0xff
    4804:	2300      	movs	r3, #0
    4806:	e783      	b.n	4710 <__aeabi_fadd+0x54>
    4808:	4b69      	ldr	r3, [pc, #420]	; (49b0 <__aeabi_fadd+0x2f4>)
    480a:	1a24      	subs	r4, r4, r0
    480c:	4033      	ands	r3, r6
    480e:	e76b      	b.n	46e8 <__aeabi_fadd+0x2c>
    4810:	2900      	cmp	r1, #0
    4812:	d158      	bne.n	48c6 <__aeabi_fadd+0x20a>
    4814:	1c62      	adds	r2, r4, #1
    4816:	b2d1      	uxtb	r1, r2
    4818:	2901      	cmp	r1, #1
    481a:	dd3c      	ble.n	4896 <__aeabi_fadd+0x1da>
    481c:	2aff      	cmp	r2, #255	; 0xff
    481e:	d037      	beq.n	4890 <__aeabi_fadd+0x1d4>
    4820:	18fb      	adds	r3, r7, r3
    4822:	085b      	lsrs	r3, r3, #1
    4824:	1c14      	adds	r4, r2, #0
    4826:	e75f      	b.n	46e8 <__aeabi_fadd+0x2c>
    4828:	2cff      	cmp	r4, #255	; 0xff
    482a:	d000      	beq.n	482e <__aeabi_fadd+0x172>
    482c:	e77c      	b.n	4728 <__aeabi_fadd+0x6c>
    482e:	e75b      	b.n	46e8 <__aeabi_fadd+0x2c>
    4830:	2c00      	cmp	r4, #0
    4832:	d01e      	beq.n	4872 <__aeabi_fadd+0x1b6>
    4834:	2aff      	cmp	r2, #255	; 0xff
    4836:	d023      	beq.n	4880 <__aeabi_fadd+0x1c4>
    4838:	2480      	movs	r4, #128	; 0x80
    483a:	04e4      	lsls	r4, r4, #19
    483c:	4240      	negs	r0, r0
    483e:	4323      	orrs	r3, r4
    4840:	281b      	cmp	r0, #27
    4842:	dd5b      	ble.n	48fc <__aeabi_fadd+0x240>
    4844:	2301      	movs	r3, #1
    4846:	1afb      	subs	r3, r7, r3
    4848:	1c14      	adds	r4, r2, #0
    484a:	1c0d      	adds	r5, r1, #0
    484c:	e7ad      	b.n	47aa <__aeabi_fadd+0xee>
    484e:	2e00      	cmp	r6, #0
    4850:	d1af      	bne.n	47b2 <__aeabi_fadd+0xf6>
    4852:	2300      	movs	r3, #0
    4854:	2000      	movs	r0, #0
    4856:	2400      	movs	r4, #0
    4858:	e778      	b.n	474c <__aeabi_fadd+0x90>
    485a:	1c3a      	adds	r2, r7, #0
    485c:	40ca      	lsrs	r2, r1
    485e:	4694      	mov	ip, r2
    4860:	2220      	movs	r2, #32
    4862:	1c3e      	adds	r6, r7, #0
    4864:	1a51      	subs	r1, r2, r1
    4866:	408e      	lsls	r6, r1
    4868:	4662      	mov	r2, ip
    486a:	1e77      	subs	r7, r6, #1
    486c:	41be      	sbcs	r6, r7
    486e:	4316      	orrs	r6, r2
    4870:	e780      	b.n	4774 <__aeabi_fadd+0xb8>
    4872:	2b00      	cmp	r3, #0
    4874:	d03e      	beq.n	48f4 <__aeabi_fadd+0x238>
    4876:	43c0      	mvns	r0, r0
    4878:	2800      	cmp	r0, #0
    487a:	d0e4      	beq.n	4846 <__aeabi_fadd+0x18a>
    487c:	2aff      	cmp	r2, #255	; 0xff
    487e:	d1df      	bne.n	4840 <__aeabi_fadd+0x184>
    4880:	1c3b      	adds	r3, r7, #0
    4882:	24ff      	movs	r4, #255	; 0xff
    4884:	1c0d      	adds	r5, r1, #0
    4886:	e72f      	b.n	46e8 <__aeabi_fadd+0x2c>
    4888:	2cff      	cmp	r4, #255	; 0xff
    488a:	d000      	beq.n	488e <__aeabi_fadd+0x1d2>
    488c:	e76f      	b.n	476e <__aeabi_fadd+0xb2>
    488e:	e72b      	b.n	46e8 <__aeabi_fadd+0x2c>
    4890:	24ff      	movs	r4, #255	; 0xff
    4892:	2300      	movs	r3, #0
    4894:	e75a      	b.n	474c <__aeabi_fadd+0x90>
    4896:	2c00      	cmp	r4, #0
    4898:	d15a      	bne.n	4950 <__aeabi_fadd+0x294>
    489a:	2b00      	cmp	r3, #0
    489c:	d07f      	beq.n	499e <__aeabi_fadd+0x2e2>
    489e:	2f00      	cmp	r7, #0
    48a0:	d100      	bne.n	48a4 <__aeabi_fadd+0x1e8>
    48a2:	e721      	b.n	46e8 <__aeabi_fadd+0x2c>
    48a4:	19db      	adds	r3, r3, r7
    48a6:	015a      	lsls	r2, r3, #5
    48a8:	d400      	bmi.n	48ac <__aeabi_fadd+0x1f0>
    48aa:	e74c      	b.n	4746 <__aeabi_fadd+0x8a>
    48ac:	4a40      	ldr	r2, [pc, #256]	; (49b0 <__aeabi_fadd+0x2f4>)
    48ae:	3401      	adds	r4, #1
    48b0:	4013      	ands	r3, r2
    48b2:	e719      	b.n	46e8 <__aeabi_fadd+0x2c>
    48b4:	2c00      	cmp	r4, #0
    48b6:	d115      	bne.n	48e4 <__aeabi_fadd+0x228>
    48b8:	2b00      	cmp	r3, #0
    48ba:	d12f      	bne.n	491c <__aeabi_fadd+0x260>
    48bc:	2f00      	cmp	r7, #0
    48be:	d05d      	beq.n	497c <__aeabi_fadd+0x2c0>
    48c0:	1c3b      	adds	r3, r7, #0
    48c2:	1c0d      	adds	r5, r1, #0
    48c4:	e710      	b.n	46e8 <__aeabi_fadd+0x2c>
    48c6:	2c00      	cmp	r4, #0
    48c8:	d121      	bne.n	490e <__aeabi_fadd+0x252>
    48ca:	2b00      	cmp	r3, #0
    48cc:	d053      	beq.n	4976 <__aeabi_fadd+0x2ba>
    48ce:	43c9      	mvns	r1, r1
    48d0:	2900      	cmp	r1, #0
    48d2:	d004      	beq.n	48de <__aeabi_fadd+0x222>
    48d4:	2aff      	cmp	r2, #255	; 0xff
    48d6:	d04b      	beq.n	4970 <__aeabi_fadd+0x2b4>
    48d8:	291b      	cmp	r1, #27
    48da:	dd57      	ble.n	498c <__aeabi_fadd+0x2d0>
    48dc:	2301      	movs	r3, #1
    48de:	19db      	adds	r3, r3, r7
    48e0:	1c14      	adds	r4, r2, #0
    48e2:	e748      	b.n	4776 <__aeabi_fadd+0xba>
    48e4:	2b00      	cmp	r3, #0
    48e6:	d122      	bne.n	492e <__aeabi_fadd+0x272>
    48e8:	2f00      	cmp	r7, #0
    48ea:	d04a      	beq.n	4982 <__aeabi_fadd+0x2c6>
    48ec:	1c3b      	adds	r3, r7, #0
    48ee:	1c0d      	adds	r5, r1, #0
    48f0:	24ff      	movs	r4, #255	; 0xff
    48f2:	e6f9      	b.n	46e8 <__aeabi_fadd+0x2c>
    48f4:	1c3b      	adds	r3, r7, #0
    48f6:	1c14      	adds	r4, r2, #0
    48f8:	1c0d      	adds	r5, r1, #0
    48fa:	e6f5      	b.n	46e8 <__aeabi_fadd+0x2c>
    48fc:	1c1d      	adds	r5, r3, #0
    48fe:	2420      	movs	r4, #32
    4900:	40c5      	lsrs	r5, r0
    4902:	1a20      	subs	r0, r4, r0
    4904:	4083      	lsls	r3, r0
    4906:	1e58      	subs	r0, r3, #1
    4908:	4183      	sbcs	r3, r0
    490a:	432b      	orrs	r3, r5
    490c:	e79b      	b.n	4846 <__aeabi_fadd+0x18a>
    490e:	2aff      	cmp	r2, #255	; 0xff
    4910:	d02e      	beq.n	4970 <__aeabi_fadd+0x2b4>
    4912:	2480      	movs	r4, #128	; 0x80
    4914:	04e4      	lsls	r4, r4, #19
    4916:	4249      	negs	r1, r1
    4918:	4323      	orrs	r3, r4
    491a:	e7dd      	b.n	48d8 <__aeabi_fadd+0x21c>
    491c:	2f00      	cmp	r7, #0
    491e:	d100      	bne.n	4922 <__aeabi_fadd+0x266>
    4920:	e6e2      	b.n	46e8 <__aeabi_fadd+0x2c>
    4922:	1bda      	subs	r2, r3, r7
    4924:	0150      	lsls	r0, r2, #5
    4926:	d53c      	bpl.n	49a2 <__aeabi_fadd+0x2e6>
    4928:	1afb      	subs	r3, r7, r3
    492a:	1c0d      	adds	r5, r1, #0
    492c:	e6dc      	b.n	46e8 <__aeabi_fadd+0x2c>
    492e:	24ff      	movs	r4, #255	; 0xff
    4930:	2f00      	cmp	r7, #0
    4932:	d100      	bne.n	4936 <__aeabi_fadd+0x27a>
    4934:	e6d8      	b.n	46e8 <__aeabi_fadd+0x2c>
    4936:	2280      	movs	r2, #128	; 0x80
    4938:	08db      	lsrs	r3, r3, #3
    493a:	03d2      	lsls	r2, r2, #15
    493c:	4213      	tst	r3, r2
    493e:	d004      	beq.n	494a <__aeabi_fadd+0x28e>
    4940:	08fe      	lsrs	r6, r7, #3
    4942:	4216      	tst	r6, r2
    4944:	d101      	bne.n	494a <__aeabi_fadd+0x28e>
    4946:	1c33      	adds	r3, r6, #0
    4948:	1c0d      	adds	r5, r1, #0
    494a:	00db      	lsls	r3, r3, #3
    494c:	24ff      	movs	r4, #255	; 0xff
    494e:	e6cb      	b.n	46e8 <__aeabi_fadd+0x2c>
    4950:	2b00      	cmp	r3, #0
    4952:	d00d      	beq.n	4970 <__aeabi_fadd+0x2b4>
    4954:	24ff      	movs	r4, #255	; 0xff
    4956:	2f00      	cmp	r7, #0
    4958:	d100      	bne.n	495c <__aeabi_fadd+0x2a0>
    495a:	e6c5      	b.n	46e8 <__aeabi_fadd+0x2c>
    495c:	2280      	movs	r2, #128	; 0x80
    495e:	08db      	lsrs	r3, r3, #3
    4960:	03d2      	lsls	r2, r2, #15
    4962:	4213      	tst	r3, r2
    4964:	d0f1      	beq.n	494a <__aeabi_fadd+0x28e>
    4966:	08fe      	lsrs	r6, r7, #3
    4968:	4216      	tst	r6, r2
    496a:	d1ee      	bne.n	494a <__aeabi_fadd+0x28e>
    496c:	1c33      	adds	r3, r6, #0
    496e:	e7ec      	b.n	494a <__aeabi_fadd+0x28e>
    4970:	1c3b      	adds	r3, r7, #0
    4972:	24ff      	movs	r4, #255	; 0xff
    4974:	e6b8      	b.n	46e8 <__aeabi_fadd+0x2c>
    4976:	1c3b      	adds	r3, r7, #0
    4978:	1c14      	adds	r4, r2, #0
    497a:	e6b5      	b.n	46e8 <__aeabi_fadd+0x2c>
    497c:	1c23      	adds	r3, r4, #0
    497e:	2000      	movs	r0, #0
    4980:	e6e4      	b.n	474c <__aeabi_fadd+0x90>
    4982:	2380      	movs	r3, #128	; 0x80
    4984:	2000      	movs	r0, #0
    4986:	049b      	lsls	r3, r3, #18
    4988:	24ff      	movs	r4, #255	; 0xff
    498a:	e6df      	b.n	474c <__aeabi_fadd+0x90>
    498c:	1c1e      	adds	r6, r3, #0
    498e:	2420      	movs	r4, #32
    4990:	40ce      	lsrs	r6, r1
    4992:	1a61      	subs	r1, r4, r1
    4994:	408b      	lsls	r3, r1
    4996:	1e59      	subs	r1, r3, #1
    4998:	418b      	sbcs	r3, r1
    499a:	4333      	orrs	r3, r6
    499c:	e79f      	b.n	48de <__aeabi_fadd+0x222>
    499e:	1c3b      	adds	r3, r7, #0
    49a0:	e6a2      	b.n	46e8 <__aeabi_fadd+0x2c>
    49a2:	1e13      	subs	r3, r2, #0
    49a4:	d000      	beq.n	49a8 <__aeabi_fadd+0x2ec>
    49a6:	e6ce      	b.n	4746 <__aeabi_fadd+0x8a>
    49a8:	2300      	movs	r3, #0
    49aa:	2000      	movs	r0, #0
    49ac:	e6ce      	b.n	474c <__aeabi_fadd+0x90>
    49ae:	46c0      	nop			; (mov r8, r8)
    49b0:	fbffffff 	.word	0xfbffffff

000049b4 <__aeabi_fdiv>:
    49b4:	b5f0      	push	{r4, r5, r6, r7, lr}
    49b6:	4656      	mov	r6, sl
    49b8:	464d      	mov	r5, r9
    49ba:	465f      	mov	r7, fp
    49bc:	4644      	mov	r4, r8
    49be:	b4f0      	push	{r4, r5, r6, r7}
    49c0:	0243      	lsls	r3, r0, #9
    49c2:	0045      	lsls	r5, r0, #1
    49c4:	0fc7      	lsrs	r7, r0, #31
    49c6:	b083      	sub	sp, #12
    49c8:	468a      	mov	sl, r1
    49ca:	0a5c      	lsrs	r4, r3, #9
    49cc:	0e2e      	lsrs	r6, r5, #24
    49ce:	46b9      	mov	r9, r7
    49d0:	d041      	beq.n	4a56 <__aeabi_fdiv+0xa2>
    49d2:	2eff      	cmp	r6, #255	; 0xff
    49d4:	d026      	beq.n	4a24 <__aeabi_fdiv+0x70>
    49d6:	2380      	movs	r3, #128	; 0x80
    49d8:	041b      	lsls	r3, r3, #16
    49da:	4323      	orrs	r3, r4
    49dc:	00dc      	lsls	r4, r3, #3
    49de:	2300      	movs	r3, #0
    49e0:	4698      	mov	r8, r3
    49e2:	469b      	mov	fp, r3
    49e4:	3e7f      	subs	r6, #127	; 0x7f
    49e6:	4653      	mov	r3, sl
    49e8:	025b      	lsls	r3, r3, #9
    49ea:	0a5d      	lsrs	r5, r3, #9
    49ec:	4653      	mov	r3, sl
    49ee:	005a      	lsls	r2, r3, #1
    49f0:	0fdb      	lsrs	r3, r3, #31
    49f2:	0e12      	lsrs	r2, r2, #24
    49f4:	469a      	mov	sl, r3
    49f6:	d039      	beq.n	4a6c <__aeabi_fdiv+0xb8>
    49f8:	2aff      	cmp	r2, #255	; 0xff
    49fa:	d033      	beq.n	4a64 <__aeabi_fdiv+0xb0>
    49fc:	2380      	movs	r3, #128	; 0x80
    49fe:	041b      	lsls	r3, r3, #16
    4a00:	432b      	orrs	r3, r5
    4a02:	00dd      	lsls	r5, r3, #3
    4a04:	2300      	movs	r3, #0
    4a06:	3a7f      	subs	r2, #127	; 0x7f
    4a08:	4651      	mov	r1, sl
    4a0a:	1ab2      	subs	r2, r6, r2
    4a0c:	4646      	mov	r6, r8
    4a0e:	4079      	eors	r1, r7
    4a10:	1c08      	adds	r0, r1, #0
    4a12:	9201      	str	r2, [sp, #4]
    4a14:	431e      	orrs	r6, r3
    4a16:	2e0f      	cmp	r6, #15
    4a18:	d900      	bls.n	4a1c <__aeabi_fdiv+0x68>
    4a1a:	e076      	b.n	4b0a <__aeabi_fdiv+0x156>
    4a1c:	4a7e      	ldr	r2, [pc, #504]	; (4c18 <__aeabi_fdiv+0x264>)
    4a1e:	00b6      	lsls	r6, r6, #2
    4a20:	5996      	ldr	r6, [r2, r6]
    4a22:	46b7      	mov	pc, r6
    4a24:	2c00      	cmp	r4, #0
    4a26:	d130      	bne.n	4a8a <__aeabi_fdiv+0xd6>
    4a28:	2308      	movs	r3, #8
    4a2a:	4698      	mov	r8, r3
    4a2c:	3b06      	subs	r3, #6
    4a2e:	469b      	mov	fp, r3
    4a30:	e7d9      	b.n	49e6 <__aeabi_fdiv+0x32>
    4a32:	2380      	movs	r3, #128	; 0x80
    4a34:	2100      	movs	r1, #0
    4a36:	03db      	lsls	r3, r3, #15
    4a38:	24ff      	movs	r4, #255	; 0xff
    4a3a:	025b      	lsls	r3, r3, #9
    4a3c:	05e4      	lsls	r4, r4, #23
    4a3e:	0a5b      	lsrs	r3, r3, #9
    4a40:	07c9      	lsls	r1, r1, #31
    4a42:	4323      	orrs	r3, r4
    4a44:	430b      	orrs	r3, r1
    4a46:	1c18      	adds	r0, r3, #0
    4a48:	b003      	add	sp, #12
    4a4a:	bc3c      	pop	{r2, r3, r4, r5}
    4a4c:	4690      	mov	r8, r2
    4a4e:	4699      	mov	r9, r3
    4a50:	46a2      	mov	sl, r4
    4a52:	46ab      	mov	fp, r5
    4a54:	bdf0      	pop	{r4, r5, r6, r7, pc}
    4a56:	2c00      	cmp	r4, #0
    4a58:	d128      	bne.n	4aac <__aeabi_fdiv+0xf8>
    4a5a:	2304      	movs	r3, #4
    4a5c:	4698      	mov	r8, r3
    4a5e:	3b03      	subs	r3, #3
    4a60:	469b      	mov	fp, r3
    4a62:	e7c0      	b.n	49e6 <__aeabi_fdiv+0x32>
    4a64:	2d00      	cmp	r5, #0
    4a66:	d11f      	bne.n	4aa8 <__aeabi_fdiv+0xf4>
    4a68:	2302      	movs	r3, #2
    4a6a:	e002      	b.n	4a72 <__aeabi_fdiv+0xbe>
    4a6c:	2d00      	cmp	r5, #0
    4a6e:	d111      	bne.n	4a94 <__aeabi_fdiv+0xe0>
    4a70:	2301      	movs	r3, #1
    4a72:	1ab2      	subs	r2, r6, r2
    4a74:	4650      	mov	r0, sl
    4a76:	4646      	mov	r6, r8
    4a78:	4078      	eors	r0, r7
    4a7a:	9201      	str	r2, [sp, #4]
    4a7c:	431e      	orrs	r6, r3
    4a7e:	2e0f      	cmp	r6, #15
    4a80:	d827      	bhi.n	4ad2 <__aeabi_fdiv+0x11e>
    4a82:	4966      	ldr	r1, [pc, #408]	; (4c1c <__aeabi_fdiv+0x268>)
    4a84:	00b6      	lsls	r6, r6, #2
    4a86:	5989      	ldr	r1, [r1, r6]
    4a88:	468f      	mov	pc, r1
    4a8a:	230c      	movs	r3, #12
    4a8c:	4698      	mov	r8, r3
    4a8e:	3b09      	subs	r3, #9
    4a90:	469b      	mov	fp, r3
    4a92:	e7a8      	b.n	49e6 <__aeabi_fdiv+0x32>
    4a94:	1c28      	adds	r0, r5, #0
    4a96:	f002 fb0d 	bl	70b4 <__clzsi2>
    4a9a:	2276      	movs	r2, #118	; 0x76
    4a9c:	1f43      	subs	r3, r0, #5
    4a9e:	4252      	negs	r2, r2
    4aa0:	409d      	lsls	r5, r3
    4aa2:	1a12      	subs	r2, r2, r0
    4aa4:	2300      	movs	r3, #0
    4aa6:	e7af      	b.n	4a08 <__aeabi_fdiv+0x54>
    4aa8:	2303      	movs	r3, #3
    4aaa:	e7ad      	b.n	4a08 <__aeabi_fdiv+0x54>
    4aac:	1c20      	adds	r0, r4, #0
    4aae:	f002 fb01 	bl	70b4 <__clzsi2>
    4ab2:	1f43      	subs	r3, r0, #5
    4ab4:	409c      	lsls	r4, r3
    4ab6:	2376      	movs	r3, #118	; 0x76
    4ab8:	425b      	negs	r3, r3
    4aba:	1a1e      	subs	r6, r3, r0
    4abc:	2300      	movs	r3, #0
    4abe:	4698      	mov	r8, r3
    4ac0:	469b      	mov	fp, r3
    4ac2:	e790      	b.n	49e6 <__aeabi_fdiv+0x32>
    4ac4:	2500      	movs	r5, #0
    4ac6:	46d1      	mov	r9, sl
    4ac8:	469b      	mov	fp, r3
    4aca:	465b      	mov	r3, fp
    4acc:	4648      	mov	r0, r9
    4ace:	2b02      	cmp	r3, #2
    4ad0:	d16f      	bne.n	4bb2 <__aeabi_fdiv+0x1fe>
    4ad2:	2101      	movs	r1, #1
    4ad4:	24ff      	movs	r4, #255	; 0xff
    4ad6:	4001      	ands	r1, r0
    4ad8:	2300      	movs	r3, #0
    4ada:	e7ae      	b.n	4a3a <__aeabi_fdiv+0x86>
    4adc:	237e      	movs	r3, #126	; 0x7e
    4ade:	9a01      	ldr	r2, [sp, #4]
    4ae0:	425b      	negs	r3, r3
    4ae2:	1a9b      	subs	r3, r3, r2
    4ae4:	2b1b      	cmp	r3, #27
    4ae6:	dd6d      	ble.n	4bc4 <__aeabi_fdiv+0x210>
    4ae8:	2101      	movs	r1, #1
    4aea:	464b      	mov	r3, r9
    4aec:	4019      	ands	r1, r3
    4aee:	2400      	movs	r4, #0
    4af0:	2300      	movs	r3, #0
    4af2:	e7a2      	b.n	4a3a <__aeabi_fdiv+0x86>
    4af4:	2380      	movs	r3, #128	; 0x80
    4af6:	03db      	lsls	r3, r3, #15
    4af8:	421c      	tst	r4, r3
    4afa:	d149      	bne.n	4b90 <__aeabi_fdiv+0x1dc>
    4afc:	2380      	movs	r3, #128	; 0x80
    4afe:	03db      	lsls	r3, r3, #15
    4b00:	4323      	orrs	r3, r4
    4b02:	025b      	lsls	r3, r3, #9
    4b04:	0a5b      	lsrs	r3, r3, #9
    4b06:	1c39      	adds	r1, r7, #0
    4b08:	e796      	b.n	4a38 <__aeabi_fdiv+0x84>
    4b0a:	0163      	lsls	r3, r4, #5
    4b0c:	016d      	lsls	r5, r5, #5
    4b0e:	42ab      	cmp	r3, r5
    4b10:	d337      	bcc.n	4b82 <__aeabi_fdiv+0x1ce>
    4b12:	4689      	mov	r9, r1
    4b14:	201a      	movs	r0, #26
    4b16:	2101      	movs	r1, #1
    4b18:	1b5b      	subs	r3, r3, r5
    4b1a:	2401      	movs	r4, #1
    4b1c:	1c1e      	adds	r6, r3, #0
    4b1e:	0049      	lsls	r1, r1, #1
    4b20:	005b      	lsls	r3, r3, #1
    4b22:	2e00      	cmp	r6, #0
    4b24:	db01      	blt.n	4b2a <__aeabi_fdiv+0x176>
    4b26:	42ab      	cmp	r3, r5
    4b28:	d301      	bcc.n	4b2e <__aeabi_fdiv+0x17a>
    4b2a:	1b5b      	subs	r3, r3, r5
    4b2c:	4321      	orrs	r1, r4
    4b2e:	3801      	subs	r0, #1
    4b30:	2800      	cmp	r0, #0
    4b32:	d1f3      	bne.n	4b1c <__aeabi_fdiv+0x168>
    4b34:	1e58      	subs	r0, r3, #1
    4b36:	4183      	sbcs	r3, r0
    4b38:	430b      	orrs	r3, r1
    4b3a:	1c1d      	adds	r5, r3, #0
    4b3c:	9c01      	ldr	r4, [sp, #4]
    4b3e:	347f      	adds	r4, #127	; 0x7f
    4b40:	2c00      	cmp	r4, #0
    4b42:	ddcb      	ble.n	4adc <__aeabi_fdiv+0x128>
    4b44:	076b      	lsls	r3, r5, #29
    4b46:	d004      	beq.n	4b52 <__aeabi_fdiv+0x19e>
    4b48:	230f      	movs	r3, #15
    4b4a:	402b      	ands	r3, r5
    4b4c:	2b04      	cmp	r3, #4
    4b4e:	d000      	beq.n	4b52 <__aeabi_fdiv+0x19e>
    4b50:	3504      	adds	r5, #4
    4b52:	012b      	lsls	r3, r5, #4
    4b54:	d504      	bpl.n	4b60 <__aeabi_fdiv+0x1ac>
    4b56:	9a01      	ldr	r2, [sp, #4]
    4b58:	4b31      	ldr	r3, [pc, #196]	; (4c20 <__aeabi_fdiv+0x26c>)
    4b5a:	3280      	adds	r2, #128	; 0x80
    4b5c:	1c14      	adds	r4, r2, #0
    4b5e:	401d      	ands	r5, r3
    4b60:	2cfe      	cmp	r4, #254	; 0xfe
    4b62:	dd07      	ble.n	4b74 <__aeabi_fdiv+0x1c0>
    4b64:	464b      	mov	r3, r9
    4b66:	2101      	movs	r1, #1
    4b68:	24ff      	movs	r4, #255	; 0xff
    4b6a:	4019      	ands	r1, r3
    4b6c:	2300      	movs	r3, #0
    4b6e:	e764      	b.n	4a3a <__aeabi_fdiv+0x86>
    4b70:	1c25      	adds	r5, r4, #0
    4b72:	e7aa      	b.n	4aca <__aeabi_fdiv+0x116>
    4b74:	2101      	movs	r1, #1
    4b76:	464a      	mov	r2, r9
    4b78:	01ab      	lsls	r3, r5, #6
    4b7a:	0a5b      	lsrs	r3, r3, #9
    4b7c:	b2e4      	uxtb	r4, r4
    4b7e:	4011      	ands	r1, r2
    4b80:	e75b      	b.n	4a3a <__aeabi_fdiv+0x86>
    4b82:	9a01      	ldr	r2, [sp, #4]
    4b84:	4689      	mov	r9, r1
    4b86:	3a01      	subs	r2, #1
    4b88:	9201      	str	r2, [sp, #4]
    4b8a:	201b      	movs	r0, #27
    4b8c:	2100      	movs	r1, #0
    4b8e:	e7c4      	b.n	4b1a <__aeabi_fdiv+0x166>
    4b90:	421d      	tst	r5, r3
    4b92:	d007      	beq.n	4ba4 <__aeabi_fdiv+0x1f0>
    4b94:	4323      	orrs	r3, r4
    4b96:	025b      	lsls	r3, r3, #9
    4b98:	0a5b      	lsrs	r3, r3, #9
    4b9a:	1c39      	adds	r1, r7, #0
    4b9c:	e74c      	b.n	4a38 <__aeabi_fdiv+0x84>
    4b9e:	2500      	movs	r5, #0
    4ba0:	0263      	lsls	r3, r4, #9
    4ba2:	d5ab      	bpl.n	4afc <__aeabi_fdiv+0x148>
    4ba4:	2380      	movs	r3, #128	; 0x80
    4ba6:	03db      	lsls	r3, r3, #15
    4ba8:	432b      	orrs	r3, r5
    4baa:	025b      	lsls	r3, r3, #9
    4bac:	0a5b      	lsrs	r3, r3, #9
    4bae:	4651      	mov	r1, sl
    4bb0:	e742      	b.n	4a38 <__aeabi_fdiv+0x84>
    4bb2:	2b03      	cmp	r3, #3
    4bb4:	d025      	beq.n	4c02 <__aeabi_fdiv+0x24e>
    4bb6:	2b01      	cmp	r3, #1
    4bb8:	d1c0      	bne.n	4b3c <__aeabi_fdiv+0x188>
    4bba:	2101      	movs	r1, #1
    4bbc:	2400      	movs	r4, #0
    4bbe:	4001      	ands	r1, r0
    4bc0:	2300      	movs	r3, #0
    4bc2:	e73a      	b.n	4a3a <__aeabi_fdiv+0x86>
    4bc4:	1c29      	adds	r1, r5, #0
    4bc6:	40d9      	lsrs	r1, r3
    4bc8:	1c2b      	adds	r3, r5, #0
    4bca:	9a01      	ldr	r2, [sp, #4]
    4bcc:	329e      	adds	r2, #158	; 0x9e
    4bce:	4093      	lsls	r3, r2
    4bd0:	1e5d      	subs	r5, r3, #1
    4bd2:	41ab      	sbcs	r3, r5
    4bd4:	430b      	orrs	r3, r1
    4bd6:	075a      	lsls	r2, r3, #29
    4bd8:	d004      	beq.n	4be4 <__aeabi_fdiv+0x230>
    4bda:	220f      	movs	r2, #15
    4bdc:	401a      	ands	r2, r3
    4bde:	2a04      	cmp	r2, #4
    4be0:	d000      	beq.n	4be4 <__aeabi_fdiv+0x230>
    4be2:	3304      	adds	r3, #4
    4be4:	015a      	lsls	r2, r3, #5
    4be6:	d505      	bpl.n	4bf4 <__aeabi_fdiv+0x240>
    4be8:	464b      	mov	r3, r9
    4bea:	2101      	movs	r1, #1
    4bec:	2401      	movs	r4, #1
    4bee:	4019      	ands	r1, r3
    4bf0:	2300      	movs	r3, #0
    4bf2:	e722      	b.n	4a3a <__aeabi_fdiv+0x86>
    4bf4:	2101      	movs	r1, #1
    4bf6:	464a      	mov	r2, r9
    4bf8:	019b      	lsls	r3, r3, #6
    4bfa:	0a5b      	lsrs	r3, r3, #9
    4bfc:	4011      	ands	r1, r2
    4bfe:	2400      	movs	r4, #0
    4c00:	e71b      	b.n	4a3a <__aeabi_fdiv+0x86>
    4c02:	2380      	movs	r3, #128	; 0x80
    4c04:	2101      	movs	r1, #1
    4c06:	464a      	mov	r2, r9
    4c08:	03db      	lsls	r3, r3, #15
    4c0a:	432b      	orrs	r3, r5
    4c0c:	025b      	lsls	r3, r3, #9
    4c0e:	400a      	ands	r2, r1
    4c10:	0a5b      	lsrs	r3, r3, #9
    4c12:	1c11      	adds	r1, r2, #0
    4c14:	e710      	b.n	4a38 <__aeabi_fdiv+0x84>
    4c16:	46c0      	nop			; (mov r8, r8)
    4c18:	000078dc 	.word	0x000078dc
    4c1c:	0000791c 	.word	0x0000791c
    4c20:	f7ffffff 	.word	0xf7ffffff

00004c24 <__aeabi_fmul>:
    4c24:	b5f0      	push	{r4, r5, r6, r7, lr}
    4c26:	465f      	mov	r7, fp
    4c28:	4656      	mov	r6, sl
    4c2a:	464d      	mov	r5, r9
    4c2c:	4644      	mov	r4, r8
    4c2e:	b4f0      	push	{r4, r5, r6, r7}
    4c30:	0245      	lsls	r5, r0, #9
    4c32:	0046      	lsls	r6, r0, #1
    4c34:	0fc4      	lsrs	r4, r0, #31
    4c36:	b083      	sub	sp, #12
    4c38:	1c0f      	adds	r7, r1, #0
    4c3a:	0a6d      	lsrs	r5, r5, #9
    4c3c:	0e36      	lsrs	r6, r6, #24
    4c3e:	46a3      	mov	fp, r4
    4c40:	d045      	beq.n	4cce <__aeabi_fmul+0xaa>
    4c42:	2eff      	cmp	r6, #255	; 0xff
    4c44:	d025      	beq.n	4c92 <__aeabi_fmul+0x6e>
    4c46:	2380      	movs	r3, #128	; 0x80
    4c48:	041b      	lsls	r3, r3, #16
    4c4a:	431d      	orrs	r5, r3
    4c4c:	2300      	movs	r3, #0
    4c4e:	469a      	mov	sl, r3
    4c50:	00ed      	lsls	r5, r5, #3
    4c52:	3e7f      	subs	r6, #127	; 0x7f
    4c54:	9301      	str	r3, [sp, #4]
    4c56:	027b      	lsls	r3, r7, #9
    4c58:	0a5b      	lsrs	r3, r3, #9
    4c5a:	4698      	mov	r8, r3
    4c5c:	0078      	lsls	r0, r7, #1
    4c5e:	0ffb      	lsrs	r3, r7, #31
    4c60:	0e00      	lsrs	r0, r0, #24
    4c62:	4699      	mov	r9, r3
    4c64:	d040      	beq.n	4ce8 <__aeabi_fmul+0xc4>
    4c66:	28ff      	cmp	r0, #255	; 0xff
    4c68:	d038      	beq.n	4cdc <__aeabi_fmul+0xb8>
    4c6a:	2380      	movs	r3, #128	; 0x80
    4c6c:	4642      	mov	r2, r8
    4c6e:	041b      	lsls	r3, r3, #16
    4c70:	4313      	orrs	r3, r2
    4c72:	00db      	lsls	r3, r3, #3
    4c74:	4698      	mov	r8, r3
    4c76:	2300      	movs	r3, #0
    4c78:	387f      	subs	r0, #127	; 0x7f
    4c7a:	464a      	mov	r2, r9
    4c7c:	9f01      	ldr	r7, [sp, #4]
    4c7e:	1830      	adds	r0, r6, r0
    4c80:	4062      	eors	r2, r4
    4c82:	1c41      	adds	r1, r0, #1
    4c84:	431f      	orrs	r7, r3
    4c86:	2f0f      	cmp	r7, #15
    4c88:	d869      	bhi.n	4d5e <__aeabi_fmul+0x13a>
    4c8a:	4e7d      	ldr	r6, [pc, #500]	; (4e80 <__aeabi_fmul+0x25c>)
    4c8c:	00bf      	lsls	r7, r7, #2
    4c8e:	59f6      	ldr	r6, [r6, r7]
    4c90:	46b7      	mov	pc, r6
    4c92:	2d00      	cmp	r5, #0
    4c94:	d145      	bne.n	4d22 <__aeabi_fmul+0xfe>
    4c96:	2308      	movs	r3, #8
    4c98:	9301      	str	r3, [sp, #4]
    4c9a:	3b06      	subs	r3, #6
    4c9c:	469a      	mov	sl, r3
    4c9e:	e7da      	b.n	4c56 <__aeabi_fmul+0x32>
    4ca0:	4693      	mov	fp, r2
    4ca2:	4653      	mov	r3, sl
    4ca4:	2b02      	cmp	r3, #2
    4ca6:	d12f      	bne.n	4d08 <__aeabi_fmul+0xe4>
    4ca8:	465b      	mov	r3, fp
    4caa:	2401      	movs	r4, #1
    4cac:	2500      	movs	r5, #0
    4cae:	401c      	ands	r4, r3
    4cb0:	23ff      	movs	r3, #255	; 0xff
    4cb2:	026d      	lsls	r5, r5, #9
    4cb4:	05db      	lsls	r3, r3, #23
    4cb6:	0a6d      	lsrs	r5, r5, #9
    4cb8:	07e4      	lsls	r4, r4, #31
    4cba:	431d      	orrs	r5, r3
    4cbc:	4325      	orrs	r5, r4
    4cbe:	1c28      	adds	r0, r5, #0
    4cc0:	b003      	add	sp, #12
    4cc2:	bc3c      	pop	{r2, r3, r4, r5}
    4cc4:	4690      	mov	r8, r2
    4cc6:	4699      	mov	r9, r3
    4cc8:	46a2      	mov	sl, r4
    4cca:	46ab      	mov	fp, r5
    4ccc:	bdf0      	pop	{r4, r5, r6, r7, pc}
    4cce:	2d00      	cmp	r5, #0
    4cd0:	d12c      	bne.n	4d2c <__aeabi_fmul+0x108>
    4cd2:	2304      	movs	r3, #4
    4cd4:	9301      	str	r3, [sp, #4]
    4cd6:	3b03      	subs	r3, #3
    4cd8:	469a      	mov	sl, r3
    4cda:	e7bc      	b.n	4c56 <__aeabi_fmul+0x32>
    4cdc:	4643      	mov	r3, r8
    4cde:	425a      	negs	r2, r3
    4ce0:	4153      	adcs	r3, r2
    4ce2:	2203      	movs	r2, #3
    4ce4:	1ad3      	subs	r3, r2, r3
    4ce6:	e7c8      	b.n	4c7a <__aeabi_fmul+0x56>
    4ce8:	4642      	mov	r2, r8
    4cea:	2301      	movs	r3, #1
    4cec:	2a00      	cmp	r2, #0
    4cee:	d0c4      	beq.n	4c7a <__aeabi_fmul+0x56>
    4cf0:	4640      	mov	r0, r8
    4cf2:	f002 f9df 	bl	70b4 <__clzsi2>
    4cf6:	4642      	mov	r2, r8
    4cf8:	1f43      	subs	r3, r0, #5
    4cfa:	409a      	lsls	r2, r3
    4cfc:	2376      	movs	r3, #118	; 0x76
    4cfe:	425b      	negs	r3, r3
    4d00:	1a18      	subs	r0, r3, r0
    4d02:	4690      	mov	r8, r2
    4d04:	2300      	movs	r3, #0
    4d06:	e7b8      	b.n	4c7a <__aeabi_fmul+0x56>
    4d08:	2b03      	cmp	r3, #3
    4d0a:	d100      	bne.n	4d0e <__aeabi_fmul+0xea>
    4d0c:	e0ad      	b.n	4e6a <__aeabi_fmul+0x246>
    4d0e:	2b01      	cmp	r3, #1
    4d10:	d000      	beq.n	4d14 <__aeabi_fmul+0xf0>
    4d12:	e08c      	b.n	4e2e <__aeabi_fmul+0x20a>
    4d14:	465b      	mov	r3, fp
    4d16:	4654      	mov	r4, sl
    4d18:	401c      	ands	r4, r3
    4d1a:	b2e4      	uxtb	r4, r4
    4d1c:	2300      	movs	r3, #0
    4d1e:	2500      	movs	r5, #0
    4d20:	e7c7      	b.n	4cb2 <__aeabi_fmul+0x8e>
    4d22:	230c      	movs	r3, #12
    4d24:	9301      	str	r3, [sp, #4]
    4d26:	3b09      	subs	r3, #9
    4d28:	469a      	mov	sl, r3
    4d2a:	e794      	b.n	4c56 <__aeabi_fmul+0x32>
    4d2c:	1c28      	adds	r0, r5, #0
    4d2e:	f002 f9c1 	bl	70b4 <__clzsi2>
    4d32:	2676      	movs	r6, #118	; 0x76
    4d34:	1f43      	subs	r3, r0, #5
    4d36:	409d      	lsls	r5, r3
    4d38:	2300      	movs	r3, #0
    4d3a:	4276      	negs	r6, r6
    4d3c:	1a36      	subs	r6, r6, r0
    4d3e:	9301      	str	r3, [sp, #4]
    4d40:	469a      	mov	sl, r3
    4d42:	e788      	b.n	4c56 <__aeabi_fmul+0x32>
    4d44:	2580      	movs	r5, #128	; 0x80
    4d46:	2400      	movs	r4, #0
    4d48:	03ed      	lsls	r5, r5, #15
    4d4a:	23ff      	movs	r3, #255	; 0xff
    4d4c:	e7b1      	b.n	4cb2 <__aeabi_fmul+0x8e>
    4d4e:	4645      	mov	r5, r8
    4d50:	46cb      	mov	fp, r9
    4d52:	469a      	mov	sl, r3
    4d54:	e7a5      	b.n	4ca2 <__aeabi_fmul+0x7e>
    4d56:	4645      	mov	r5, r8
    4d58:	4693      	mov	fp, r2
    4d5a:	469a      	mov	sl, r3
    4d5c:	e7a1      	b.n	4ca2 <__aeabi_fmul+0x7e>
    4d5e:	4643      	mov	r3, r8
    4d60:	042c      	lsls	r4, r5, #16
    4d62:	0c1b      	lsrs	r3, r3, #16
    4d64:	469c      	mov	ip, r3
    4d66:	0c23      	lsrs	r3, r4, #16
    4d68:	4644      	mov	r4, r8
    4d6a:	0426      	lsls	r6, r4, #16
    4d6c:	1c1c      	adds	r4, r3, #0
    4d6e:	0c36      	lsrs	r6, r6, #16
    4d70:	0c2f      	lsrs	r7, r5, #16
    4d72:	4374      	muls	r4, r6
    4d74:	1c35      	adds	r5, r6, #0
    4d76:	4666      	mov	r6, ip
    4d78:	437d      	muls	r5, r7
    4d7a:	4373      	muls	r3, r6
    4d7c:	4377      	muls	r7, r6
    4d7e:	18eb      	adds	r3, r5, r3
    4d80:	0c26      	lsrs	r6, r4, #16
    4d82:	199e      	adds	r6, r3, r6
    4d84:	42b5      	cmp	r5, r6
    4d86:	d903      	bls.n	4d90 <__aeabi_fmul+0x16c>
    4d88:	2380      	movs	r3, #128	; 0x80
    4d8a:	025b      	lsls	r3, r3, #9
    4d8c:	469c      	mov	ip, r3
    4d8e:	4467      	add	r7, ip
    4d90:	0424      	lsls	r4, r4, #16
    4d92:	0433      	lsls	r3, r6, #16
    4d94:	0c24      	lsrs	r4, r4, #16
    4d96:	191b      	adds	r3, r3, r4
    4d98:	019d      	lsls	r5, r3, #6
    4d9a:	1e6c      	subs	r4, r5, #1
    4d9c:	41a5      	sbcs	r5, r4
    4d9e:	0e9b      	lsrs	r3, r3, #26
    4da0:	0c36      	lsrs	r6, r6, #16
    4da2:	432b      	orrs	r3, r5
    4da4:	19bd      	adds	r5, r7, r6
    4da6:	01ad      	lsls	r5, r5, #6
    4da8:	431d      	orrs	r5, r3
    4daa:	012b      	lsls	r3, r5, #4
    4dac:	d504      	bpl.n	4db8 <__aeabi_fmul+0x194>
    4dae:	2301      	movs	r3, #1
    4db0:	0868      	lsrs	r0, r5, #1
    4db2:	401d      	ands	r5, r3
    4db4:	4305      	orrs	r5, r0
    4db6:	1c08      	adds	r0, r1, #0
    4db8:	1c03      	adds	r3, r0, #0
    4dba:	337f      	adds	r3, #127	; 0x7f
    4dbc:	2b00      	cmp	r3, #0
    4dbe:	dd2c      	ble.n	4e1a <__aeabi_fmul+0x1f6>
    4dc0:	0769      	lsls	r1, r5, #29
    4dc2:	d004      	beq.n	4dce <__aeabi_fmul+0x1aa>
    4dc4:	210f      	movs	r1, #15
    4dc6:	4029      	ands	r1, r5
    4dc8:	2904      	cmp	r1, #4
    4dca:	d000      	beq.n	4dce <__aeabi_fmul+0x1aa>
    4dcc:	3504      	adds	r5, #4
    4dce:	0129      	lsls	r1, r5, #4
    4dd0:	d503      	bpl.n	4dda <__aeabi_fmul+0x1b6>
    4dd2:	4b2c      	ldr	r3, [pc, #176]	; (4e84 <__aeabi_fmul+0x260>)
    4dd4:	401d      	ands	r5, r3
    4dd6:	1c03      	adds	r3, r0, #0
    4dd8:	3380      	adds	r3, #128	; 0x80
    4dda:	2bfe      	cmp	r3, #254	; 0xfe
    4ddc:	dd17      	ble.n	4e0e <__aeabi_fmul+0x1ea>
    4dde:	2401      	movs	r4, #1
    4de0:	23ff      	movs	r3, #255	; 0xff
    4de2:	4014      	ands	r4, r2
    4de4:	2500      	movs	r5, #0
    4de6:	e764      	b.n	4cb2 <__aeabi_fmul+0x8e>
    4de8:	2080      	movs	r0, #128	; 0x80
    4dea:	03c0      	lsls	r0, r0, #15
    4dec:	4205      	tst	r5, r0
    4dee:	d009      	beq.n	4e04 <__aeabi_fmul+0x1e0>
    4df0:	4643      	mov	r3, r8
    4df2:	4203      	tst	r3, r0
    4df4:	d106      	bne.n	4e04 <__aeabi_fmul+0x1e0>
    4df6:	4645      	mov	r5, r8
    4df8:	4305      	orrs	r5, r0
    4dfa:	026d      	lsls	r5, r5, #9
    4dfc:	0a6d      	lsrs	r5, r5, #9
    4dfe:	464c      	mov	r4, r9
    4e00:	23ff      	movs	r3, #255	; 0xff
    4e02:	e756      	b.n	4cb2 <__aeabi_fmul+0x8e>
    4e04:	4305      	orrs	r5, r0
    4e06:	026d      	lsls	r5, r5, #9
    4e08:	0a6d      	lsrs	r5, r5, #9
    4e0a:	23ff      	movs	r3, #255	; 0xff
    4e0c:	e751      	b.n	4cb2 <__aeabi_fmul+0x8e>
    4e0e:	2401      	movs	r4, #1
    4e10:	01ad      	lsls	r5, r5, #6
    4e12:	0a6d      	lsrs	r5, r5, #9
    4e14:	b2db      	uxtb	r3, r3
    4e16:	4014      	ands	r4, r2
    4e18:	e74b      	b.n	4cb2 <__aeabi_fmul+0x8e>
    4e1a:	237e      	movs	r3, #126	; 0x7e
    4e1c:	425b      	negs	r3, r3
    4e1e:	1a1b      	subs	r3, r3, r0
    4e20:	2b1b      	cmp	r3, #27
    4e22:	dd07      	ble.n	4e34 <__aeabi_fmul+0x210>
    4e24:	2401      	movs	r4, #1
    4e26:	2300      	movs	r3, #0
    4e28:	4014      	ands	r4, r2
    4e2a:	2500      	movs	r5, #0
    4e2c:	e741      	b.n	4cb2 <__aeabi_fmul+0x8e>
    4e2e:	1c08      	adds	r0, r1, #0
    4e30:	465a      	mov	r2, fp
    4e32:	e7c1      	b.n	4db8 <__aeabi_fmul+0x194>
    4e34:	309e      	adds	r0, #158	; 0x9e
    4e36:	1c29      	adds	r1, r5, #0
    4e38:	4085      	lsls	r5, r0
    4e3a:	40d9      	lsrs	r1, r3
    4e3c:	1e68      	subs	r0, r5, #1
    4e3e:	4185      	sbcs	r5, r0
    4e40:	430d      	orrs	r5, r1
    4e42:	076b      	lsls	r3, r5, #29
    4e44:	d004      	beq.n	4e50 <__aeabi_fmul+0x22c>
    4e46:	230f      	movs	r3, #15
    4e48:	402b      	ands	r3, r5
    4e4a:	2b04      	cmp	r3, #4
    4e4c:	d000      	beq.n	4e50 <__aeabi_fmul+0x22c>
    4e4e:	3504      	adds	r5, #4
    4e50:	016b      	lsls	r3, r5, #5
    4e52:	d504      	bpl.n	4e5e <__aeabi_fmul+0x23a>
    4e54:	2401      	movs	r4, #1
    4e56:	2301      	movs	r3, #1
    4e58:	4014      	ands	r4, r2
    4e5a:	2500      	movs	r5, #0
    4e5c:	e729      	b.n	4cb2 <__aeabi_fmul+0x8e>
    4e5e:	2401      	movs	r4, #1
    4e60:	01ad      	lsls	r5, r5, #6
    4e62:	0a6d      	lsrs	r5, r5, #9
    4e64:	4014      	ands	r4, r2
    4e66:	2300      	movs	r3, #0
    4e68:	e723      	b.n	4cb2 <__aeabi_fmul+0x8e>
    4e6a:	2380      	movs	r3, #128	; 0x80
    4e6c:	03db      	lsls	r3, r3, #15
    4e6e:	431d      	orrs	r5, r3
    4e70:	2401      	movs	r4, #1
    4e72:	465b      	mov	r3, fp
    4e74:	026d      	lsls	r5, r5, #9
    4e76:	4023      	ands	r3, r4
    4e78:	1c1c      	adds	r4, r3, #0
    4e7a:	0a6d      	lsrs	r5, r5, #9
    4e7c:	23ff      	movs	r3, #255	; 0xff
    4e7e:	e718      	b.n	4cb2 <__aeabi_fmul+0x8e>
    4e80:	0000795c 	.word	0x0000795c
    4e84:	f7ffffff 	.word	0xf7ffffff

00004e88 <__aeabi_fsub>:
    4e88:	b5f8      	push	{r3, r4, r5, r6, r7, lr}
    4e8a:	004a      	lsls	r2, r1, #1
    4e8c:	0243      	lsls	r3, r0, #9
    4e8e:	0044      	lsls	r4, r0, #1
    4e90:	024d      	lsls	r5, r1, #9
    4e92:	0fc0      	lsrs	r0, r0, #31
    4e94:	0e24      	lsrs	r4, r4, #24
    4e96:	1c06      	adds	r6, r0, #0
    4e98:	099b      	lsrs	r3, r3, #6
    4e9a:	0e12      	lsrs	r2, r2, #24
    4e9c:	0fc9      	lsrs	r1, r1, #31
    4e9e:	09ad      	lsrs	r5, r5, #6
    4ea0:	2aff      	cmp	r2, #255	; 0xff
    4ea2:	d100      	bne.n	4ea6 <__aeabi_fsub+0x1e>
    4ea4:	e075      	b.n	4f92 <__aeabi_fsub+0x10a>
    4ea6:	2701      	movs	r7, #1
    4ea8:	4079      	eors	r1, r7
    4eaa:	4288      	cmp	r0, r1
    4eac:	d050      	beq.n	4f50 <__aeabi_fsub+0xc8>
    4eae:	1aa0      	subs	r0, r4, r2
    4eb0:	2800      	cmp	r0, #0
    4eb2:	dc00      	bgt.n	4eb6 <__aeabi_fsub+0x2e>
    4eb4:	e08f      	b.n	4fd6 <__aeabi_fsub+0x14e>
    4eb6:	2a00      	cmp	r2, #0
    4eb8:	d11e      	bne.n	4ef8 <__aeabi_fsub+0x70>
    4eba:	2d00      	cmp	r5, #0
    4ebc:	d000      	beq.n	4ec0 <__aeabi_fsub+0x38>
    4ebe:	e075      	b.n	4fac <__aeabi_fsub+0x124>
    4ec0:	075a      	lsls	r2, r3, #29
    4ec2:	d004      	beq.n	4ece <__aeabi_fsub+0x46>
    4ec4:	220f      	movs	r2, #15
    4ec6:	401a      	ands	r2, r3
    4ec8:	2a04      	cmp	r2, #4
    4eca:	d000      	beq.n	4ece <__aeabi_fsub+0x46>
    4ecc:	3304      	adds	r3, #4
    4ece:	2280      	movs	r2, #128	; 0x80
    4ed0:	2001      	movs	r0, #1
    4ed2:	04d2      	lsls	r2, r2, #19
    4ed4:	401a      	ands	r2, r3
    4ed6:	4030      	ands	r0, r6
    4ed8:	2a00      	cmp	r2, #0
    4eda:	d032      	beq.n	4f42 <__aeabi_fsub+0xba>
    4edc:	3401      	adds	r4, #1
    4ede:	2cff      	cmp	r4, #255	; 0xff
    4ee0:	d100      	bne.n	4ee4 <__aeabi_fsub+0x5c>
    4ee2:	e084      	b.n	4fee <__aeabi_fsub+0x166>
    4ee4:	019b      	lsls	r3, r3, #6
    4ee6:	0a5b      	lsrs	r3, r3, #9
    4ee8:	b2e4      	uxtb	r4, r4
    4eea:	025b      	lsls	r3, r3, #9
    4eec:	05e4      	lsls	r4, r4, #23
    4eee:	0a5b      	lsrs	r3, r3, #9
    4ef0:	4323      	orrs	r3, r4
    4ef2:	07c0      	lsls	r0, r0, #31
    4ef4:	4318      	orrs	r0, r3
    4ef6:	bdf8      	pop	{r3, r4, r5, r6, r7, pc}
    4ef8:	2cff      	cmp	r4, #255	; 0xff
    4efa:	d0e1      	beq.n	4ec0 <__aeabi_fsub+0x38>
    4efc:	2280      	movs	r2, #128	; 0x80
    4efe:	04d2      	lsls	r2, r2, #19
    4f00:	4315      	orrs	r5, r2
    4f02:	281b      	cmp	r0, #27
    4f04:	dd7a      	ble.n	4ffc <__aeabi_fsub+0x174>
    4f06:	2501      	movs	r5, #1
    4f08:	1b5b      	subs	r3, r3, r5
    4f0a:	015a      	lsls	r2, r3, #5
    4f0c:	d55d      	bpl.n	4fca <__aeabi_fsub+0x142>
    4f0e:	019b      	lsls	r3, r3, #6
    4f10:	099f      	lsrs	r7, r3, #6
    4f12:	1c38      	adds	r0, r7, #0
    4f14:	f002 f8ce 	bl	70b4 <__clzsi2>
    4f18:	3805      	subs	r0, #5
    4f1a:	4087      	lsls	r7, r0
    4f1c:	4284      	cmp	r4, r0
    4f1e:	dc69      	bgt.n	4ff4 <__aeabi_fsub+0x16c>
    4f20:	1b00      	subs	r0, r0, r4
    4f22:	241f      	movs	r4, #31
    4f24:	1c3a      	adds	r2, r7, #0
    4f26:	1c43      	adds	r3, r0, #1
    4f28:	1a20      	subs	r0, r4, r0
    4f2a:	40da      	lsrs	r2, r3
    4f2c:	4087      	lsls	r7, r0
    4f2e:	1c13      	adds	r3, r2, #0
    4f30:	1e7c      	subs	r4, r7, #1
    4f32:	41a7      	sbcs	r7, r4
    4f34:	2400      	movs	r4, #0
    4f36:	433b      	orrs	r3, r7
    4f38:	e7c2      	b.n	4ec0 <__aeabi_fsub+0x38>
    4f3a:	1e13      	subs	r3, r2, #0
    4f3c:	d145      	bne.n	4fca <__aeabi_fsub+0x142>
    4f3e:	2300      	movs	r3, #0
    4f40:	2000      	movs	r0, #0
    4f42:	08db      	lsrs	r3, r3, #3
    4f44:	2cff      	cmp	r4, #255	; 0xff
    4f46:	d028      	beq.n	4f9a <__aeabi_fsub+0x112>
    4f48:	025b      	lsls	r3, r3, #9
    4f4a:	0a5b      	lsrs	r3, r3, #9
    4f4c:	b2e4      	uxtb	r4, r4
    4f4e:	e7cc      	b.n	4eea <__aeabi_fsub+0x62>
    4f50:	1aa1      	subs	r1, r4, r2
    4f52:	2900      	cmp	r1, #0
    4f54:	dd5b      	ble.n	500e <__aeabi_fsub+0x186>
    4f56:	2a00      	cmp	r2, #0
    4f58:	d02e      	beq.n	4fb8 <__aeabi_fsub+0x130>
    4f5a:	2cff      	cmp	r4, #255	; 0xff
    4f5c:	d0b0      	beq.n	4ec0 <__aeabi_fsub+0x38>
    4f5e:	2280      	movs	r2, #128	; 0x80
    4f60:	04d2      	lsls	r2, r2, #19
    4f62:	4315      	orrs	r5, r2
    4f64:	291b      	cmp	r1, #27
    4f66:	dc74      	bgt.n	5052 <__aeabi_fsub+0x1ca>
    4f68:	1c2f      	adds	r7, r5, #0
    4f6a:	2220      	movs	r2, #32
    4f6c:	40cf      	lsrs	r7, r1
    4f6e:	1a51      	subs	r1, r2, r1
    4f70:	408d      	lsls	r5, r1
    4f72:	1e69      	subs	r1, r5, #1
    4f74:	418d      	sbcs	r5, r1
    4f76:	433d      	orrs	r5, r7
    4f78:	195b      	adds	r3, r3, r5
    4f7a:	015a      	lsls	r2, r3, #5
    4f7c:	d525      	bpl.n	4fca <__aeabi_fsub+0x142>
    4f7e:	3401      	adds	r4, #1
    4f80:	2cff      	cmp	r4, #255	; 0xff
    4f82:	d074      	beq.n	506e <__aeabi_fsub+0x1e6>
    4f84:	2101      	movs	r1, #1
    4f86:	4a7e      	ldr	r2, [pc, #504]	; (5180 <__aeabi_fsub+0x2f8>)
    4f88:	4019      	ands	r1, r3
    4f8a:	4013      	ands	r3, r2
    4f8c:	085b      	lsrs	r3, r3, #1
    4f8e:	430b      	orrs	r3, r1
    4f90:	e796      	b.n	4ec0 <__aeabi_fsub+0x38>
    4f92:	2d00      	cmp	r5, #0
    4f94:	d000      	beq.n	4f98 <__aeabi_fsub+0x110>
    4f96:	e788      	b.n	4eaa <__aeabi_fsub+0x22>
    4f98:	e785      	b.n	4ea6 <__aeabi_fsub+0x1e>
    4f9a:	2b00      	cmp	r3, #0
    4f9c:	d027      	beq.n	4fee <__aeabi_fsub+0x166>
    4f9e:	2280      	movs	r2, #128	; 0x80
    4fa0:	03d2      	lsls	r2, r2, #15
    4fa2:	4313      	orrs	r3, r2
    4fa4:	025b      	lsls	r3, r3, #9
    4fa6:	0a5b      	lsrs	r3, r3, #9
    4fa8:	24ff      	movs	r4, #255	; 0xff
    4faa:	e79e      	b.n	4eea <__aeabi_fsub+0x62>
    4fac:	3801      	subs	r0, #1
    4fae:	2800      	cmp	r0, #0
    4fb0:	d0aa      	beq.n	4f08 <__aeabi_fsub+0x80>
    4fb2:	2cff      	cmp	r4, #255	; 0xff
    4fb4:	d1a5      	bne.n	4f02 <__aeabi_fsub+0x7a>
    4fb6:	e783      	b.n	4ec0 <__aeabi_fsub+0x38>
    4fb8:	2d00      	cmp	r5, #0
    4fba:	d100      	bne.n	4fbe <__aeabi_fsub+0x136>
    4fbc:	e780      	b.n	4ec0 <__aeabi_fsub+0x38>
    4fbe:	3901      	subs	r1, #1
    4fc0:	2900      	cmp	r1, #0
    4fc2:	d0d9      	beq.n	4f78 <__aeabi_fsub+0xf0>
    4fc4:	2cff      	cmp	r4, #255	; 0xff
    4fc6:	d1cd      	bne.n	4f64 <__aeabi_fsub+0xdc>
    4fc8:	e77a      	b.n	4ec0 <__aeabi_fsub+0x38>
    4fca:	075a      	lsls	r2, r3, #29
    4fcc:	d000      	beq.n	4fd0 <__aeabi_fsub+0x148>
    4fce:	e779      	b.n	4ec4 <__aeabi_fsub+0x3c>
    4fd0:	2001      	movs	r0, #1
    4fd2:	4030      	ands	r0, r6
    4fd4:	e7b5      	b.n	4f42 <__aeabi_fsub+0xba>
    4fd6:	2800      	cmp	r0, #0
    4fd8:	d125      	bne.n	5026 <__aeabi_fsub+0x19e>
    4fda:	1c62      	adds	r2, r4, #1
    4fdc:	b2d2      	uxtb	r2, r2
    4fde:	2a01      	cmp	r2, #1
    4fe0:	dd55      	ble.n	508e <__aeabi_fsub+0x206>
    4fe2:	1b5f      	subs	r7, r3, r5
    4fe4:	017a      	lsls	r2, r7, #5
    4fe6:	d52d      	bpl.n	5044 <__aeabi_fsub+0x1bc>
    4fe8:	1aef      	subs	r7, r5, r3
    4fea:	1c0e      	adds	r6, r1, #0
    4fec:	e791      	b.n	4f12 <__aeabi_fsub+0x8a>
    4fee:	24ff      	movs	r4, #255	; 0xff
    4ff0:	2300      	movs	r3, #0
    4ff2:	e77a      	b.n	4eea <__aeabi_fsub+0x62>
    4ff4:	4b62      	ldr	r3, [pc, #392]	; (5180 <__aeabi_fsub+0x2f8>)
    4ff6:	1a24      	subs	r4, r4, r0
    4ff8:	403b      	ands	r3, r7
    4ffa:	e761      	b.n	4ec0 <__aeabi_fsub+0x38>
    4ffc:	1c29      	adds	r1, r5, #0
    4ffe:	2220      	movs	r2, #32
    5000:	40c1      	lsrs	r1, r0
    5002:	1a10      	subs	r0, r2, r0
    5004:	4085      	lsls	r5, r0
    5006:	1e68      	subs	r0, r5, #1
    5008:	4185      	sbcs	r5, r0
    500a:	430d      	orrs	r5, r1
    500c:	e77c      	b.n	4f08 <__aeabi_fsub+0x80>
    500e:	2900      	cmp	r1, #0
    5010:	d146      	bne.n	50a0 <__aeabi_fsub+0x218>
    5012:	1c62      	adds	r2, r4, #1
    5014:	b2d1      	uxtb	r1, r2
    5016:	2901      	cmp	r1, #1
    5018:	dd2b      	ble.n	5072 <__aeabi_fsub+0x1ea>
    501a:	2aff      	cmp	r2, #255	; 0xff
    501c:	d026      	beq.n	506c <__aeabi_fsub+0x1e4>
    501e:	18eb      	adds	r3, r5, r3
    5020:	085b      	lsrs	r3, r3, #1
    5022:	1c14      	adds	r4, r2, #0
    5024:	e74c      	b.n	4ec0 <__aeabi_fsub+0x38>
    5026:	2c00      	cmp	r4, #0
    5028:	d015      	beq.n	5056 <__aeabi_fsub+0x1ce>
    502a:	2aff      	cmp	r2, #255	; 0xff
    502c:	d01a      	beq.n	5064 <__aeabi_fsub+0x1dc>
    502e:	2480      	movs	r4, #128	; 0x80
    5030:	04e4      	lsls	r4, r4, #19
    5032:	4240      	negs	r0, r0
    5034:	4323      	orrs	r3, r4
    5036:	281b      	cmp	r0, #27
    5038:	dd4d      	ble.n	50d6 <__aeabi_fsub+0x24e>
    503a:	2301      	movs	r3, #1
    503c:	1aeb      	subs	r3, r5, r3
    503e:	1c14      	adds	r4, r2, #0
    5040:	1c0e      	adds	r6, r1, #0
    5042:	e762      	b.n	4f0a <__aeabi_fsub+0x82>
    5044:	2f00      	cmp	r7, #0
    5046:	d000      	beq.n	504a <__aeabi_fsub+0x1c2>
    5048:	e763      	b.n	4f12 <__aeabi_fsub+0x8a>
    504a:	2300      	movs	r3, #0
    504c:	2000      	movs	r0, #0
    504e:	2400      	movs	r4, #0
    5050:	e777      	b.n	4f42 <__aeabi_fsub+0xba>
    5052:	2501      	movs	r5, #1
    5054:	e790      	b.n	4f78 <__aeabi_fsub+0xf0>
    5056:	2b00      	cmp	r3, #0
    5058:	d039      	beq.n	50ce <__aeabi_fsub+0x246>
    505a:	43c0      	mvns	r0, r0
    505c:	2800      	cmp	r0, #0
    505e:	d0ed      	beq.n	503c <__aeabi_fsub+0x1b4>
    5060:	2aff      	cmp	r2, #255	; 0xff
    5062:	d1e8      	bne.n	5036 <__aeabi_fsub+0x1ae>
    5064:	1c2b      	adds	r3, r5, #0
    5066:	24ff      	movs	r4, #255	; 0xff
    5068:	1c0e      	adds	r6, r1, #0
    506a:	e729      	b.n	4ec0 <__aeabi_fsub+0x38>
    506c:	24ff      	movs	r4, #255	; 0xff
    506e:	2300      	movs	r3, #0
    5070:	e767      	b.n	4f42 <__aeabi_fsub+0xba>
    5072:	2c00      	cmp	r4, #0
    5074:	d15a      	bne.n	512c <__aeabi_fsub+0x2a4>
    5076:	2b00      	cmp	r3, #0
    5078:	d07f      	beq.n	517a <__aeabi_fsub+0x2f2>
    507a:	2d00      	cmp	r5, #0
    507c:	d100      	bne.n	5080 <__aeabi_fsub+0x1f8>
    507e:	e71f      	b.n	4ec0 <__aeabi_fsub+0x38>
    5080:	195b      	adds	r3, r3, r5
    5082:	015a      	lsls	r2, r3, #5
    5084:	d5a1      	bpl.n	4fca <__aeabi_fsub+0x142>
    5086:	4a3e      	ldr	r2, [pc, #248]	; (5180 <__aeabi_fsub+0x2f8>)
    5088:	3401      	adds	r4, #1
    508a:	4013      	ands	r3, r2
    508c:	e718      	b.n	4ec0 <__aeabi_fsub+0x38>
    508e:	2c00      	cmp	r4, #0
    5090:	d115      	bne.n	50be <__aeabi_fsub+0x236>
    5092:	2b00      	cmp	r3, #0
    5094:	d12f      	bne.n	50f6 <__aeabi_fsub+0x26e>
    5096:	2d00      	cmp	r5, #0
    5098:	d05e      	beq.n	5158 <__aeabi_fsub+0x2d0>
    509a:	1c2b      	adds	r3, r5, #0
    509c:	1c0e      	adds	r6, r1, #0
    509e:	e70f      	b.n	4ec0 <__aeabi_fsub+0x38>
    50a0:	2c00      	cmp	r4, #0
    50a2:	d121      	bne.n	50e8 <__aeabi_fsub+0x260>
    50a4:	2b00      	cmp	r3, #0
    50a6:	d054      	beq.n	5152 <__aeabi_fsub+0x2ca>
    50a8:	43c9      	mvns	r1, r1
    50aa:	2900      	cmp	r1, #0
    50ac:	d004      	beq.n	50b8 <__aeabi_fsub+0x230>
    50ae:	2aff      	cmp	r2, #255	; 0xff
    50b0:	d04c      	beq.n	514c <__aeabi_fsub+0x2c4>
    50b2:	291b      	cmp	r1, #27
    50b4:	dd58      	ble.n	5168 <__aeabi_fsub+0x2e0>
    50b6:	2301      	movs	r3, #1
    50b8:	195b      	adds	r3, r3, r5
    50ba:	1c14      	adds	r4, r2, #0
    50bc:	e75d      	b.n	4f7a <__aeabi_fsub+0xf2>
    50be:	2b00      	cmp	r3, #0
    50c0:	d123      	bne.n	510a <__aeabi_fsub+0x282>
    50c2:	2d00      	cmp	r5, #0
    50c4:	d04b      	beq.n	515e <__aeabi_fsub+0x2d6>
    50c6:	1c2b      	adds	r3, r5, #0
    50c8:	1c0e      	adds	r6, r1, #0
    50ca:	24ff      	movs	r4, #255	; 0xff
    50cc:	e6f8      	b.n	4ec0 <__aeabi_fsub+0x38>
    50ce:	1c2b      	adds	r3, r5, #0
    50d0:	1c14      	adds	r4, r2, #0
    50d2:	1c0e      	adds	r6, r1, #0
    50d4:	e6f4      	b.n	4ec0 <__aeabi_fsub+0x38>
    50d6:	1c1e      	adds	r6, r3, #0
    50d8:	2420      	movs	r4, #32
    50da:	40c6      	lsrs	r6, r0
    50dc:	1a20      	subs	r0, r4, r0
    50de:	4083      	lsls	r3, r0
    50e0:	1e58      	subs	r0, r3, #1
    50e2:	4183      	sbcs	r3, r0
    50e4:	4333      	orrs	r3, r6
    50e6:	e7a9      	b.n	503c <__aeabi_fsub+0x1b4>
    50e8:	2aff      	cmp	r2, #255	; 0xff
    50ea:	d02f      	beq.n	514c <__aeabi_fsub+0x2c4>
    50ec:	2480      	movs	r4, #128	; 0x80
    50ee:	04e4      	lsls	r4, r4, #19
    50f0:	4249      	negs	r1, r1
    50f2:	4323      	orrs	r3, r4
    50f4:	e7dd      	b.n	50b2 <__aeabi_fsub+0x22a>
    50f6:	2d00      	cmp	r5, #0
    50f8:	d100      	bne.n	50fc <__aeabi_fsub+0x274>
    50fa:	e6e1      	b.n	4ec0 <__aeabi_fsub+0x38>
    50fc:	1b5a      	subs	r2, r3, r5
    50fe:	0150      	lsls	r0, r2, #5
    5100:	d400      	bmi.n	5104 <__aeabi_fsub+0x27c>
    5102:	e71a      	b.n	4f3a <__aeabi_fsub+0xb2>
    5104:	1aeb      	subs	r3, r5, r3
    5106:	1c0e      	adds	r6, r1, #0
    5108:	e6da      	b.n	4ec0 <__aeabi_fsub+0x38>
    510a:	24ff      	movs	r4, #255	; 0xff
    510c:	2d00      	cmp	r5, #0
    510e:	d100      	bne.n	5112 <__aeabi_fsub+0x28a>
    5110:	e6d6      	b.n	4ec0 <__aeabi_fsub+0x38>
    5112:	2280      	movs	r2, #128	; 0x80
    5114:	08db      	lsrs	r3, r3, #3
    5116:	03d2      	lsls	r2, r2, #15
    5118:	4213      	tst	r3, r2
    511a:	d004      	beq.n	5126 <__aeabi_fsub+0x29e>
    511c:	08ed      	lsrs	r5, r5, #3
    511e:	4215      	tst	r5, r2
    5120:	d101      	bne.n	5126 <__aeabi_fsub+0x29e>
    5122:	1c2b      	adds	r3, r5, #0
    5124:	1c0e      	adds	r6, r1, #0
    5126:	00db      	lsls	r3, r3, #3
    5128:	24ff      	movs	r4, #255	; 0xff
    512a:	e6c9      	b.n	4ec0 <__aeabi_fsub+0x38>
    512c:	2b00      	cmp	r3, #0
    512e:	d00d      	beq.n	514c <__aeabi_fsub+0x2c4>
    5130:	24ff      	movs	r4, #255	; 0xff
    5132:	2d00      	cmp	r5, #0
    5134:	d100      	bne.n	5138 <__aeabi_fsub+0x2b0>
    5136:	e6c3      	b.n	4ec0 <__aeabi_fsub+0x38>
    5138:	2280      	movs	r2, #128	; 0x80
    513a:	08db      	lsrs	r3, r3, #3
    513c:	03d2      	lsls	r2, r2, #15
    513e:	4213      	tst	r3, r2
    5140:	d0f1      	beq.n	5126 <__aeabi_fsub+0x29e>
    5142:	08ed      	lsrs	r5, r5, #3
    5144:	4215      	tst	r5, r2
    5146:	d1ee      	bne.n	5126 <__aeabi_fsub+0x29e>
    5148:	1c2b      	adds	r3, r5, #0
    514a:	e7ec      	b.n	5126 <__aeabi_fsub+0x29e>
    514c:	1c2b      	adds	r3, r5, #0
    514e:	24ff      	movs	r4, #255	; 0xff
    5150:	e6b6      	b.n	4ec0 <__aeabi_fsub+0x38>
    5152:	1c2b      	adds	r3, r5, #0
    5154:	1c14      	adds	r4, r2, #0
    5156:	e6b3      	b.n	4ec0 <__aeabi_fsub+0x38>
    5158:	1c23      	adds	r3, r4, #0
    515a:	2000      	movs	r0, #0
    515c:	e6f1      	b.n	4f42 <__aeabi_fsub+0xba>
    515e:	2380      	movs	r3, #128	; 0x80
    5160:	2000      	movs	r0, #0
    5162:	049b      	lsls	r3, r3, #18
    5164:	24ff      	movs	r4, #255	; 0xff
    5166:	e6ec      	b.n	4f42 <__aeabi_fsub+0xba>
    5168:	1c1f      	adds	r7, r3, #0
    516a:	2420      	movs	r4, #32
    516c:	40cf      	lsrs	r7, r1
    516e:	1a61      	subs	r1, r4, r1
    5170:	408b      	lsls	r3, r1
    5172:	1e59      	subs	r1, r3, #1
    5174:	418b      	sbcs	r3, r1
    5176:	433b      	orrs	r3, r7
    5178:	e79e      	b.n	50b8 <__aeabi_fsub+0x230>
    517a:	1c2b      	adds	r3, r5, #0
    517c:	e6a0      	b.n	4ec0 <__aeabi_fsub+0x38>
    517e:	46c0      	nop			; (mov r8, r8)
    5180:	fbffffff 	.word	0xfbffffff

00005184 <__aeabi_f2iz>:
    5184:	0242      	lsls	r2, r0, #9
    5186:	0a51      	lsrs	r1, r2, #9
    5188:	0042      	lsls	r2, r0, #1
    518a:	0fc3      	lsrs	r3, r0, #31
    518c:	0e12      	lsrs	r2, r2, #24
    518e:	2000      	movs	r0, #0
    5190:	2a7e      	cmp	r2, #126	; 0x7e
    5192:	dd0d      	ble.n	51b0 <__aeabi_f2iz+0x2c>
    5194:	2a9d      	cmp	r2, #157	; 0x9d
    5196:	dc0c      	bgt.n	51b2 <__aeabi_f2iz+0x2e>
    5198:	2080      	movs	r0, #128	; 0x80
    519a:	0400      	lsls	r0, r0, #16
    519c:	4301      	orrs	r1, r0
    519e:	2a95      	cmp	r2, #149	; 0x95
    51a0:	dc0a      	bgt.n	51b8 <__aeabi_f2iz+0x34>
    51a2:	2096      	movs	r0, #150	; 0x96
    51a4:	1a82      	subs	r2, r0, r2
    51a6:	40d1      	lsrs	r1, r2
    51a8:	1c0a      	adds	r2, r1, #0
    51aa:	4258      	negs	r0, r3
    51ac:	4042      	eors	r2, r0
    51ae:	18d0      	adds	r0, r2, r3
    51b0:	4770      	bx	lr
    51b2:	4a03      	ldr	r2, [pc, #12]	; (51c0 <__aeabi_f2iz+0x3c>)
    51b4:	1898      	adds	r0, r3, r2
    51b6:	e7fb      	b.n	51b0 <__aeabi_f2iz+0x2c>
    51b8:	3a96      	subs	r2, #150	; 0x96
    51ba:	4091      	lsls	r1, r2
    51bc:	1c0a      	adds	r2, r1, #0
    51be:	e7f4      	b.n	51aa <__aeabi_f2iz+0x26>
    51c0:	7fffffff 	.word	0x7fffffff

000051c4 <__aeabi_i2f>:
    51c4:	b570      	push	{r4, r5, r6, lr}
    51c6:	1e04      	subs	r4, r0, #0
    51c8:	d039      	beq.n	523e <__aeabi_i2f+0x7a>
    51ca:	0fc5      	lsrs	r5, r0, #31
    51cc:	d000      	beq.n	51d0 <__aeabi_i2f+0xc>
    51ce:	4244      	negs	r4, r0
    51d0:	1c20      	adds	r0, r4, #0
    51d2:	f001 ff6f 	bl	70b4 <__clzsi2>
    51d6:	239e      	movs	r3, #158	; 0x9e
    51d8:	1c26      	adds	r6, r4, #0
    51da:	1a1b      	subs	r3, r3, r0
    51dc:	2b96      	cmp	r3, #150	; 0x96
    51de:	dc07      	bgt.n	51f0 <__aeabi_i2f+0x2c>
    51e0:	2808      	cmp	r0, #8
    51e2:	dd01      	ble.n	51e8 <__aeabi_i2f+0x24>
    51e4:	3808      	subs	r0, #8
    51e6:	4084      	lsls	r4, r0
    51e8:	0264      	lsls	r4, r4, #9
    51ea:	0a64      	lsrs	r4, r4, #9
    51ec:	b2d8      	uxtb	r0, r3
    51ee:	e01e      	b.n	522e <__aeabi_i2f+0x6a>
    51f0:	2b99      	cmp	r3, #153	; 0x99
    51f2:	dd0a      	ble.n	520a <__aeabi_i2f+0x46>
    51f4:	2205      	movs	r2, #5
    51f6:	1c21      	adds	r1, r4, #0
    51f8:	1a12      	subs	r2, r2, r0
    51fa:	40d1      	lsrs	r1, r2
    51fc:	1c0a      	adds	r2, r1, #0
    51fe:	1c01      	adds	r1, r0, #0
    5200:	311b      	adds	r1, #27
    5202:	408e      	lsls	r6, r1
    5204:	1e71      	subs	r1, r6, #1
    5206:	418e      	sbcs	r6, r1
    5208:	4316      	orrs	r6, r2
    520a:	2805      	cmp	r0, #5
    520c:	dd01      	ble.n	5212 <__aeabi_i2f+0x4e>
    520e:	1f42      	subs	r2, r0, #5
    5210:	4096      	lsls	r6, r2
    5212:	4c0f      	ldr	r4, [pc, #60]	; (5250 <__aeabi_i2f+0x8c>)
    5214:	4034      	ands	r4, r6
    5216:	0772      	lsls	r2, r6, #29
    5218:	d004      	beq.n	5224 <__aeabi_i2f+0x60>
    521a:	220f      	movs	r2, #15
    521c:	4016      	ands	r6, r2
    521e:	2e04      	cmp	r6, #4
    5220:	d000      	beq.n	5224 <__aeabi_i2f+0x60>
    5222:	3404      	adds	r4, #4
    5224:	0162      	lsls	r2, r4, #5
    5226:	d40e      	bmi.n	5246 <__aeabi_i2f+0x82>
    5228:	01a4      	lsls	r4, r4, #6
    522a:	0a64      	lsrs	r4, r4, #9
    522c:	b2d8      	uxtb	r0, r3
    522e:	0264      	lsls	r4, r4, #9
    5230:	05c0      	lsls	r0, r0, #23
    5232:	0a64      	lsrs	r4, r4, #9
    5234:	07ed      	lsls	r5, r5, #31
    5236:	4304      	orrs	r4, r0
    5238:	432c      	orrs	r4, r5
    523a:	1c20      	adds	r0, r4, #0
    523c:	bd70      	pop	{r4, r5, r6, pc}
    523e:	2500      	movs	r5, #0
    5240:	2000      	movs	r0, #0
    5242:	2400      	movs	r4, #0
    5244:	e7f3      	b.n	522e <__aeabi_i2f+0x6a>
    5246:	4b02      	ldr	r3, [pc, #8]	; (5250 <__aeabi_i2f+0x8c>)
    5248:	401c      	ands	r4, r3
    524a:	239f      	movs	r3, #159	; 0x9f
    524c:	1a1b      	subs	r3, r3, r0
    524e:	e7eb      	b.n	5228 <__aeabi_i2f+0x64>
    5250:	fbffffff 	.word	0xfbffffff

00005254 <__aeabi_ui2f>:
    5254:	b510      	push	{r4, lr}
    5256:	1e04      	subs	r4, r0, #0
    5258:	d035      	beq.n	52c6 <__aeabi_ui2f+0x72>
    525a:	f001 ff2b 	bl	70b4 <__clzsi2>
    525e:	219e      	movs	r1, #158	; 0x9e
    5260:	1a09      	subs	r1, r1, r0
    5262:	2996      	cmp	r1, #150	; 0x96
    5264:	dc09      	bgt.n	527a <__aeabi_ui2f+0x26>
    5266:	2808      	cmp	r0, #8
    5268:	dd30      	ble.n	52cc <__aeabi_ui2f+0x78>
    526a:	1c02      	adds	r2, r0, #0
    526c:	1c23      	adds	r3, r4, #0
    526e:	3a08      	subs	r2, #8
    5270:	4093      	lsls	r3, r2
    5272:	025b      	lsls	r3, r3, #9
    5274:	0a5b      	lsrs	r3, r3, #9
    5276:	b2c8      	uxtb	r0, r1
    5278:	e020      	b.n	52bc <__aeabi_ui2f+0x68>
    527a:	2999      	cmp	r1, #153	; 0x99
    527c:	dd0c      	ble.n	5298 <__aeabi_ui2f+0x44>
    527e:	2205      	movs	r2, #5
    5280:	1c23      	adds	r3, r4, #0
    5282:	1a12      	subs	r2, r2, r0
    5284:	40d3      	lsrs	r3, r2
    5286:	1c1a      	adds	r2, r3, #0
    5288:	1c03      	adds	r3, r0, #0
    528a:	331b      	adds	r3, #27
    528c:	409c      	lsls	r4, r3
    528e:	1c23      	adds	r3, r4, #0
    5290:	1e5c      	subs	r4, r3, #1
    5292:	41a3      	sbcs	r3, r4
    5294:	4313      	orrs	r3, r2
    5296:	1c1c      	adds	r4, r3, #0
    5298:	2805      	cmp	r0, #5
    529a:	dd01      	ble.n	52a0 <__aeabi_ui2f+0x4c>
    529c:	1f43      	subs	r3, r0, #5
    529e:	409c      	lsls	r4, r3
    52a0:	4b0f      	ldr	r3, [pc, #60]	; (52e0 <__aeabi_ui2f+0x8c>)
    52a2:	4023      	ands	r3, r4
    52a4:	0762      	lsls	r2, r4, #29
    52a6:	d004      	beq.n	52b2 <__aeabi_ui2f+0x5e>
    52a8:	220f      	movs	r2, #15
    52aa:	4014      	ands	r4, r2
    52ac:	2c04      	cmp	r4, #4
    52ae:	d000      	beq.n	52b2 <__aeabi_ui2f+0x5e>
    52b0:	3304      	adds	r3, #4
    52b2:	015a      	lsls	r2, r3, #5
    52b4:	d40e      	bmi.n	52d4 <__aeabi_ui2f+0x80>
    52b6:	019b      	lsls	r3, r3, #6
    52b8:	0a5b      	lsrs	r3, r3, #9
    52ba:	b2c8      	uxtb	r0, r1
    52bc:	025b      	lsls	r3, r3, #9
    52be:	0a5b      	lsrs	r3, r3, #9
    52c0:	05c0      	lsls	r0, r0, #23
    52c2:	4318      	orrs	r0, r3
    52c4:	bd10      	pop	{r4, pc}
    52c6:	2000      	movs	r0, #0
    52c8:	2300      	movs	r3, #0
    52ca:	e7f7      	b.n	52bc <__aeabi_ui2f+0x68>
    52cc:	0263      	lsls	r3, r4, #9
    52ce:	0a5b      	lsrs	r3, r3, #9
    52d0:	b2c8      	uxtb	r0, r1
    52d2:	e7f3      	b.n	52bc <__aeabi_ui2f+0x68>
    52d4:	219f      	movs	r1, #159	; 0x9f
    52d6:	4a02      	ldr	r2, [pc, #8]	; (52e0 <__aeabi_ui2f+0x8c>)
    52d8:	1a09      	subs	r1, r1, r0
    52da:	4013      	ands	r3, r2
    52dc:	e7eb      	b.n	52b6 <__aeabi_ui2f+0x62>
    52de:	46c0      	nop			; (mov r8, r8)
    52e0:	fbffffff 	.word	0xfbffffff

000052e4 <__aeabi_dadd>:
    52e4:	b5f0      	push	{r4, r5, r6, r7, lr}
    52e6:	4645      	mov	r5, r8
    52e8:	4657      	mov	r7, sl
    52ea:	464e      	mov	r6, r9
    52ec:	4694      	mov	ip, r2
    52ee:	004c      	lsls	r4, r1, #1
    52f0:	030a      	lsls	r2, r1, #12
    52f2:	0fc9      	lsrs	r1, r1, #31
    52f4:	b4e0      	push	{r5, r6, r7}
    52f6:	4688      	mov	r8, r1
    52f8:	1c0e      	adds	r6, r1, #0
    52fa:	0319      	lsls	r1, r3, #12
    52fc:	0f47      	lsrs	r7, r0, #29
    52fe:	00c5      	lsls	r5, r0, #3
    5300:	0a48      	lsrs	r0, r1, #9
    5302:	4661      	mov	r1, ip
    5304:	0f49      	lsrs	r1, r1, #29
    5306:	4301      	orrs	r1, r0
    5308:	4660      	mov	r0, ip
    530a:	0a52      	lsrs	r2, r2, #9
    530c:	4317      	orrs	r7, r2
    530e:	00c0      	lsls	r0, r0, #3
    5310:	005a      	lsls	r2, r3, #1
    5312:	0d64      	lsrs	r4, r4, #21
    5314:	0d52      	lsrs	r2, r2, #21
    5316:	0fdb      	lsrs	r3, r3, #31
    5318:	4684      	mov	ip, r0
    531a:	4598      	cmp	r8, r3
    531c:	d100      	bne.n	5320 <__aeabi_dadd+0x3c>
    531e:	e0a7      	b.n	5470 <__aeabi_dadd+0x18c>
    5320:	1aa0      	subs	r0, r4, r2
    5322:	2800      	cmp	r0, #0
    5324:	dc00      	bgt.n	5328 <__aeabi_dadd+0x44>
    5326:	e101      	b.n	552c <__aeabi_dadd+0x248>
    5328:	2a00      	cmp	r2, #0
    532a:	d13d      	bne.n	53a8 <__aeabi_dadd+0xc4>
    532c:	4663      	mov	r3, ip
    532e:	430b      	orrs	r3, r1
    5330:	d000      	beq.n	5334 <__aeabi_dadd+0x50>
    5332:	e0d4      	b.n	54de <__aeabi_dadd+0x1fa>
    5334:	076b      	lsls	r3, r5, #29
    5336:	d100      	bne.n	533a <__aeabi_dadd+0x56>
    5338:	e088      	b.n	544c <__aeabi_dadd+0x168>
    533a:	230f      	movs	r3, #15
    533c:	402b      	ands	r3, r5
    533e:	2b04      	cmp	r3, #4
    5340:	d100      	bne.n	5344 <__aeabi_dadd+0x60>
    5342:	e083      	b.n	544c <__aeabi_dadd+0x168>
    5344:	1d2a      	adds	r2, r5, #4
    5346:	42aa      	cmp	r2, r5
    5348:	41ad      	sbcs	r5, r5
    534a:	2380      	movs	r3, #128	; 0x80
    534c:	426d      	negs	r5, r5
    534e:	197f      	adds	r7, r7, r5
    5350:	041b      	lsls	r3, r3, #16
    5352:	403b      	ands	r3, r7
    5354:	4646      	mov	r6, r8
    5356:	1c15      	adds	r5, r2, #0
    5358:	2b00      	cmp	r3, #0
    535a:	d100      	bne.n	535e <__aeabi_dadd+0x7a>
    535c:	e07c      	b.n	5458 <__aeabi_dadd+0x174>
    535e:	4bcc      	ldr	r3, [pc, #816]	; (5690 <__aeabi_dadd+0x3ac>)
    5360:	3401      	adds	r4, #1
    5362:	429c      	cmp	r4, r3
    5364:	d100      	bne.n	5368 <__aeabi_dadd+0x84>
    5366:	e0fd      	b.n	5564 <__aeabi_dadd+0x280>
    5368:	1c3a      	adds	r2, r7, #0
    536a:	4bca      	ldr	r3, [pc, #808]	; (5694 <__aeabi_dadd+0x3b0>)
    536c:	08ed      	lsrs	r5, r5, #3
    536e:	401a      	ands	r2, r3
    5370:	0750      	lsls	r0, r2, #29
    5372:	0564      	lsls	r4, r4, #21
    5374:	0252      	lsls	r2, r2, #9
    5376:	4305      	orrs	r5, r0
    5378:	0b12      	lsrs	r2, r2, #12
    537a:	0d64      	lsrs	r4, r4, #21
    537c:	2100      	movs	r1, #0
    537e:	0312      	lsls	r2, r2, #12
    5380:	0d0b      	lsrs	r3, r1, #20
    5382:	051b      	lsls	r3, r3, #20
    5384:	0564      	lsls	r4, r4, #21
    5386:	0b12      	lsrs	r2, r2, #12
    5388:	431a      	orrs	r2, r3
    538a:	0863      	lsrs	r3, r4, #1
    538c:	4cc2      	ldr	r4, [pc, #776]	; (5698 <__aeabi_dadd+0x3b4>)
    538e:	07f6      	lsls	r6, r6, #31
    5390:	4014      	ands	r4, r2
    5392:	431c      	orrs	r4, r3
    5394:	0064      	lsls	r4, r4, #1
    5396:	0864      	lsrs	r4, r4, #1
    5398:	4334      	orrs	r4, r6
    539a:	1c28      	adds	r0, r5, #0
    539c:	1c21      	adds	r1, r4, #0
    539e:	bc1c      	pop	{r2, r3, r4}
    53a0:	4690      	mov	r8, r2
    53a2:	4699      	mov	r9, r3
    53a4:	46a2      	mov	sl, r4
    53a6:	bdf0      	pop	{r4, r5, r6, r7, pc}
    53a8:	4bb9      	ldr	r3, [pc, #740]	; (5690 <__aeabi_dadd+0x3ac>)
    53aa:	429c      	cmp	r4, r3
    53ac:	d0c2      	beq.n	5334 <__aeabi_dadd+0x50>
    53ae:	2380      	movs	r3, #128	; 0x80
    53b0:	041b      	lsls	r3, r3, #16
    53b2:	4319      	orrs	r1, r3
    53b4:	2838      	cmp	r0, #56	; 0x38
    53b6:	dd00      	ble.n	53ba <__aeabi_dadd+0xd6>
    53b8:	e0ec      	b.n	5594 <__aeabi_dadd+0x2b0>
    53ba:	281f      	cmp	r0, #31
    53bc:	dd00      	ble.n	53c0 <__aeabi_dadd+0xdc>
    53be:	e121      	b.n	5604 <__aeabi_dadd+0x320>
    53c0:	2220      	movs	r2, #32
    53c2:	1c0e      	adds	r6, r1, #0
    53c4:	4663      	mov	r3, ip
    53c6:	1a12      	subs	r2, r2, r0
    53c8:	4096      	lsls	r6, r2
    53ca:	40c3      	lsrs	r3, r0
    53cc:	4333      	orrs	r3, r6
    53ce:	4666      	mov	r6, ip
    53d0:	4096      	lsls	r6, r2
    53d2:	1c32      	adds	r2, r6, #0
    53d4:	1e56      	subs	r6, r2, #1
    53d6:	41b2      	sbcs	r2, r6
    53d8:	4313      	orrs	r3, r2
    53da:	1c0a      	adds	r2, r1, #0
    53dc:	40c2      	lsrs	r2, r0
    53de:	1aeb      	subs	r3, r5, r3
    53e0:	429d      	cmp	r5, r3
    53e2:	41b6      	sbcs	r6, r6
    53e4:	1c1d      	adds	r5, r3, #0
    53e6:	1aba      	subs	r2, r7, r2
    53e8:	4276      	negs	r6, r6
    53ea:	1b97      	subs	r7, r2, r6
    53ec:	023b      	lsls	r3, r7, #8
    53ee:	d400      	bmi.n	53f2 <__aeabi_dadd+0x10e>
    53f0:	e097      	b.n	5522 <__aeabi_dadd+0x23e>
    53f2:	027a      	lsls	r2, r7, #9
    53f4:	0a56      	lsrs	r6, r2, #9
    53f6:	2e00      	cmp	r6, #0
    53f8:	d100      	bne.n	53fc <__aeabi_dadd+0x118>
    53fa:	e0b6      	b.n	556a <__aeabi_dadd+0x286>
    53fc:	1c30      	adds	r0, r6, #0
    53fe:	f001 fe59 	bl	70b4 <__clzsi2>
    5402:	1c03      	adds	r3, r0, #0
    5404:	3b08      	subs	r3, #8
    5406:	2b1f      	cmp	r3, #31
    5408:	dd00      	ble.n	540c <__aeabi_dadd+0x128>
    540a:	e0b7      	b.n	557c <__aeabi_dadd+0x298>
    540c:	409e      	lsls	r6, r3
    540e:	1c37      	adds	r7, r6, #0
    5410:	2628      	movs	r6, #40	; 0x28
    5412:	1c2a      	adds	r2, r5, #0
    5414:	1a36      	subs	r6, r6, r0
    5416:	40f2      	lsrs	r2, r6
    5418:	1c16      	adds	r6, r2, #0
    541a:	409d      	lsls	r5, r3
    541c:	433e      	orrs	r6, r7
    541e:	429c      	cmp	r4, r3
    5420:	dd00      	ble.n	5424 <__aeabi_dadd+0x140>
    5422:	e0b2      	b.n	558a <__aeabi_dadd+0x2a6>
    5424:	1b1c      	subs	r4, r3, r4
    5426:	1c62      	adds	r2, r4, #1
    5428:	2a1f      	cmp	r2, #31
    542a:	dd00      	ble.n	542e <__aeabi_dadd+0x14a>
    542c:	e0d8      	b.n	55e0 <__aeabi_dadd+0x2fc>
    542e:	231f      	movs	r3, #31
    5430:	1c29      	adds	r1, r5, #0
    5432:	1b1c      	subs	r4, r3, r4
    5434:	1c33      	adds	r3, r6, #0
    5436:	40a5      	lsls	r5, r4
    5438:	40a3      	lsls	r3, r4
    543a:	40d1      	lsrs	r1, r2
    543c:	1e6c      	subs	r4, r5, #1
    543e:	41a5      	sbcs	r5, r4
    5440:	40d6      	lsrs	r6, r2
    5442:	4319      	orrs	r1, r3
    5444:	430d      	orrs	r5, r1
    5446:	1c37      	adds	r7, r6, #0
    5448:	2400      	movs	r4, #0
    544a:	e773      	b.n	5334 <__aeabi_dadd+0x50>
    544c:	2380      	movs	r3, #128	; 0x80
    544e:	041b      	lsls	r3, r3, #16
    5450:	403b      	ands	r3, r7
    5452:	4646      	mov	r6, r8
    5454:	d000      	beq.n	5458 <__aeabi_dadd+0x174>
    5456:	e782      	b.n	535e <__aeabi_dadd+0x7a>
    5458:	4b8d      	ldr	r3, [pc, #564]	; (5690 <__aeabi_dadd+0x3ac>)
    545a:	08ed      	lsrs	r5, r5, #3
    545c:	0778      	lsls	r0, r7, #29
    545e:	4305      	orrs	r5, r0
    5460:	08fa      	lsrs	r2, r7, #3
    5462:	429c      	cmp	r4, r3
    5464:	d032      	beq.n	54cc <__aeabi_dadd+0x1e8>
    5466:	0312      	lsls	r2, r2, #12
    5468:	0564      	lsls	r4, r4, #21
    546a:	0b12      	lsrs	r2, r2, #12
    546c:	0d64      	lsrs	r4, r4, #21
    546e:	e785      	b.n	537c <__aeabi_dadd+0x98>
    5470:	1aa3      	subs	r3, r4, r2
    5472:	2b00      	cmp	r3, #0
    5474:	dc00      	bgt.n	5478 <__aeabi_dadd+0x194>
    5476:	e094      	b.n	55a2 <__aeabi_dadd+0x2be>
    5478:	2a00      	cmp	r2, #0
    547a:	d03c      	beq.n	54f6 <__aeabi_dadd+0x212>
    547c:	4a84      	ldr	r2, [pc, #528]	; (5690 <__aeabi_dadd+0x3ac>)
    547e:	4294      	cmp	r4, r2
    5480:	d100      	bne.n	5484 <__aeabi_dadd+0x1a0>
    5482:	e757      	b.n	5334 <__aeabi_dadd+0x50>
    5484:	2280      	movs	r2, #128	; 0x80
    5486:	0412      	lsls	r2, r2, #16
    5488:	4311      	orrs	r1, r2
    548a:	2b38      	cmp	r3, #56	; 0x38
    548c:	dc00      	bgt.n	5490 <__aeabi_dadd+0x1ac>
    548e:	e105      	b.n	569c <__aeabi_dadd+0x3b8>
    5490:	4663      	mov	r3, ip
    5492:	4319      	orrs	r1, r3
    5494:	1e48      	subs	r0, r1, #1
    5496:	4181      	sbcs	r1, r0
    5498:	2200      	movs	r2, #0
    549a:	b2c8      	uxtb	r0, r1
    549c:	1940      	adds	r0, r0, r5
    549e:	42a8      	cmp	r0, r5
    54a0:	419b      	sbcs	r3, r3
    54a2:	1c05      	adds	r5, r0, #0
    54a4:	19d2      	adds	r2, r2, r7
    54a6:	425b      	negs	r3, r3
    54a8:	18d7      	adds	r7, r2, r3
    54aa:	023b      	lsls	r3, r7, #8
    54ac:	d539      	bpl.n	5522 <__aeabi_dadd+0x23e>
    54ae:	4b78      	ldr	r3, [pc, #480]	; (5690 <__aeabi_dadd+0x3ac>)
    54b0:	3401      	adds	r4, #1
    54b2:	429c      	cmp	r4, r3
    54b4:	d100      	bne.n	54b8 <__aeabi_dadd+0x1d4>
    54b6:	e14c      	b.n	5752 <__aeabi_dadd+0x46e>
    54b8:	2001      	movs	r0, #1
    54ba:	4a76      	ldr	r2, [pc, #472]	; (5694 <__aeabi_dadd+0x3b0>)
    54bc:	086b      	lsrs	r3, r5, #1
    54be:	403a      	ands	r2, r7
    54c0:	4028      	ands	r0, r5
    54c2:	4318      	orrs	r0, r3
    54c4:	07d5      	lsls	r5, r2, #31
    54c6:	4305      	orrs	r5, r0
    54c8:	0857      	lsrs	r7, r2, #1
    54ca:	e733      	b.n	5334 <__aeabi_dadd+0x50>
    54cc:	1c2b      	adds	r3, r5, #0
    54ce:	4313      	orrs	r3, r2
    54d0:	d048      	beq.n	5564 <__aeabi_dadd+0x280>
    54d2:	2380      	movs	r3, #128	; 0x80
    54d4:	031b      	lsls	r3, r3, #12
    54d6:	431a      	orrs	r2, r3
    54d8:	0312      	lsls	r2, r2, #12
    54da:	0b12      	lsrs	r2, r2, #12
    54dc:	e74e      	b.n	537c <__aeabi_dadd+0x98>
    54de:	3801      	subs	r0, #1
    54e0:	2800      	cmp	r0, #0
    54e2:	d178      	bne.n	55d6 <__aeabi_dadd+0x2f2>
    54e4:	4663      	mov	r3, ip
    54e6:	1aee      	subs	r6, r5, r3
    54e8:	42b5      	cmp	r5, r6
    54ea:	419b      	sbcs	r3, r3
    54ec:	1a7a      	subs	r2, r7, r1
    54ee:	425b      	negs	r3, r3
    54f0:	1ad7      	subs	r7, r2, r3
    54f2:	1c35      	adds	r5, r6, #0
    54f4:	e77a      	b.n	53ec <__aeabi_dadd+0x108>
    54f6:	1c02      	adds	r2, r0, #0
    54f8:	430a      	orrs	r2, r1
    54fa:	d100      	bne.n	54fe <__aeabi_dadd+0x21a>
    54fc:	e71a      	b.n	5334 <__aeabi_dadd+0x50>
    54fe:	3b01      	subs	r3, #1
    5500:	2b00      	cmp	r3, #0
    5502:	d000      	beq.n	5506 <__aeabi_dadd+0x222>
    5504:	e0f2      	b.n	56ec <__aeabi_dadd+0x408>
    5506:	1940      	adds	r0, r0, r5
    5508:	42a8      	cmp	r0, r5
    550a:	419b      	sbcs	r3, r3
    550c:	19ca      	adds	r2, r1, r7
    550e:	425b      	negs	r3, r3
    5510:	18d7      	adds	r7, r2, r3
    5512:	1c05      	adds	r5, r0, #0
    5514:	e7c9      	b.n	54aa <__aeabi_dadd+0x1c6>
    5516:	1c13      	adds	r3, r2, #0
    5518:	4333      	orrs	r3, r6
    551a:	d100      	bne.n	551e <__aeabi_dadd+0x23a>
    551c:	e118      	b.n	5750 <__aeabi_dadd+0x46c>
    551e:	1c17      	adds	r7, r2, #0
    5520:	1c35      	adds	r5, r6, #0
    5522:	4646      	mov	r6, r8
    5524:	076b      	lsls	r3, r5, #29
    5526:	d000      	beq.n	552a <__aeabi_dadd+0x246>
    5528:	e707      	b.n	533a <__aeabi_dadd+0x56>
    552a:	e795      	b.n	5458 <__aeabi_dadd+0x174>
    552c:	2800      	cmp	r0, #0
    552e:	d17a      	bne.n	5626 <__aeabi_dadd+0x342>
    5530:	1c62      	adds	r2, r4, #1
    5532:	0552      	lsls	r2, r2, #21
    5534:	0d52      	lsrs	r2, r2, #21
    5536:	2a01      	cmp	r2, #1
    5538:	dc00      	bgt.n	553c <__aeabi_dadd+0x258>
    553a:	e0fb      	b.n	5734 <__aeabi_dadd+0x450>
    553c:	4662      	mov	r2, ip
    553e:	1aaa      	subs	r2, r5, r2
    5540:	4295      	cmp	r5, r2
    5542:	41b6      	sbcs	r6, r6
    5544:	4691      	mov	r9, r2
    5546:	1a78      	subs	r0, r7, r1
    5548:	4272      	negs	r2, r6
    554a:	1a86      	subs	r6, r0, r2
    554c:	0232      	lsls	r2, r6, #8
    554e:	d400      	bmi.n	5552 <__aeabi_dadd+0x26e>
    5550:	e093      	b.n	567a <__aeabi_dadd+0x396>
    5552:	4662      	mov	r2, ip
    5554:	1b55      	subs	r5, r2, r5
    5556:	45ac      	cmp	ip, r5
    5558:	4180      	sbcs	r0, r0
    555a:	1bcf      	subs	r7, r1, r7
    555c:	4240      	negs	r0, r0
    555e:	1a3e      	subs	r6, r7, r0
    5560:	4698      	mov	r8, r3
    5562:	e748      	b.n	53f6 <__aeabi_dadd+0x112>
    5564:	2200      	movs	r2, #0
    5566:	2500      	movs	r5, #0
    5568:	e708      	b.n	537c <__aeabi_dadd+0x98>
    556a:	1c28      	adds	r0, r5, #0
    556c:	f001 fda2 	bl	70b4 <__clzsi2>
    5570:	3020      	adds	r0, #32
    5572:	1c03      	adds	r3, r0, #0
    5574:	3b08      	subs	r3, #8
    5576:	2b1f      	cmp	r3, #31
    5578:	dc00      	bgt.n	557c <__aeabi_dadd+0x298>
    557a:	e747      	b.n	540c <__aeabi_dadd+0x128>
    557c:	3828      	subs	r0, #40	; 0x28
    557e:	4085      	lsls	r5, r0
    5580:	1c2e      	adds	r6, r5, #0
    5582:	2500      	movs	r5, #0
    5584:	429c      	cmp	r4, r3
    5586:	dc00      	bgt.n	558a <__aeabi_dadd+0x2a6>
    5588:	e74c      	b.n	5424 <__aeabi_dadd+0x140>
    558a:	4a42      	ldr	r2, [pc, #264]	; (5694 <__aeabi_dadd+0x3b0>)
    558c:	1ae4      	subs	r4, r4, r3
    558e:	4016      	ands	r6, r2
    5590:	1c37      	adds	r7, r6, #0
    5592:	e6cf      	b.n	5334 <__aeabi_dadd+0x50>
    5594:	4663      	mov	r3, ip
    5596:	4319      	orrs	r1, r3
    5598:	1e4b      	subs	r3, r1, #1
    559a:	4199      	sbcs	r1, r3
    559c:	2200      	movs	r2, #0
    559e:	b2cb      	uxtb	r3, r1
    55a0:	e71d      	b.n	53de <__aeabi_dadd+0xfa>
    55a2:	2b00      	cmp	r3, #0
    55a4:	d000      	beq.n	55a8 <__aeabi_dadd+0x2c4>
    55a6:	e0f2      	b.n	578e <__aeabi_dadd+0x4aa>
    55a8:	1c60      	adds	r0, r4, #1
    55aa:	0543      	lsls	r3, r0, #21
    55ac:	0d5b      	lsrs	r3, r3, #21
    55ae:	2b01      	cmp	r3, #1
    55b0:	dc00      	bgt.n	55b4 <__aeabi_dadd+0x2d0>
    55b2:	e0a4      	b.n	56fe <__aeabi_dadd+0x41a>
    55b4:	4b36      	ldr	r3, [pc, #216]	; (5690 <__aeabi_dadd+0x3ac>)
    55b6:	4298      	cmp	r0, r3
    55b8:	d100      	bne.n	55bc <__aeabi_dadd+0x2d8>
    55ba:	e121      	b.n	5800 <__aeabi_dadd+0x51c>
    55bc:	4663      	mov	r3, ip
    55be:	195c      	adds	r4, r3, r5
    55c0:	42ac      	cmp	r4, r5
    55c2:	419b      	sbcs	r3, r3
    55c4:	19cf      	adds	r7, r1, r7
    55c6:	425b      	negs	r3, r3
    55c8:	18fa      	adds	r2, r7, r3
    55ca:	0864      	lsrs	r4, r4, #1
    55cc:	07d5      	lsls	r5, r2, #31
    55ce:	4325      	orrs	r5, r4
    55d0:	0857      	lsrs	r7, r2, #1
    55d2:	1c04      	adds	r4, r0, #0
    55d4:	e6ae      	b.n	5334 <__aeabi_dadd+0x50>
    55d6:	4b2e      	ldr	r3, [pc, #184]	; (5690 <__aeabi_dadd+0x3ac>)
    55d8:	429c      	cmp	r4, r3
    55da:	d000      	beq.n	55de <__aeabi_dadd+0x2fa>
    55dc:	e6ea      	b.n	53b4 <__aeabi_dadd+0xd0>
    55de:	e6a9      	b.n	5334 <__aeabi_dadd+0x50>
    55e0:	1c21      	adds	r1, r4, #0
    55e2:	1c33      	adds	r3, r6, #0
    55e4:	391f      	subs	r1, #31
    55e6:	40cb      	lsrs	r3, r1
    55e8:	1c19      	adds	r1, r3, #0
    55ea:	2a20      	cmp	r2, #32
    55ec:	d100      	bne.n	55f0 <__aeabi_dadd+0x30c>
    55ee:	e082      	b.n	56f6 <__aeabi_dadd+0x412>
    55f0:	233f      	movs	r3, #63	; 0x3f
    55f2:	1b1c      	subs	r4, r3, r4
    55f4:	40a6      	lsls	r6, r4
    55f6:	4335      	orrs	r5, r6
    55f8:	1e6e      	subs	r6, r5, #1
    55fa:	41b5      	sbcs	r5, r6
    55fc:	2700      	movs	r7, #0
    55fe:	430d      	orrs	r5, r1
    5600:	2400      	movs	r4, #0
    5602:	e78e      	b.n	5522 <__aeabi_dadd+0x23e>
    5604:	1c03      	adds	r3, r0, #0
    5606:	1c0e      	adds	r6, r1, #0
    5608:	3b20      	subs	r3, #32
    560a:	40de      	lsrs	r6, r3
    560c:	2820      	cmp	r0, #32
    560e:	d074      	beq.n	56fa <__aeabi_dadd+0x416>
    5610:	2340      	movs	r3, #64	; 0x40
    5612:	1a1b      	subs	r3, r3, r0
    5614:	4099      	lsls	r1, r3
    5616:	1c0b      	adds	r3, r1, #0
    5618:	4662      	mov	r2, ip
    561a:	4313      	orrs	r3, r2
    561c:	1e59      	subs	r1, r3, #1
    561e:	418b      	sbcs	r3, r1
    5620:	2200      	movs	r2, #0
    5622:	4333      	orrs	r3, r6
    5624:	e6db      	b.n	53de <__aeabi_dadd+0xfa>
    5626:	2c00      	cmp	r4, #0
    5628:	d050      	beq.n	56cc <__aeabi_dadd+0x3e8>
    562a:	4c19      	ldr	r4, [pc, #100]	; (5690 <__aeabi_dadd+0x3ac>)
    562c:	42a2      	cmp	r2, r4
    562e:	d100      	bne.n	5632 <__aeabi_dadd+0x34e>
    5630:	e0a8      	b.n	5784 <__aeabi_dadd+0x4a0>
    5632:	2480      	movs	r4, #128	; 0x80
    5634:	0424      	lsls	r4, r4, #16
    5636:	4240      	negs	r0, r0
    5638:	4327      	orrs	r7, r4
    563a:	2838      	cmp	r0, #56	; 0x38
    563c:	dd00      	ble.n	5640 <__aeabi_dadd+0x35c>
    563e:	e0d9      	b.n	57f4 <__aeabi_dadd+0x510>
    5640:	281f      	cmp	r0, #31
    5642:	dd00      	ble.n	5646 <__aeabi_dadd+0x362>
    5644:	e139      	b.n	58ba <__aeabi_dadd+0x5d6>
    5646:	2420      	movs	r4, #32
    5648:	1c3e      	adds	r6, r7, #0
    564a:	1a24      	subs	r4, r4, r0
    564c:	40a6      	lsls	r6, r4
    564e:	46b0      	mov	r8, r6
    5650:	1c2e      	adds	r6, r5, #0
    5652:	46a1      	mov	r9, r4
    5654:	40c6      	lsrs	r6, r0
    5656:	4644      	mov	r4, r8
    5658:	4326      	orrs	r6, r4
    565a:	464c      	mov	r4, r9
    565c:	40a5      	lsls	r5, r4
    565e:	1e6c      	subs	r4, r5, #1
    5660:	41a5      	sbcs	r5, r4
    5662:	40c7      	lsrs	r7, r0
    5664:	4335      	orrs	r5, r6
    5666:	4660      	mov	r0, ip
    5668:	1b45      	subs	r5, r0, r5
    566a:	1bcf      	subs	r7, r1, r7
    566c:	45ac      	cmp	ip, r5
    566e:	4189      	sbcs	r1, r1
    5670:	4249      	negs	r1, r1
    5672:	1a7f      	subs	r7, r7, r1
    5674:	1c14      	adds	r4, r2, #0
    5676:	4698      	mov	r8, r3
    5678:	e6b8      	b.n	53ec <__aeabi_dadd+0x108>
    567a:	464b      	mov	r3, r9
    567c:	464d      	mov	r5, r9
    567e:	4333      	orrs	r3, r6
    5680:	d000      	beq.n	5684 <__aeabi_dadd+0x3a0>
    5682:	e6b8      	b.n	53f6 <__aeabi_dadd+0x112>
    5684:	2600      	movs	r6, #0
    5686:	2700      	movs	r7, #0
    5688:	2400      	movs	r4, #0
    568a:	2500      	movs	r5, #0
    568c:	e6e4      	b.n	5458 <__aeabi_dadd+0x174>
    568e:	46c0      	nop			; (mov r8, r8)
    5690:	000007ff 	.word	0x000007ff
    5694:	ff7fffff 	.word	0xff7fffff
    5698:	800fffff 	.word	0x800fffff
    569c:	2b1f      	cmp	r3, #31
    569e:	dc5b      	bgt.n	5758 <__aeabi_dadd+0x474>
    56a0:	2220      	movs	r2, #32
    56a2:	1c08      	adds	r0, r1, #0
    56a4:	1ad2      	subs	r2, r2, r3
    56a6:	4090      	lsls	r0, r2
    56a8:	4681      	mov	r9, r0
    56aa:	4660      	mov	r0, ip
    56ac:	4692      	mov	sl, r2
    56ae:	40d8      	lsrs	r0, r3
    56b0:	464a      	mov	r2, r9
    56b2:	4310      	orrs	r0, r2
    56b4:	4681      	mov	r9, r0
    56b6:	4652      	mov	r2, sl
    56b8:	4660      	mov	r0, ip
    56ba:	4090      	lsls	r0, r2
    56bc:	1c02      	adds	r2, r0, #0
    56be:	1e50      	subs	r0, r2, #1
    56c0:	4182      	sbcs	r2, r0
    56c2:	4648      	mov	r0, r9
    56c4:	4310      	orrs	r0, r2
    56c6:	1c0a      	adds	r2, r1, #0
    56c8:	40da      	lsrs	r2, r3
    56ca:	e6e7      	b.n	549c <__aeabi_dadd+0x1b8>
    56cc:	1c3c      	adds	r4, r7, #0
    56ce:	432c      	orrs	r4, r5
    56d0:	d058      	beq.n	5784 <__aeabi_dadd+0x4a0>
    56d2:	43c0      	mvns	r0, r0
    56d4:	2800      	cmp	r0, #0
    56d6:	d151      	bne.n	577c <__aeabi_dadd+0x498>
    56d8:	4660      	mov	r0, ip
    56da:	1b45      	subs	r5, r0, r5
    56dc:	45ac      	cmp	ip, r5
    56de:	4180      	sbcs	r0, r0
    56e0:	1bcf      	subs	r7, r1, r7
    56e2:	4240      	negs	r0, r0
    56e4:	1a3f      	subs	r7, r7, r0
    56e6:	1c14      	adds	r4, r2, #0
    56e8:	4698      	mov	r8, r3
    56ea:	e67f      	b.n	53ec <__aeabi_dadd+0x108>
    56ec:	4a8f      	ldr	r2, [pc, #572]	; (592c <__aeabi_dadd+0x648>)
    56ee:	4294      	cmp	r4, r2
    56f0:	d000      	beq.n	56f4 <__aeabi_dadd+0x410>
    56f2:	e6ca      	b.n	548a <__aeabi_dadd+0x1a6>
    56f4:	e61e      	b.n	5334 <__aeabi_dadd+0x50>
    56f6:	2600      	movs	r6, #0
    56f8:	e77d      	b.n	55f6 <__aeabi_dadd+0x312>
    56fa:	2300      	movs	r3, #0
    56fc:	e78c      	b.n	5618 <__aeabi_dadd+0x334>
    56fe:	1c3b      	adds	r3, r7, #0
    5700:	432b      	orrs	r3, r5
    5702:	2c00      	cmp	r4, #0
    5704:	d000      	beq.n	5708 <__aeabi_dadd+0x424>
    5706:	e0bd      	b.n	5884 <__aeabi_dadd+0x5a0>
    5708:	2b00      	cmp	r3, #0
    570a:	d100      	bne.n	570e <__aeabi_dadd+0x42a>
    570c:	e0f5      	b.n	58fa <__aeabi_dadd+0x616>
    570e:	4663      	mov	r3, ip
    5710:	430b      	orrs	r3, r1
    5712:	d100      	bne.n	5716 <__aeabi_dadd+0x432>
    5714:	e60e      	b.n	5334 <__aeabi_dadd+0x50>
    5716:	4663      	mov	r3, ip
    5718:	195b      	adds	r3, r3, r5
    571a:	42ab      	cmp	r3, r5
    571c:	4180      	sbcs	r0, r0
    571e:	19ca      	adds	r2, r1, r7
    5720:	4240      	negs	r0, r0
    5722:	1817      	adds	r7, r2, r0
    5724:	023a      	lsls	r2, r7, #8
    5726:	d400      	bmi.n	572a <__aeabi_dadd+0x446>
    5728:	e0fc      	b.n	5924 <__aeabi_dadd+0x640>
    572a:	4a81      	ldr	r2, [pc, #516]	; (5930 <__aeabi_dadd+0x64c>)
    572c:	1c1d      	adds	r5, r3, #0
    572e:	4017      	ands	r7, r2
    5730:	3401      	adds	r4, #1
    5732:	e5ff      	b.n	5334 <__aeabi_dadd+0x50>
    5734:	1c3a      	adds	r2, r7, #0
    5736:	432a      	orrs	r2, r5
    5738:	2c00      	cmp	r4, #0
    573a:	d151      	bne.n	57e0 <__aeabi_dadd+0x4fc>
    573c:	2a00      	cmp	r2, #0
    573e:	d000      	beq.n	5742 <__aeabi_dadd+0x45e>
    5740:	e085      	b.n	584e <__aeabi_dadd+0x56a>
    5742:	4662      	mov	r2, ip
    5744:	430a      	orrs	r2, r1
    5746:	d003      	beq.n	5750 <__aeabi_dadd+0x46c>
    5748:	1c0f      	adds	r7, r1, #0
    574a:	4665      	mov	r5, ip
    574c:	4698      	mov	r8, r3
    574e:	e5f1      	b.n	5334 <__aeabi_dadd+0x50>
    5750:	2600      	movs	r6, #0
    5752:	2700      	movs	r7, #0
    5754:	2500      	movs	r5, #0
    5756:	e67f      	b.n	5458 <__aeabi_dadd+0x174>
    5758:	1c18      	adds	r0, r3, #0
    575a:	1c0a      	adds	r2, r1, #0
    575c:	3820      	subs	r0, #32
    575e:	40c2      	lsrs	r2, r0
    5760:	2b20      	cmp	r3, #32
    5762:	d100      	bne.n	5766 <__aeabi_dadd+0x482>
    5764:	e0a7      	b.n	58b6 <__aeabi_dadd+0x5d2>
    5766:	2040      	movs	r0, #64	; 0x40
    5768:	1ac0      	subs	r0, r0, r3
    576a:	4081      	lsls	r1, r0
    576c:	1c08      	adds	r0, r1, #0
    576e:	4663      	mov	r3, ip
    5770:	4318      	orrs	r0, r3
    5772:	1e41      	subs	r1, r0, #1
    5774:	4188      	sbcs	r0, r1
    5776:	4310      	orrs	r0, r2
    5778:	2200      	movs	r2, #0
    577a:	e68f      	b.n	549c <__aeabi_dadd+0x1b8>
    577c:	4c6b      	ldr	r4, [pc, #428]	; (592c <__aeabi_dadd+0x648>)
    577e:	42a2      	cmp	r2, r4
    5780:	d000      	beq.n	5784 <__aeabi_dadd+0x4a0>
    5782:	e75a      	b.n	563a <__aeabi_dadd+0x356>
    5784:	1c0f      	adds	r7, r1, #0
    5786:	4665      	mov	r5, ip
    5788:	1c14      	adds	r4, r2, #0
    578a:	4698      	mov	r8, r3
    578c:	e5d2      	b.n	5334 <__aeabi_dadd+0x50>
    578e:	2c00      	cmp	r4, #0
    5790:	d13a      	bne.n	5808 <__aeabi_dadd+0x524>
    5792:	1c38      	adds	r0, r7, #0
    5794:	4328      	orrs	r0, r5
    5796:	d071      	beq.n	587c <__aeabi_dadd+0x598>
    5798:	43db      	mvns	r3, r3
    579a:	2b00      	cmp	r3, #0
    579c:	d018      	beq.n	57d0 <__aeabi_dadd+0x4ec>
    579e:	4863      	ldr	r0, [pc, #396]	; (592c <__aeabi_dadd+0x648>)
    57a0:	4282      	cmp	r2, r0
    57a2:	d06b      	beq.n	587c <__aeabi_dadd+0x598>
    57a4:	2b38      	cmp	r3, #56	; 0x38
    57a6:	dd00      	ble.n	57aa <__aeabi_dadd+0x4c6>
    57a8:	e09d      	b.n	58e6 <__aeabi_dadd+0x602>
    57aa:	2b1f      	cmp	r3, #31
    57ac:	dd00      	ble.n	57b0 <__aeabi_dadd+0x4cc>
    57ae:	e0a7      	b.n	5900 <__aeabi_dadd+0x61c>
    57b0:	2020      	movs	r0, #32
    57b2:	1c3c      	adds	r4, r7, #0
    57b4:	1ac0      	subs	r0, r0, r3
    57b6:	4084      	lsls	r4, r0
    57b8:	46a1      	mov	r9, r4
    57ba:	1c2c      	adds	r4, r5, #0
    57bc:	4682      	mov	sl, r0
    57be:	40dc      	lsrs	r4, r3
    57c0:	4648      	mov	r0, r9
    57c2:	4304      	orrs	r4, r0
    57c4:	4650      	mov	r0, sl
    57c6:	4085      	lsls	r5, r0
    57c8:	1e68      	subs	r0, r5, #1
    57ca:	4185      	sbcs	r5, r0
    57cc:	40df      	lsrs	r7, r3
    57ce:	4325      	orrs	r5, r4
    57d0:	4465      	add	r5, ip
    57d2:	4565      	cmp	r5, ip
    57d4:	419b      	sbcs	r3, r3
    57d6:	187f      	adds	r7, r7, r1
    57d8:	425b      	negs	r3, r3
    57da:	18ff      	adds	r7, r7, r3
    57dc:	1c14      	adds	r4, r2, #0
    57de:	e664      	b.n	54aa <__aeabi_dadd+0x1c6>
    57e0:	2a00      	cmp	r2, #0
    57e2:	d119      	bne.n	5818 <__aeabi_dadd+0x534>
    57e4:	4662      	mov	r2, ip
    57e6:	430a      	orrs	r2, r1
    57e8:	d077      	beq.n	58da <__aeabi_dadd+0x5f6>
    57ea:	1c0f      	adds	r7, r1, #0
    57ec:	4665      	mov	r5, ip
    57ee:	4698      	mov	r8, r3
    57f0:	4c4e      	ldr	r4, [pc, #312]	; (592c <__aeabi_dadd+0x648>)
    57f2:	e59f      	b.n	5334 <__aeabi_dadd+0x50>
    57f4:	433d      	orrs	r5, r7
    57f6:	1e6f      	subs	r7, r5, #1
    57f8:	41bd      	sbcs	r5, r7
    57fa:	2700      	movs	r7, #0
    57fc:	b2ed      	uxtb	r5, r5
    57fe:	e732      	b.n	5666 <__aeabi_dadd+0x382>
    5800:	1c04      	adds	r4, r0, #0
    5802:	2700      	movs	r7, #0
    5804:	2500      	movs	r5, #0
    5806:	e627      	b.n	5458 <__aeabi_dadd+0x174>
    5808:	4848      	ldr	r0, [pc, #288]	; (592c <__aeabi_dadd+0x648>)
    580a:	4282      	cmp	r2, r0
    580c:	d036      	beq.n	587c <__aeabi_dadd+0x598>
    580e:	2080      	movs	r0, #128	; 0x80
    5810:	0400      	lsls	r0, r0, #16
    5812:	425b      	negs	r3, r3
    5814:	4307      	orrs	r7, r0
    5816:	e7c5      	b.n	57a4 <__aeabi_dadd+0x4c0>
    5818:	4662      	mov	r2, ip
    581a:	430a      	orrs	r2, r1
    581c:	d049      	beq.n	58b2 <__aeabi_dadd+0x5ce>
    581e:	2480      	movs	r4, #128	; 0x80
    5820:	08ed      	lsrs	r5, r5, #3
    5822:	0778      	lsls	r0, r7, #29
    5824:	08fa      	lsrs	r2, r7, #3
    5826:	0324      	lsls	r4, r4, #12
    5828:	4328      	orrs	r0, r5
    582a:	4222      	tst	r2, r4
    582c:	d009      	beq.n	5842 <__aeabi_dadd+0x55e>
    582e:	08ce      	lsrs	r6, r1, #3
    5830:	4226      	tst	r6, r4
    5832:	d106      	bne.n	5842 <__aeabi_dadd+0x55e>
    5834:	4662      	mov	r2, ip
    5836:	074f      	lsls	r7, r1, #29
    5838:	1c38      	adds	r0, r7, #0
    583a:	08d2      	lsrs	r2, r2, #3
    583c:	4310      	orrs	r0, r2
    583e:	4698      	mov	r8, r3
    5840:	1c32      	adds	r2, r6, #0
    5842:	00d2      	lsls	r2, r2, #3
    5844:	0f47      	lsrs	r7, r0, #29
    5846:	4317      	orrs	r7, r2
    5848:	00c5      	lsls	r5, r0, #3
    584a:	4c38      	ldr	r4, [pc, #224]	; (592c <__aeabi_dadd+0x648>)
    584c:	e572      	b.n	5334 <__aeabi_dadd+0x50>
    584e:	4662      	mov	r2, ip
    5850:	430a      	orrs	r2, r1
    5852:	d100      	bne.n	5856 <__aeabi_dadd+0x572>
    5854:	e56e      	b.n	5334 <__aeabi_dadd+0x50>
    5856:	4662      	mov	r2, ip
    5858:	1aae      	subs	r6, r5, r2
    585a:	42b5      	cmp	r5, r6
    585c:	4192      	sbcs	r2, r2
    585e:	1a78      	subs	r0, r7, r1
    5860:	4252      	negs	r2, r2
    5862:	1a82      	subs	r2, r0, r2
    5864:	0210      	lsls	r0, r2, #8
    5866:	d400      	bmi.n	586a <__aeabi_dadd+0x586>
    5868:	e655      	b.n	5516 <__aeabi_dadd+0x232>
    586a:	4662      	mov	r2, ip
    586c:	1b55      	subs	r5, r2, r5
    586e:	45ac      	cmp	ip, r5
    5870:	4180      	sbcs	r0, r0
    5872:	1bca      	subs	r2, r1, r7
    5874:	4240      	negs	r0, r0
    5876:	1a17      	subs	r7, r2, r0
    5878:	4698      	mov	r8, r3
    587a:	e55b      	b.n	5334 <__aeabi_dadd+0x50>
    587c:	1c0f      	adds	r7, r1, #0
    587e:	4665      	mov	r5, ip
    5880:	1c14      	adds	r4, r2, #0
    5882:	e557      	b.n	5334 <__aeabi_dadd+0x50>
    5884:	2b00      	cmp	r3, #0
    5886:	d034      	beq.n	58f2 <__aeabi_dadd+0x60e>
    5888:	4663      	mov	r3, ip
    588a:	430b      	orrs	r3, r1
    588c:	d011      	beq.n	58b2 <__aeabi_dadd+0x5ce>
    588e:	2480      	movs	r4, #128	; 0x80
    5890:	08ed      	lsrs	r5, r5, #3
    5892:	0778      	lsls	r0, r7, #29
    5894:	08fa      	lsrs	r2, r7, #3
    5896:	0324      	lsls	r4, r4, #12
    5898:	4328      	orrs	r0, r5
    589a:	4222      	tst	r2, r4
    589c:	d0d1      	beq.n	5842 <__aeabi_dadd+0x55e>
    589e:	08cb      	lsrs	r3, r1, #3
    58a0:	4223      	tst	r3, r4
    58a2:	d1ce      	bne.n	5842 <__aeabi_dadd+0x55e>
    58a4:	4662      	mov	r2, ip
    58a6:	074f      	lsls	r7, r1, #29
    58a8:	1c38      	adds	r0, r7, #0
    58aa:	08d2      	lsrs	r2, r2, #3
    58ac:	4310      	orrs	r0, r2
    58ae:	1c1a      	adds	r2, r3, #0
    58b0:	e7c7      	b.n	5842 <__aeabi_dadd+0x55e>
    58b2:	4c1e      	ldr	r4, [pc, #120]	; (592c <__aeabi_dadd+0x648>)
    58b4:	e53e      	b.n	5334 <__aeabi_dadd+0x50>
    58b6:	2000      	movs	r0, #0
    58b8:	e759      	b.n	576e <__aeabi_dadd+0x48a>
    58ba:	1c04      	adds	r4, r0, #0
    58bc:	1c3e      	adds	r6, r7, #0
    58be:	3c20      	subs	r4, #32
    58c0:	40e6      	lsrs	r6, r4
    58c2:	1c34      	adds	r4, r6, #0
    58c4:	2820      	cmp	r0, #32
    58c6:	d02b      	beq.n	5920 <__aeabi_dadd+0x63c>
    58c8:	2640      	movs	r6, #64	; 0x40
    58ca:	1a30      	subs	r0, r6, r0
    58cc:	4087      	lsls	r7, r0
    58ce:	433d      	orrs	r5, r7
    58d0:	1e6f      	subs	r7, r5, #1
    58d2:	41bd      	sbcs	r5, r7
    58d4:	2700      	movs	r7, #0
    58d6:	4325      	orrs	r5, r4
    58d8:	e6c5      	b.n	5666 <__aeabi_dadd+0x382>
    58da:	2780      	movs	r7, #128	; 0x80
    58dc:	2600      	movs	r6, #0
    58de:	03ff      	lsls	r7, r7, #15
    58e0:	4c12      	ldr	r4, [pc, #72]	; (592c <__aeabi_dadd+0x648>)
    58e2:	2500      	movs	r5, #0
    58e4:	e5b8      	b.n	5458 <__aeabi_dadd+0x174>
    58e6:	433d      	orrs	r5, r7
    58e8:	1e6f      	subs	r7, r5, #1
    58ea:	41bd      	sbcs	r5, r7
    58ec:	2700      	movs	r7, #0
    58ee:	b2ed      	uxtb	r5, r5
    58f0:	e76e      	b.n	57d0 <__aeabi_dadd+0x4ec>
    58f2:	1c0f      	adds	r7, r1, #0
    58f4:	4665      	mov	r5, ip
    58f6:	4c0d      	ldr	r4, [pc, #52]	; (592c <__aeabi_dadd+0x648>)
    58f8:	e51c      	b.n	5334 <__aeabi_dadd+0x50>
    58fa:	1c0f      	adds	r7, r1, #0
    58fc:	4665      	mov	r5, ip
    58fe:	e519      	b.n	5334 <__aeabi_dadd+0x50>
    5900:	1c1c      	adds	r4, r3, #0
    5902:	1c38      	adds	r0, r7, #0
    5904:	3c20      	subs	r4, #32
    5906:	40e0      	lsrs	r0, r4
    5908:	1c04      	adds	r4, r0, #0
    590a:	2b20      	cmp	r3, #32
    590c:	d00c      	beq.n	5928 <__aeabi_dadd+0x644>
    590e:	2040      	movs	r0, #64	; 0x40
    5910:	1ac3      	subs	r3, r0, r3
    5912:	409f      	lsls	r7, r3
    5914:	433d      	orrs	r5, r7
    5916:	1e6f      	subs	r7, r5, #1
    5918:	41bd      	sbcs	r5, r7
    591a:	2700      	movs	r7, #0
    591c:	4325      	orrs	r5, r4
    591e:	e757      	b.n	57d0 <__aeabi_dadd+0x4ec>
    5920:	2700      	movs	r7, #0
    5922:	e7d4      	b.n	58ce <__aeabi_dadd+0x5ea>
    5924:	1c1d      	adds	r5, r3, #0
    5926:	e5fc      	b.n	5522 <__aeabi_dadd+0x23e>
    5928:	2700      	movs	r7, #0
    592a:	e7f3      	b.n	5914 <__aeabi_dadd+0x630>
    592c:	000007ff 	.word	0x000007ff
    5930:	ff7fffff 	.word	0xff7fffff

00005934 <__aeabi_ddiv>:
    5934:	b5f0      	push	{r4, r5, r6, r7, lr}
    5936:	465f      	mov	r7, fp
    5938:	4656      	mov	r6, sl
    593a:	464d      	mov	r5, r9
    593c:	4644      	mov	r4, r8
    593e:	b4f0      	push	{r4, r5, r6, r7}
    5940:	030f      	lsls	r7, r1, #12
    5942:	b087      	sub	sp, #28
    5944:	4698      	mov	r8, r3
    5946:	004d      	lsls	r5, r1, #1
    5948:	0b3b      	lsrs	r3, r7, #12
    594a:	0fcc      	lsrs	r4, r1, #31
    594c:	1c06      	adds	r6, r0, #0
    594e:	4692      	mov	sl, r2
    5950:	4681      	mov	r9, r0
    5952:	469b      	mov	fp, r3
    5954:	0d6d      	lsrs	r5, r5, #21
    5956:	9401      	str	r4, [sp, #4]
    5958:	d06b      	beq.n	5a32 <__aeabi_ddiv+0xfe>
    595a:	4b66      	ldr	r3, [pc, #408]	; (5af4 <__aeabi_ddiv+0x1c0>)
    595c:	429d      	cmp	r5, r3
    595e:	d035      	beq.n	59cc <__aeabi_ddiv+0x98>
    5960:	2780      	movs	r7, #128	; 0x80
    5962:	465b      	mov	r3, fp
    5964:	037f      	lsls	r7, r7, #13
    5966:	431f      	orrs	r7, r3
    5968:	00f3      	lsls	r3, r6, #3
    596a:	4699      	mov	r9, r3
    596c:	4b62      	ldr	r3, [pc, #392]	; (5af8 <__aeabi_ddiv+0x1c4>)
    596e:	00ff      	lsls	r7, r7, #3
    5970:	0f40      	lsrs	r0, r0, #29
    5972:	469c      	mov	ip, r3
    5974:	4307      	orrs	r7, r0
    5976:	2300      	movs	r3, #0
    5978:	46bb      	mov	fp, r7
    597a:	2600      	movs	r6, #0
    597c:	4465      	add	r5, ip
    597e:	9300      	str	r3, [sp, #0]
    5980:	4642      	mov	r2, r8
    5982:	0317      	lsls	r7, r2, #12
    5984:	0050      	lsls	r0, r2, #1
    5986:	0fd2      	lsrs	r2, r2, #31
    5988:	4653      	mov	r3, sl
    598a:	0b3f      	lsrs	r7, r7, #12
    598c:	0d40      	lsrs	r0, r0, #21
    598e:	4690      	mov	r8, r2
    5990:	d100      	bne.n	5994 <__aeabi_ddiv+0x60>
    5992:	e072      	b.n	5a7a <__aeabi_ddiv+0x146>
    5994:	4a57      	ldr	r2, [pc, #348]	; (5af4 <__aeabi_ddiv+0x1c0>)
    5996:	4290      	cmp	r0, r2
    5998:	d067      	beq.n	5a6a <__aeabi_ddiv+0x136>
    599a:	2380      	movs	r3, #128	; 0x80
    599c:	035b      	lsls	r3, r3, #13
    599e:	431f      	orrs	r7, r3
    59a0:	4653      	mov	r3, sl
    59a2:	4a55      	ldr	r2, [pc, #340]	; (5af8 <__aeabi_ddiv+0x1c4>)
    59a4:	0f5b      	lsrs	r3, r3, #29
    59a6:	00ff      	lsls	r7, r7, #3
    59a8:	431f      	orrs	r7, r3
    59aa:	4694      	mov	ip, r2
    59ac:	4653      	mov	r3, sl
    59ae:	2100      	movs	r1, #0
    59b0:	00db      	lsls	r3, r3, #3
    59b2:	4460      	add	r0, ip
    59b4:	4642      	mov	r2, r8
    59b6:	4062      	eors	r2, r4
    59b8:	4692      	mov	sl, r2
    59ba:	1a2d      	subs	r5, r5, r0
    59bc:	430e      	orrs	r6, r1
    59be:	2e0f      	cmp	r6, #15
    59c0:	d900      	bls.n	59c4 <__aeabi_ddiv+0x90>
    59c2:	e0a1      	b.n	5b08 <__aeabi_ddiv+0x1d4>
    59c4:	484d      	ldr	r0, [pc, #308]	; (5afc <__aeabi_ddiv+0x1c8>)
    59c6:	00b6      	lsls	r6, r6, #2
    59c8:	5980      	ldr	r0, [r0, r6]
    59ca:	4687      	mov	pc, r0
    59cc:	465b      	mov	r3, fp
    59ce:	431e      	orrs	r6, r3
    59d0:	d000      	beq.n	59d4 <__aeabi_ddiv+0xa0>
    59d2:	e076      	b.n	5ac2 <__aeabi_ddiv+0x18e>
    59d4:	2300      	movs	r3, #0
    59d6:	469b      	mov	fp, r3
    59d8:	4699      	mov	r9, r3
    59da:	3302      	adds	r3, #2
    59dc:	2608      	movs	r6, #8
    59de:	9300      	str	r3, [sp, #0]
    59e0:	e7ce      	b.n	5980 <__aeabi_ddiv+0x4c>
    59e2:	4699      	mov	r9, r3
    59e4:	4643      	mov	r3, r8
    59e6:	46bb      	mov	fp, r7
    59e8:	9301      	str	r3, [sp, #4]
    59ea:	9100      	str	r1, [sp, #0]
    59ec:	9b00      	ldr	r3, [sp, #0]
    59ee:	2b02      	cmp	r3, #2
    59f0:	d16b      	bne.n	5aca <__aeabi_ddiv+0x196>
    59f2:	9b01      	ldr	r3, [sp, #4]
    59f4:	469a      	mov	sl, r3
    59f6:	2100      	movs	r1, #0
    59f8:	4653      	mov	r3, sl
    59fa:	2201      	movs	r2, #1
    59fc:	2700      	movs	r7, #0
    59fe:	4689      	mov	r9, r1
    5a00:	401a      	ands	r2, r3
    5a02:	4b3c      	ldr	r3, [pc, #240]	; (5af4 <__aeabi_ddiv+0x1c0>)
    5a04:	2100      	movs	r1, #0
    5a06:	033f      	lsls	r7, r7, #12
    5a08:	0d0c      	lsrs	r4, r1, #20
    5a0a:	0524      	lsls	r4, r4, #20
    5a0c:	0b3f      	lsrs	r7, r7, #12
    5a0e:	4327      	orrs	r7, r4
    5a10:	4c3b      	ldr	r4, [pc, #236]	; (5b00 <__aeabi_ddiv+0x1cc>)
    5a12:	051b      	lsls	r3, r3, #20
    5a14:	4027      	ands	r7, r4
    5a16:	431f      	orrs	r7, r3
    5a18:	007f      	lsls	r7, r7, #1
    5a1a:	07d2      	lsls	r2, r2, #31
    5a1c:	087f      	lsrs	r7, r7, #1
    5a1e:	4317      	orrs	r7, r2
    5a20:	4648      	mov	r0, r9
    5a22:	1c39      	adds	r1, r7, #0
    5a24:	b007      	add	sp, #28
    5a26:	bc3c      	pop	{r2, r3, r4, r5}
    5a28:	4690      	mov	r8, r2
    5a2a:	4699      	mov	r9, r3
    5a2c:	46a2      	mov	sl, r4
    5a2e:	46ab      	mov	fp, r5
    5a30:	bdf0      	pop	{r4, r5, r6, r7, pc}
    5a32:	4303      	orrs	r3, r0
    5a34:	d03e      	beq.n	5ab4 <__aeabi_ddiv+0x180>
    5a36:	465b      	mov	r3, fp
    5a38:	2b00      	cmp	r3, #0
    5a3a:	d100      	bne.n	5a3e <__aeabi_ddiv+0x10a>
    5a3c:	e19c      	b.n	5d78 <__aeabi_ddiv+0x444>
    5a3e:	4658      	mov	r0, fp
    5a40:	f001 fb38 	bl	70b4 <__clzsi2>
    5a44:	2328      	movs	r3, #40	; 0x28
    5a46:	1c31      	adds	r1, r6, #0
    5a48:	1a1b      	subs	r3, r3, r0
    5a4a:	1c02      	adds	r2, r0, #0
    5a4c:	465f      	mov	r7, fp
    5a4e:	40d9      	lsrs	r1, r3
    5a50:	3a08      	subs	r2, #8
    5a52:	4097      	lsls	r7, r2
    5a54:	1c0b      	adds	r3, r1, #0
    5a56:	4096      	lsls	r6, r2
    5a58:	433b      	orrs	r3, r7
    5a5a:	469b      	mov	fp, r3
    5a5c:	46b1      	mov	r9, r6
    5a5e:	2300      	movs	r3, #0
    5a60:	4d28      	ldr	r5, [pc, #160]	; (5b04 <__aeabi_ddiv+0x1d0>)
    5a62:	2600      	movs	r6, #0
    5a64:	1a2d      	subs	r5, r5, r0
    5a66:	9300      	str	r3, [sp, #0]
    5a68:	e78a      	b.n	5980 <__aeabi_ddiv+0x4c>
    5a6a:	4652      	mov	r2, sl
    5a6c:	2103      	movs	r1, #3
    5a6e:	433a      	orrs	r2, r7
    5a70:	d1a0      	bne.n	59b4 <__aeabi_ddiv+0x80>
    5a72:	2700      	movs	r7, #0
    5a74:	2300      	movs	r3, #0
    5a76:	2102      	movs	r1, #2
    5a78:	e79c      	b.n	59b4 <__aeabi_ddiv+0x80>
    5a7a:	4652      	mov	r2, sl
    5a7c:	433a      	orrs	r2, r7
    5a7e:	d015      	beq.n	5aac <__aeabi_ddiv+0x178>
    5a80:	2f00      	cmp	r7, #0
    5a82:	d100      	bne.n	5a86 <__aeabi_ddiv+0x152>
    5a84:	e185      	b.n	5d92 <__aeabi_ddiv+0x45e>
    5a86:	1c38      	adds	r0, r7, #0
    5a88:	f001 fb14 	bl	70b4 <__clzsi2>
    5a8c:	1c02      	adds	r2, r0, #0
    5a8e:	2128      	movs	r1, #40	; 0x28
    5a90:	4650      	mov	r0, sl
    5a92:	1a89      	subs	r1, r1, r2
    5a94:	1c13      	adds	r3, r2, #0
    5a96:	40c8      	lsrs	r0, r1
    5a98:	4651      	mov	r1, sl
    5a9a:	3b08      	subs	r3, #8
    5a9c:	4099      	lsls	r1, r3
    5a9e:	409f      	lsls	r7, r3
    5aa0:	1c0b      	adds	r3, r1, #0
    5aa2:	4307      	orrs	r7, r0
    5aa4:	4817      	ldr	r0, [pc, #92]	; (5b04 <__aeabi_ddiv+0x1d0>)
    5aa6:	2100      	movs	r1, #0
    5aa8:	1a80      	subs	r0, r0, r2
    5aaa:	e783      	b.n	59b4 <__aeabi_ddiv+0x80>
    5aac:	2700      	movs	r7, #0
    5aae:	2300      	movs	r3, #0
    5ab0:	2101      	movs	r1, #1
    5ab2:	e77f      	b.n	59b4 <__aeabi_ddiv+0x80>
    5ab4:	2300      	movs	r3, #0
    5ab6:	469b      	mov	fp, r3
    5ab8:	4699      	mov	r9, r3
    5aba:	3301      	adds	r3, #1
    5abc:	2604      	movs	r6, #4
    5abe:	9300      	str	r3, [sp, #0]
    5ac0:	e75e      	b.n	5980 <__aeabi_ddiv+0x4c>
    5ac2:	2303      	movs	r3, #3
    5ac4:	260c      	movs	r6, #12
    5ac6:	9300      	str	r3, [sp, #0]
    5ac8:	e75a      	b.n	5980 <__aeabi_ddiv+0x4c>
    5aca:	2b03      	cmp	r3, #3
    5acc:	d100      	bne.n	5ad0 <__aeabi_ddiv+0x19c>
    5ace:	e23c      	b.n	5f4a <__aeabi_ddiv+0x616>
    5ad0:	2b01      	cmp	r3, #1
    5ad2:	d000      	beq.n	5ad6 <__aeabi_ddiv+0x1a2>
    5ad4:	e1bf      	b.n	5e56 <__aeabi_ddiv+0x522>
    5ad6:	1c1a      	adds	r2, r3, #0
    5ad8:	9b01      	ldr	r3, [sp, #4]
    5ada:	401a      	ands	r2, r3
    5adc:	2100      	movs	r1, #0
    5ade:	2300      	movs	r3, #0
    5ae0:	2700      	movs	r7, #0
    5ae2:	4689      	mov	r9, r1
    5ae4:	e78e      	b.n	5a04 <__aeabi_ddiv+0xd0>
    5ae6:	2300      	movs	r3, #0
    5ae8:	2780      	movs	r7, #128	; 0x80
    5aea:	4699      	mov	r9, r3
    5aec:	2200      	movs	r2, #0
    5aee:	033f      	lsls	r7, r7, #12
    5af0:	4b00      	ldr	r3, [pc, #0]	; (5af4 <__aeabi_ddiv+0x1c0>)
    5af2:	e787      	b.n	5a04 <__aeabi_ddiv+0xd0>
    5af4:	000007ff 	.word	0x000007ff
    5af8:	fffffc01 	.word	0xfffffc01
    5afc:	0000799c 	.word	0x0000799c
    5b00:	800fffff 	.word	0x800fffff
    5b04:	fffffc0d 	.word	0xfffffc0d
    5b08:	45bb      	cmp	fp, r7
    5b0a:	d900      	bls.n	5b0e <__aeabi_ddiv+0x1da>
    5b0c:	e151      	b.n	5db2 <__aeabi_ddiv+0x47e>
    5b0e:	d100      	bne.n	5b12 <__aeabi_ddiv+0x1de>
    5b10:	e14c      	b.n	5dac <__aeabi_ddiv+0x478>
    5b12:	464a      	mov	r2, r9
    5b14:	9203      	str	r2, [sp, #12]
    5b16:	2200      	movs	r2, #0
    5b18:	465c      	mov	r4, fp
    5b1a:	4690      	mov	r8, r2
    5b1c:	3d01      	subs	r5, #1
    5b1e:	0e18      	lsrs	r0, r3, #24
    5b20:	023f      	lsls	r7, r7, #8
    5b22:	4338      	orrs	r0, r7
    5b24:	021b      	lsls	r3, r3, #8
    5b26:	9301      	str	r3, [sp, #4]
    5b28:	0c03      	lsrs	r3, r0, #16
    5b2a:	4699      	mov	r9, r3
    5b2c:	0403      	lsls	r3, r0, #16
    5b2e:	0c1b      	lsrs	r3, r3, #16
    5b30:	4649      	mov	r1, r9
    5b32:	1c06      	adds	r6, r0, #0
    5b34:	1c20      	adds	r0, r4, #0
    5b36:	1c1f      	adds	r7, r3, #0
    5b38:	9300      	str	r3, [sp, #0]
    5b3a:	f7fe fb49 	bl	41d0 <__aeabi_uidiv>
    5b3e:	1c02      	adds	r2, r0, #0
    5b40:	437a      	muls	r2, r7
    5b42:	9002      	str	r0, [sp, #8]
    5b44:	4649      	mov	r1, r9
    5b46:	1c20      	adds	r0, r4, #0
    5b48:	1c17      	adds	r7, r2, #0
    5b4a:	f7fe fbc7 	bl	42dc <__aeabi_uidivmod>
    5b4e:	9b03      	ldr	r3, [sp, #12]
    5b50:	0409      	lsls	r1, r1, #16
    5b52:	0c1b      	lsrs	r3, r3, #16
    5b54:	4319      	orrs	r1, r3
    5b56:	428f      	cmp	r7, r1
    5b58:	d90c      	bls.n	5b74 <__aeabi_ddiv+0x240>
    5b5a:	9b02      	ldr	r3, [sp, #8]
    5b5c:	1989      	adds	r1, r1, r6
    5b5e:	3b01      	subs	r3, #1
    5b60:	428e      	cmp	r6, r1
    5b62:	d900      	bls.n	5b66 <__aeabi_ddiv+0x232>
    5b64:	e152      	b.n	5e0c <__aeabi_ddiv+0x4d8>
    5b66:	428f      	cmp	r7, r1
    5b68:	d800      	bhi.n	5b6c <__aeabi_ddiv+0x238>
    5b6a:	e14f      	b.n	5e0c <__aeabi_ddiv+0x4d8>
    5b6c:	9b02      	ldr	r3, [sp, #8]
    5b6e:	1989      	adds	r1, r1, r6
    5b70:	3b02      	subs	r3, #2
    5b72:	9302      	str	r3, [sp, #8]
    5b74:	1bcc      	subs	r4, r1, r7
    5b76:	1c20      	adds	r0, r4, #0
    5b78:	4649      	mov	r1, r9
    5b7a:	f7fe fb29 	bl	41d0 <__aeabi_uidiv>
    5b7e:	9f00      	ldr	r7, [sp, #0]
    5b80:	4683      	mov	fp, r0
    5b82:	4347      	muls	r7, r0
    5b84:	4649      	mov	r1, r9
    5b86:	1c20      	adds	r0, r4, #0
    5b88:	f7fe fba8 	bl	42dc <__aeabi_uidivmod>
    5b8c:	9a03      	ldr	r2, [sp, #12]
    5b8e:	040b      	lsls	r3, r1, #16
    5b90:	0414      	lsls	r4, r2, #16
    5b92:	0c24      	lsrs	r4, r4, #16
    5b94:	4323      	orrs	r3, r4
    5b96:	429f      	cmp	r7, r3
    5b98:	d90d      	bls.n	5bb6 <__aeabi_ddiv+0x282>
    5b9a:	465a      	mov	r2, fp
    5b9c:	199b      	adds	r3, r3, r6
    5b9e:	3a01      	subs	r2, #1
    5ba0:	429e      	cmp	r6, r3
    5ba2:	d900      	bls.n	5ba6 <__aeabi_ddiv+0x272>
    5ba4:	e130      	b.n	5e08 <__aeabi_ddiv+0x4d4>
    5ba6:	429f      	cmp	r7, r3
    5ba8:	d800      	bhi.n	5bac <__aeabi_ddiv+0x278>
    5baa:	e12d      	b.n	5e08 <__aeabi_ddiv+0x4d4>
    5bac:	2202      	movs	r2, #2
    5bae:	4252      	negs	r2, r2
    5bb0:	4694      	mov	ip, r2
    5bb2:	199b      	adds	r3, r3, r6
    5bb4:	44e3      	add	fp, ip
    5bb6:	9a02      	ldr	r2, [sp, #8]
    5bb8:	1bdb      	subs	r3, r3, r7
    5bba:	0417      	lsls	r7, r2, #16
    5bbc:	465a      	mov	r2, fp
    5bbe:	433a      	orrs	r2, r7
    5bc0:	4693      	mov	fp, r2
    5bc2:	9c01      	ldr	r4, [sp, #4]
    5bc4:	0c17      	lsrs	r7, r2, #16
    5bc6:	0c22      	lsrs	r2, r4, #16
    5bc8:	1c10      	adds	r0, r2, #0
    5bca:	9204      	str	r2, [sp, #16]
    5bcc:	465a      	mov	r2, fp
    5bce:	0411      	lsls	r1, r2, #16
    5bd0:	0422      	lsls	r2, r4, #16
    5bd2:	0c12      	lsrs	r2, r2, #16
    5bd4:	1c14      	adds	r4, r2, #0
    5bd6:	0c09      	lsrs	r1, r1, #16
    5bd8:	437c      	muls	r4, r7
    5bda:	9205      	str	r2, [sp, #20]
    5bdc:	434a      	muls	r2, r1
    5bde:	4341      	muls	r1, r0
    5be0:	4347      	muls	r7, r0
    5be2:	1861      	adds	r1, r4, r1
    5be4:	0c10      	lsrs	r0, r2, #16
    5be6:	1809      	adds	r1, r1, r0
    5be8:	428c      	cmp	r4, r1
    5bea:	d903      	bls.n	5bf4 <__aeabi_ddiv+0x2c0>
    5bec:	2080      	movs	r0, #128	; 0x80
    5bee:	0240      	lsls	r0, r0, #9
    5bf0:	4684      	mov	ip, r0
    5bf2:	4467      	add	r7, ip
    5bf4:	0c0c      	lsrs	r4, r1, #16
    5bf6:	0412      	lsls	r2, r2, #16
    5bf8:	0408      	lsls	r0, r1, #16
    5bfa:	0c12      	lsrs	r2, r2, #16
    5bfc:	193c      	adds	r4, r7, r4
    5bfe:	1881      	adds	r1, r0, r2
    5c00:	42a3      	cmp	r3, r4
    5c02:	d200      	bcs.n	5c06 <__aeabi_ddiv+0x2d2>
    5c04:	e0e5      	b.n	5dd2 <__aeabi_ddiv+0x49e>
    5c06:	d100      	bne.n	5c0a <__aeabi_ddiv+0x2d6>
    5c08:	e0df      	b.n	5dca <__aeabi_ddiv+0x496>
    5c0a:	1b1f      	subs	r7, r3, r4
    5c0c:	4643      	mov	r3, r8
    5c0e:	1a5c      	subs	r4, r3, r1
    5c10:	45a0      	cmp	r8, r4
    5c12:	4192      	sbcs	r2, r2
    5c14:	4252      	negs	r2, r2
    5c16:	1abf      	subs	r7, r7, r2
    5c18:	42b7      	cmp	r7, r6
    5c1a:	d100      	bne.n	5c1e <__aeabi_ddiv+0x2ea>
    5c1c:	e10e      	b.n	5e3c <__aeabi_ddiv+0x508>
    5c1e:	1c38      	adds	r0, r7, #0
    5c20:	4649      	mov	r1, r9
    5c22:	f7fe fad5 	bl	41d0 <__aeabi_uidiv>
    5c26:	9b00      	ldr	r3, [sp, #0]
    5c28:	9002      	str	r0, [sp, #8]
    5c2a:	4343      	muls	r3, r0
    5c2c:	4649      	mov	r1, r9
    5c2e:	1c38      	adds	r0, r7, #0
    5c30:	4698      	mov	r8, r3
    5c32:	f7fe fb53 	bl	42dc <__aeabi_uidivmod>
    5c36:	0c23      	lsrs	r3, r4, #16
    5c38:	040f      	lsls	r7, r1, #16
    5c3a:	431f      	orrs	r7, r3
    5c3c:	45b8      	cmp	r8, r7
    5c3e:	d90c      	bls.n	5c5a <__aeabi_ddiv+0x326>
    5c40:	9b02      	ldr	r3, [sp, #8]
    5c42:	19bf      	adds	r7, r7, r6
    5c44:	3b01      	subs	r3, #1
    5c46:	42be      	cmp	r6, r7
    5c48:	d900      	bls.n	5c4c <__aeabi_ddiv+0x318>
    5c4a:	e0fb      	b.n	5e44 <__aeabi_ddiv+0x510>
    5c4c:	45b8      	cmp	r8, r7
    5c4e:	d800      	bhi.n	5c52 <__aeabi_ddiv+0x31e>
    5c50:	e0f8      	b.n	5e44 <__aeabi_ddiv+0x510>
    5c52:	9b02      	ldr	r3, [sp, #8]
    5c54:	19bf      	adds	r7, r7, r6
    5c56:	3b02      	subs	r3, #2
    5c58:	9302      	str	r3, [sp, #8]
    5c5a:	4643      	mov	r3, r8
    5c5c:	1aff      	subs	r7, r7, r3
    5c5e:	4649      	mov	r1, r9
    5c60:	1c38      	adds	r0, r7, #0
    5c62:	f7fe fab5 	bl	41d0 <__aeabi_uidiv>
    5c66:	9b00      	ldr	r3, [sp, #0]
    5c68:	9003      	str	r0, [sp, #12]
    5c6a:	4343      	muls	r3, r0
    5c6c:	4649      	mov	r1, r9
    5c6e:	1c38      	adds	r0, r7, #0
    5c70:	4698      	mov	r8, r3
    5c72:	f7fe fb33 	bl	42dc <__aeabi_uidivmod>
    5c76:	0424      	lsls	r4, r4, #16
    5c78:	0409      	lsls	r1, r1, #16
    5c7a:	0c24      	lsrs	r4, r4, #16
    5c7c:	4321      	orrs	r1, r4
    5c7e:	4588      	cmp	r8, r1
    5c80:	d90c      	bls.n	5c9c <__aeabi_ddiv+0x368>
    5c82:	9b03      	ldr	r3, [sp, #12]
    5c84:	1989      	adds	r1, r1, r6
    5c86:	3b01      	subs	r3, #1
    5c88:	428e      	cmp	r6, r1
    5c8a:	d900      	bls.n	5c8e <__aeabi_ddiv+0x35a>
    5c8c:	e0dc      	b.n	5e48 <__aeabi_ddiv+0x514>
    5c8e:	4588      	cmp	r8, r1
    5c90:	d800      	bhi.n	5c94 <__aeabi_ddiv+0x360>
    5c92:	e0d9      	b.n	5e48 <__aeabi_ddiv+0x514>
    5c94:	9b03      	ldr	r3, [sp, #12]
    5c96:	1989      	adds	r1, r1, r6
    5c98:	3b02      	subs	r3, #2
    5c9a:	9303      	str	r3, [sp, #12]
    5c9c:	4643      	mov	r3, r8
    5c9e:	1ac9      	subs	r1, r1, r3
    5ca0:	9b02      	ldr	r3, [sp, #8]
    5ca2:	9a03      	ldr	r2, [sp, #12]
    5ca4:	041b      	lsls	r3, r3, #16
    5ca6:	9c05      	ldr	r4, [sp, #20]
    5ca8:	431a      	orrs	r2, r3
    5caa:	0c10      	lsrs	r0, r2, #16
    5cac:	0413      	lsls	r3, r2, #16
    5cae:	4691      	mov	r9, r2
    5cb0:	1c22      	adds	r2, r4, #0
    5cb2:	9f04      	ldr	r7, [sp, #16]
    5cb4:	0c1b      	lsrs	r3, r3, #16
    5cb6:	435a      	muls	r2, r3
    5cb8:	4344      	muls	r4, r0
    5cba:	437b      	muls	r3, r7
    5cbc:	4378      	muls	r0, r7
    5cbe:	18e3      	adds	r3, r4, r3
    5cc0:	0c17      	lsrs	r7, r2, #16
    5cc2:	19db      	adds	r3, r3, r7
    5cc4:	429c      	cmp	r4, r3
    5cc6:	d903      	bls.n	5cd0 <__aeabi_ddiv+0x39c>
    5cc8:	2480      	movs	r4, #128	; 0x80
    5cca:	0264      	lsls	r4, r4, #9
    5ccc:	46a4      	mov	ip, r4
    5cce:	4460      	add	r0, ip
    5cd0:	0c1c      	lsrs	r4, r3, #16
    5cd2:	0412      	lsls	r2, r2, #16
    5cd4:	041b      	lsls	r3, r3, #16
    5cd6:	0c12      	lsrs	r2, r2, #16
    5cd8:	1900      	adds	r0, r0, r4
    5cda:	189b      	adds	r3, r3, r2
    5cdc:	4281      	cmp	r1, r0
    5cde:	d200      	bcs.n	5ce2 <__aeabi_ddiv+0x3ae>
    5ce0:	e096      	b.n	5e10 <__aeabi_ddiv+0x4dc>
    5ce2:	d100      	bne.n	5ce6 <__aeabi_ddiv+0x3b2>
    5ce4:	e0fc      	b.n	5ee0 <__aeabi_ddiv+0x5ac>
    5ce6:	464a      	mov	r2, r9
    5ce8:	2301      	movs	r3, #1
    5cea:	431a      	orrs	r2, r3
    5cec:	4691      	mov	r9, r2
    5cee:	4b9b      	ldr	r3, [pc, #620]	; (5f5c <__aeabi_ddiv+0x628>)
    5cf0:	18eb      	adds	r3, r5, r3
    5cf2:	2b00      	cmp	r3, #0
    5cf4:	dc00      	bgt.n	5cf8 <__aeabi_ddiv+0x3c4>
    5cf6:	e099      	b.n	5e2c <__aeabi_ddiv+0x4f8>
    5cf8:	464a      	mov	r2, r9
    5cfa:	0752      	lsls	r2, r2, #29
    5cfc:	d00a      	beq.n	5d14 <__aeabi_ddiv+0x3e0>
    5cfe:	220f      	movs	r2, #15
    5d00:	4649      	mov	r1, r9
    5d02:	400a      	ands	r2, r1
    5d04:	2a04      	cmp	r2, #4
    5d06:	d005      	beq.n	5d14 <__aeabi_ddiv+0x3e0>
    5d08:	3104      	adds	r1, #4
    5d0a:	4549      	cmp	r1, r9
    5d0c:	4192      	sbcs	r2, r2
    5d0e:	4689      	mov	r9, r1
    5d10:	4252      	negs	r2, r2
    5d12:	4493      	add	fp, r2
    5d14:	465a      	mov	r2, fp
    5d16:	01d2      	lsls	r2, r2, #7
    5d18:	d506      	bpl.n	5d28 <__aeabi_ddiv+0x3f4>
    5d1a:	465a      	mov	r2, fp
    5d1c:	4b90      	ldr	r3, [pc, #576]	; (5f60 <__aeabi_ddiv+0x62c>)
    5d1e:	401a      	ands	r2, r3
    5d20:	2380      	movs	r3, #128	; 0x80
    5d22:	4693      	mov	fp, r2
    5d24:	00db      	lsls	r3, r3, #3
    5d26:	18eb      	adds	r3, r5, r3
    5d28:	4a8e      	ldr	r2, [pc, #568]	; (5f64 <__aeabi_ddiv+0x630>)
    5d2a:	4293      	cmp	r3, r2
    5d2c:	dd00      	ble.n	5d30 <__aeabi_ddiv+0x3fc>
    5d2e:	e662      	b.n	59f6 <__aeabi_ddiv+0xc2>
    5d30:	464a      	mov	r2, r9
    5d32:	4659      	mov	r1, fp
    5d34:	08d2      	lsrs	r2, r2, #3
    5d36:	0749      	lsls	r1, r1, #29
    5d38:	4311      	orrs	r1, r2
    5d3a:	465a      	mov	r2, fp
    5d3c:	4689      	mov	r9, r1
    5d3e:	0257      	lsls	r7, r2, #9
    5d40:	4651      	mov	r1, sl
    5d42:	2201      	movs	r2, #1
    5d44:	055b      	lsls	r3, r3, #21
    5d46:	0b3f      	lsrs	r7, r7, #12
    5d48:	0d5b      	lsrs	r3, r3, #21
    5d4a:	400a      	ands	r2, r1
    5d4c:	e65a      	b.n	5a04 <__aeabi_ddiv+0xd0>
    5d4e:	2080      	movs	r0, #128	; 0x80
    5d50:	465a      	mov	r2, fp
    5d52:	0300      	lsls	r0, r0, #12
    5d54:	4202      	tst	r2, r0
    5d56:	d008      	beq.n	5d6a <__aeabi_ddiv+0x436>
    5d58:	4207      	tst	r7, r0
    5d5a:	d106      	bne.n	5d6a <__aeabi_ddiv+0x436>
    5d5c:	4307      	orrs	r7, r0
    5d5e:	033f      	lsls	r7, r7, #12
    5d60:	4699      	mov	r9, r3
    5d62:	0b3f      	lsrs	r7, r7, #12
    5d64:	4642      	mov	r2, r8
    5d66:	4b80      	ldr	r3, [pc, #512]	; (5f68 <__aeabi_ddiv+0x634>)
    5d68:	e64c      	b.n	5a04 <__aeabi_ddiv+0xd0>
    5d6a:	465f      	mov	r7, fp
    5d6c:	4307      	orrs	r7, r0
    5d6e:	033f      	lsls	r7, r7, #12
    5d70:	0b3f      	lsrs	r7, r7, #12
    5d72:	1c22      	adds	r2, r4, #0
    5d74:	4b7c      	ldr	r3, [pc, #496]	; (5f68 <__aeabi_ddiv+0x634>)
    5d76:	e645      	b.n	5a04 <__aeabi_ddiv+0xd0>
    5d78:	f001 f99c 	bl	70b4 <__clzsi2>
    5d7c:	1c03      	adds	r3, r0, #0
    5d7e:	3020      	adds	r0, #32
    5d80:	2827      	cmp	r0, #39	; 0x27
    5d82:	dc00      	bgt.n	5d86 <__aeabi_ddiv+0x452>
    5d84:	e65e      	b.n	5a44 <__aeabi_ddiv+0x110>
    5d86:	3b08      	subs	r3, #8
    5d88:	409e      	lsls	r6, r3
    5d8a:	2300      	movs	r3, #0
    5d8c:	46b3      	mov	fp, r6
    5d8e:	4699      	mov	r9, r3
    5d90:	e665      	b.n	5a5e <__aeabi_ddiv+0x12a>
    5d92:	4650      	mov	r0, sl
    5d94:	f001 f98e 	bl	70b4 <__clzsi2>
    5d98:	1c02      	adds	r2, r0, #0
    5d9a:	3220      	adds	r2, #32
    5d9c:	2a27      	cmp	r2, #39	; 0x27
    5d9e:	dc00      	bgt.n	5da2 <__aeabi_ddiv+0x46e>
    5da0:	e675      	b.n	5a8e <__aeabi_ddiv+0x15a>
    5da2:	4657      	mov	r7, sl
    5da4:	3808      	subs	r0, #8
    5da6:	4087      	lsls	r7, r0
    5da8:	2300      	movs	r3, #0
    5daa:	e67b      	b.n	5aa4 <__aeabi_ddiv+0x170>
    5dac:	4599      	cmp	r9, r3
    5dae:	d200      	bcs.n	5db2 <__aeabi_ddiv+0x47e>
    5db0:	e6af      	b.n	5b12 <__aeabi_ddiv+0x1de>
    5db2:	465a      	mov	r2, fp
    5db4:	4659      	mov	r1, fp
    5db6:	0854      	lsrs	r4, r2, #1
    5db8:	464a      	mov	r2, r9
    5dba:	07c8      	lsls	r0, r1, #31
    5dbc:	0852      	lsrs	r2, r2, #1
    5dbe:	4302      	orrs	r2, r0
    5dc0:	9203      	str	r2, [sp, #12]
    5dc2:	464a      	mov	r2, r9
    5dc4:	07d2      	lsls	r2, r2, #31
    5dc6:	4690      	mov	r8, r2
    5dc8:	e6a9      	b.n	5b1e <__aeabi_ddiv+0x1ea>
    5dca:	2700      	movs	r7, #0
    5dcc:	4588      	cmp	r8, r1
    5dce:	d300      	bcc.n	5dd2 <__aeabi_ddiv+0x49e>
    5dd0:	e71c      	b.n	5c0c <__aeabi_ddiv+0x2d8>
    5dd2:	9f01      	ldr	r7, [sp, #4]
    5dd4:	465a      	mov	r2, fp
    5dd6:	46bc      	mov	ip, r7
    5dd8:	44e0      	add	r8, ip
    5dda:	45b8      	cmp	r8, r7
    5ddc:	41bf      	sbcs	r7, r7
    5dde:	427f      	negs	r7, r7
    5de0:	19bf      	adds	r7, r7, r6
    5de2:	18ff      	adds	r7, r7, r3
    5de4:	3a01      	subs	r2, #1
    5de6:	42be      	cmp	r6, r7
    5de8:	d206      	bcs.n	5df8 <__aeabi_ddiv+0x4c4>
    5dea:	42bc      	cmp	r4, r7
    5dec:	d85f      	bhi.n	5eae <__aeabi_ddiv+0x57a>
    5dee:	d100      	bne.n	5df2 <__aeabi_ddiv+0x4be>
    5df0:	e09f      	b.n	5f32 <__aeabi_ddiv+0x5fe>
    5df2:	1b3f      	subs	r7, r7, r4
    5df4:	4693      	mov	fp, r2
    5df6:	e709      	b.n	5c0c <__aeabi_ddiv+0x2d8>
    5df8:	42b7      	cmp	r7, r6
    5dfa:	d1fa      	bne.n	5df2 <__aeabi_ddiv+0x4be>
    5dfc:	9b01      	ldr	r3, [sp, #4]
    5dfe:	4543      	cmp	r3, r8
    5e00:	d9f3      	bls.n	5dea <__aeabi_ddiv+0x4b6>
    5e02:	1b37      	subs	r7, r6, r4
    5e04:	4693      	mov	fp, r2
    5e06:	e701      	b.n	5c0c <__aeabi_ddiv+0x2d8>
    5e08:	4693      	mov	fp, r2
    5e0a:	e6d4      	b.n	5bb6 <__aeabi_ddiv+0x282>
    5e0c:	9302      	str	r3, [sp, #8]
    5e0e:	e6b1      	b.n	5b74 <__aeabi_ddiv+0x240>
    5e10:	464a      	mov	r2, r9
    5e12:	1989      	adds	r1, r1, r6
    5e14:	3a01      	subs	r2, #1
    5e16:	428e      	cmp	r6, r1
    5e18:	d918      	bls.n	5e4c <__aeabi_ddiv+0x518>
    5e1a:	4691      	mov	r9, r2
    5e1c:	4281      	cmp	r1, r0
    5e1e:	d000      	beq.n	5e22 <__aeabi_ddiv+0x4ee>
    5e20:	e761      	b.n	5ce6 <__aeabi_ddiv+0x3b2>
    5e22:	9a01      	ldr	r2, [sp, #4]
    5e24:	429a      	cmp	r2, r3
    5e26:	d000      	beq.n	5e2a <__aeabi_ddiv+0x4f6>
    5e28:	e75d      	b.n	5ce6 <__aeabi_ddiv+0x3b2>
    5e2a:	e760      	b.n	5cee <__aeabi_ddiv+0x3ba>
    5e2c:	4f4f      	ldr	r7, [pc, #316]	; (5f6c <__aeabi_ddiv+0x638>)
    5e2e:	1b7f      	subs	r7, r7, r5
    5e30:	2f38      	cmp	r7, #56	; 0x38
    5e32:	dd13      	ble.n	5e5c <__aeabi_ddiv+0x528>
    5e34:	2201      	movs	r2, #1
    5e36:	4653      	mov	r3, sl
    5e38:	401a      	ands	r2, r3
    5e3a:	e64f      	b.n	5adc <__aeabi_ddiv+0x1a8>
    5e3c:	2301      	movs	r3, #1
    5e3e:	425b      	negs	r3, r3
    5e40:	4699      	mov	r9, r3
    5e42:	e754      	b.n	5cee <__aeabi_ddiv+0x3ba>
    5e44:	9302      	str	r3, [sp, #8]
    5e46:	e708      	b.n	5c5a <__aeabi_ddiv+0x326>
    5e48:	9303      	str	r3, [sp, #12]
    5e4a:	e727      	b.n	5c9c <__aeabi_ddiv+0x368>
    5e4c:	4288      	cmp	r0, r1
    5e4e:	d83c      	bhi.n	5eca <__aeabi_ddiv+0x596>
    5e50:	d074      	beq.n	5f3c <__aeabi_ddiv+0x608>
    5e52:	4691      	mov	r9, r2
    5e54:	e747      	b.n	5ce6 <__aeabi_ddiv+0x3b2>
    5e56:	9b01      	ldr	r3, [sp, #4]
    5e58:	469a      	mov	sl, r3
    5e5a:	e748      	b.n	5cee <__aeabi_ddiv+0x3ba>
    5e5c:	2f1f      	cmp	r7, #31
    5e5e:	dc44      	bgt.n	5eea <__aeabi_ddiv+0x5b6>
    5e60:	4b43      	ldr	r3, [pc, #268]	; (5f70 <__aeabi_ddiv+0x63c>)
    5e62:	464a      	mov	r2, r9
    5e64:	469c      	mov	ip, r3
    5e66:	465b      	mov	r3, fp
    5e68:	4465      	add	r5, ip
    5e6a:	40fa      	lsrs	r2, r7
    5e6c:	40ab      	lsls	r3, r5
    5e6e:	4313      	orrs	r3, r2
    5e70:	464a      	mov	r2, r9
    5e72:	40aa      	lsls	r2, r5
    5e74:	1c15      	adds	r5, r2, #0
    5e76:	1e6a      	subs	r2, r5, #1
    5e78:	4195      	sbcs	r5, r2
    5e7a:	465a      	mov	r2, fp
    5e7c:	40fa      	lsrs	r2, r7
    5e7e:	432b      	orrs	r3, r5
    5e80:	1c17      	adds	r7, r2, #0
    5e82:	075a      	lsls	r2, r3, #29
    5e84:	d009      	beq.n	5e9a <__aeabi_ddiv+0x566>
    5e86:	220f      	movs	r2, #15
    5e88:	401a      	ands	r2, r3
    5e8a:	2a04      	cmp	r2, #4
    5e8c:	d005      	beq.n	5e9a <__aeabi_ddiv+0x566>
    5e8e:	1d1a      	adds	r2, r3, #4
    5e90:	429a      	cmp	r2, r3
    5e92:	419b      	sbcs	r3, r3
    5e94:	425b      	negs	r3, r3
    5e96:	18ff      	adds	r7, r7, r3
    5e98:	1c13      	adds	r3, r2, #0
    5e9a:	023a      	lsls	r2, r7, #8
    5e9c:	d53e      	bpl.n	5f1c <__aeabi_ddiv+0x5e8>
    5e9e:	4653      	mov	r3, sl
    5ea0:	2201      	movs	r2, #1
    5ea2:	2100      	movs	r1, #0
    5ea4:	401a      	ands	r2, r3
    5ea6:	2700      	movs	r7, #0
    5ea8:	2301      	movs	r3, #1
    5eaa:	4689      	mov	r9, r1
    5eac:	e5aa      	b.n	5a04 <__aeabi_ddiv+0xd0>
    5eae:	2302      	movs	r3, #2
    5eb0:	425b      	negs	r3, r3
    5eb2:	469c      	mov	ip, r3
    5eb4:	9a01      	ldr	r2, [sp, #4]
    5eb6:	44e3      	add	fp, ip
    5eb8:	4694      	mov	ip, r2
    5eba:	44e0      	add	r8, ip
    5ebc:	4590      	cmp	r8, r2
    5ebe:	419b      	sbcs	r3, r3
    5ec0:	425b      	negs	r3, r3
    5ec2:	199b      	adds	r3, r3, r6
    5ec4:	19df      	adds	r7, r3, r7
    5ec6:	1b3f      	subs	r7, r7, r4
    5ec8:	e6a0      	b.n	5c0c <__aeabi_ddiv+0x2d8>
    5eca:	9f01      	ldr	r7, [sp, #4]
    5ecc:	464a      	mov	r2, r9
    5ece:	007c      	lsls	r4, r7, #1
    5ed0:	42bc      	cmp	r4, r7
    5ed2:	41bf      	sbcs	r7, r7
    5ed4:	427f      	negs	r7, r7
    5ed6:	19bf      	adds	r7, r7, r6
    5ed8:	3a02      	subs	r2, #2
    5eda:	19c9      	adds	r1, r1, r7
    5edc:	9401      	str	r4, [sp, #4]
    5ede:	e79c      	b.n	5e1a <__aeabi_ddiv+0x4e6>
    5ee0:	2b00      	cmp	r3, #0
    5ee2:	d195      	bne.n	5e10 <__aeabi_ddiv+0x4dc>
    5ee4:	2200      	movs	r2, #0
    5ee6:	9201      	str	r2, [sp, #4]
    5ee8:	e79b      	b.n	5e22 <__aeabi_ddiv+0x4ee>
    5eea:	465a      	mov	r2, fp
    5eec:	4b21      	ldr	r3, [pc, #132]	; (5f74 <__aeabi_ddiv+0x640>)
    5eee:	1b5b      	subs	r3, r3, r5
    5ef0:	40da      	lsrs	r2, r3
    5ef2:	2f20      	cmp	r7, #32
    5ef4:	d027      	beq.n	5f46 <__aeabi_ddiv+0x612>
    5ef6:	4b20      	ldr	r3, [pc, #128]	; (5f78 <__aeabi_ddiv+0x644>)
    5ef8:	469c      	mov	ip, r3
    5efa:	465b      	mov	r3, fp
    5efc:	4465      	add	r5, ip
    5efe:	40ab      	lsls	r3, r5
    5f00:	4649      	mov	r1, r9
    5f02:	430b      	orrs	r3, r1
    5f04:	1e59      	subs	r1, r3, #1
    5f06:	418b      	sbcs	r3, r1
    5f08:	4313      	orrs	r3, r2
    5f0a:	2207      	movs	r2, #7
    5f0c:	2700      	movs	r7, #0
    5f0e:	401a      	ands	r2, r3
    5f10:	d007      	beq.n	5f22 <__aeabi_ddiv+0x5ee>
    5f12:	220f      	movs	r2, #15
    5f14:	2700      	movs	r7, #0
    5f16:	401a      	ands	r2, r3
    5f18:	2a04      	cmp	r2, #4
    5f1a:	d1b8      	bne.n	5e8e <__aeabi_ddiv+0x55a>
    5f1c:	077a      	lsls	r2, r7, #29
    5f1e:	027f      	lsls	r7, r7, #9
    5f20:	0b3f      	lsrs	r7, r7, #12
    5f22:	08db      	lsrs	r3, r3, #3
    5f24:	4313      	orrs	r3, r2
    5f26:	4699      	mov	r9, r3
    5f28:	2201      	movs	r2, #1
    5f2a:	4653      	mov	r3, sl
    5f2c:	401a      	ands	r2, r3
    5f2e:	2300      	movs	r3, #0
    5f30:	e568      	b.n	5a04 <__aeabi_ddiv+0xd0>
    5f32:	4541      	cmp	r1, r8
    5f34:	d8bb      	bhi.n	5eae <__aeabi_ddiv+0x57a>
    5f36:	4693      	mov	fp, r2
    5f38:	2700      	movs	r7, #0
    5f3a:	e667      	b.n	5c0c <__aeabi_ddiv+0x2d8>
    5f3c:	9c01      	ldr	r4, [sp, #4]
    5f3e:	429c      	cmp	r4, r3
    5f40:	d3c3      	bcc.n	5eca <__aeabi_ddiv+0x596>
    5f42:	4691      	mov	r9, r2
    5f44:	e76d      	b.n	5e22 <__aeabi_ddiv+0x4ee>
    5f46:	2300      	movs	r3, #0
    5f48:	e7da      	b.n	5f00 <__aeabi_ddiv+0x5cc>
    5f4a:	2780      	movs	r7, #128	; 0x80
    5f4c:	465b      	mov	r3, fp
    5f4e:	033f      	lsls	r7, r7, #12
    5f50:	431f      	orrs	r7, r3
    5f52:	033f      	lsls	r7, r7, #12
    5f54:	0b3f      	lsrs	r7, r7, #12
    5f56:	9a01      	ldr	r2, [sp, #4]
    5f58:	4b03      	ldr	r3, [pc, #12]	; (5f68 <__aeabi_ddiv+0x634>)
    5f5a:	e553      	b.n	5a04 <__aeabi_ddiv+0xd0>
    5f5c:	000003ff 	.word	0x000003ff
    5f60:	feffffff 	.word	0xfeffffff
    5f64:	000007fe 	.word	0x000007fe
    5f68:	000007ff 	.word	0x000007ff
    5f6c:	fffffc02 	.word	0xfffffc02
    5f70:	0000041e 	.word	0x0000041e
    5f74:	fffffbe2 	.word	0xfffffbe2
    5f78:	0000043e 	.word	0x0000043e

00005f7c <__eqdf2>:
    5f7c:	b5f0      	push	{r4, r5, r6, r7, lr}
    5f7e:	465f      	mov	r7, fp
    5f80:	464d      	mov	r5, r9
    5f82:	4644      	mov	r4, r8
    5f84:	4656      	mov	r6, sl
    5f86:	b4f0      	push	{r4, r5, r6, r7}
    5f88:	031f      	lsls	r7, r3, #12
    5f8a:	005c      	lsls	r4, r3, #1
    5f8c:	0fdb      	lsrs	r3, r3, #31
    5f8e:	4699      	mov	r9, r3
    5f90:	4b1b      	ldr	r3, [pc, #108]	; (6000 <__eqdf2+0x84>)
    5f92:	030e      	lsls	r6, r1, #12
    5f94:	004d      	lsls	r5, r1, #1
    5f96:	0fc9      	lsrs	r1, r1, #31
    5f98:	4684      	mov	ip, r0
    5f9a:	0b36      	lsrs	r6, r6, #12
    5f9c:	0d6d      	lsrs	r5, r5, #21
    5f9e:	468b      	mov	fp, r1
    5fa0:	4690      	mov	r8, r2
    5fa2:	0b3f      	lsrs	r7, r7, #12
    5fa4:	0d64      	lsrs	r4, r4, #21
    5fa6:	429d      	cmp	r5, r3
    5fa8:	d00c      	beq.n	5fc4 <__eqdf2+0x48>
    5faa:	4b15      	ldr	r3, [pc, #84]	; (6000 <__eqdf2+0x84>)
    5fac:	429c      	cmp	r4, r3
    5fae:	d010      	beq.n	5fd2 <__eqdf2+0x56>
    5fb0:	2301      	movs	r3, #1
    5fb2:	42a5      	cmp	r5, r4
    5fb4:	d014      	beq.n	5fe0 <__eqdf2+0x64>
    5fb6:	1c18      	adds	r0, r3, #0
    5fb8:	bc3c      	pop	{r2, r3, r4, r5}
    5fba:	4690      	mov	r8, r2
    5fbc:	4699      	mov	r9, r3
    5fbe:	46a2      	mov	sl, r4
    5fc0:	46ab      	mov	fp, r5
    5fc2:	bdf0      	pop	{r4, r5, r6, r7, pc}
    5fc4:	1c31      	adds	r1, r6, #0
    5fc6:	2301      	movs	r3, #1
    5fc8:	4301      	orrs	r1, r0
    5fca:	d1f4      	bne.n	5fb6 <__eqdf2+0x3a>
    5fcc:	4b0c      	ldr	r3, [pc, #48]	; (6000 <__eqdf2+0x84>)
    5fce:	429c      	cmp	r4, r3
    5fd0:	d1ee      	bne.n	5fb0 <__eqdf2+0x34>
    5fd2:	433a      	orrs	r2, r7
    5fd4:	2301      	movs	r3, #1
    5fd6:	2a00      	cmp	r2, #0
    5fd8:	d1ed      	bne.n	5fb6 <__eqdf2+0x3a>
    5fda:	2301      	movs	r3, #1
    5fdc:	42a5      	cmp	r5, r4
    5fde:	d1ea      	bne.n	5fb6 <__eqdf2+0x3a>
    5fe0:	42be      	cmp	r6, r7
    5fe2:	d1e8      	bne.n	5fb6 <__eqdf2+0x3a>
    5fe4:	45c4      	cmp	ip, r8
    5fe6:	d1e6      	bne.n	5fb6 <__eqdf2+0x3a>
    5fe8:	45cb      	cmp	fp, r9
    5fea:	d006      	beq.n	5ffa <__eqdf2+0x7e>
    5fec:	2d00      	cmp	r5, #0
    5fee:	d1e2      	bne.n	5fb6 <__eqdf2+0x3a>
    5ff0:	4330      	orrs	r0, r6
    5ff2:	1c03      	adds	r3, r0, #0
    5ff4:	1e58      	subs	r0, r3, #1
    5ff6:	4183      	sbcs	r3, r0
    5ff8:	e7dd      	b.n	5fb6 <__eqdf2+0x3a>
    5ffa:	2300      	movs	r3, #0
    5ffc:	e7db      	b.n	5fb6 <__eqdf2+0x3a>
    5ffe:	46c0      	nop			; (mov r8, r8)
    6000:	000007ff 	.word	0x000007ff

00006004 <__gedf2>:
    6004:	b5f0      	push	{r4, r5, r6, r7, lr}
    6006:	4657      	mov	r7, sl
    6008:	4645      	mov	r5, r8
    600a:	464e      	mov	r6, r9
    600c:	b4e0      	push	{r5, r6, r7}
    600e:	030f      	lsls	r7, r1, #12
    6010:	004e      	lsls	r6, r1, #1
    6012:	0fc9      	lsrs	r1, r1, #31
    6014:	468a      	mov	sl, r1
    6016:	4932      	ldr	r1, [pc, #200]	; (60e0 <__gedf2+0xdc>)
    6018:	031d      	lsls	r5, r3, #12
    601a:	005c      	lsls	r4, r3, #1
    601c:	4684      	mov	ip, r0
    601e:	0b3f      	lsrs	r7, r7, #12
    6020:	0d76      	lsrs	r6, r6, #21
    6022:	4690      	mov	r8, r2
    6024:	0b2d      	lsrs	r5, r5, #12
    6026:	0d64      	lsrs	r4, r4, #21
    6028:	0fdb      	lsrs	r3, r3, #31
    602a:	428e      	cmp	r6, r1
    602c:	d00f      	beq.n	604e <__gedf2+0x4a>
    602e:	428c      	cmp	r4, r1
    6030:	d039      	beq.n	60a6 <__gedf2+0xa2>
    6032:	2e00      	cmp	r6, #0
    6034:	d110      	bne.n	6058 <__gedf2+0x54>
    6036:	4338      	orrs	r0, r7
    6038:	4241      	negs	r1, r0
    603a:	4141      	adcs	r1, r0
    603c:	4689      	mov	r9, r1
    603e:	2c00      	cmp	r4, #0
    6040:	d127      	bne.n	6092 <__gedf2+0x8e>
    6042:	432a      	orrs	r2, r5
    6044:	d125      	bne.n	6092 <__gedf2+0x8e>
    6046:	2000      	movs	r0, #0
    6048:	2900      	cmp	r1, #0
    604a:	d10e      	bne.n	606a <__gedf2+0x66>
    604c:	e008      	b.n	6060 <__gedf2+0x5c>
    604e:	1c39      	adds	r1, r7, #0
    6050:	4301      	orrs	r1, r0
    6052:	d12e      	bne.n	60b2 <__gedf2+0xae>
    6054:	42b4      	cmp	r4, r6
    6056:	d026      	beq.n	60a6 <__gedf2+0xa2>
    6058:	2c00      	cmp	r4, #0
    605a:	d00b      	beq.n	6074 <__gedf2+0x70>
    605c:	459a      	cmp	sl, r3
    605e:	d00d      	beq.n	607c <__gedf2+0x78>
    6060:	4653      	mov	r3, sl
    6062:	4259      	negs	r1, r3
    6064:	2301      	movs	r3, #1
    6066:	4319      	orrs	r1, r3
    6068:	1c08      	adds	r0, r1, #0
    606a:	bc1c      	pop	{r2, r3, r4}
    606c:	4690      	mov	r8, r2
    606e:	4699      	mov	r9, r3
    6070:	46a2      	mov	sl, r4
    6072:	bdf0      	pop	{r4, r5, r6, r7, pc}
    6074:	432a      	orrs	r2, r5
    6076:	d0f3      	beq.n	6060 <__gedf2+0x5c>
    6078:	459a      	cmp	sl, r3
    607a:	d1f1      	bne.n	6060 <__gedf2+0x5c>
    607c:	42a6      	cmp	r6, r4
    607e:	dcef      	bgt.n	6060 <__gedf2+0x5c>
    6080:	da1a      	bge.n	60b8 <__gedf2+0xb4>
    6082:	4650      	mov	r0, sl
    6084:	4241      	negs	r1, r0
    6086:	4148      	adcs	r0, r1
    6088:	2301      	movs	r3, #1
    608a:	4241      	negs	r1, r0
    608c:	4319      	orrs	r1, r3
    608e:	1c08      	adds	r0, r1, #0
    6090:	e7eb      	b.n	606a <__gedf2+0x66>
    6092:	464a      	mov	r2, r9
    6094:	2a00      	cmp	r2, #0
    6096:	d0e1      	beq.n	605c <__gedf2+0x58>
    6098:	4258      	negs	r0, r3
    609a:	4158      	adcs	r0, r3
    609c:	2201      	movs	r2, #1
    609e:	4241      	negs	r1, r0
    60a0:	4311      	orrs	r1, r2
    60a2:	1c08      	adds	r0, r1, #0
    60a4:	e7e1      	b.n	606a <__gedf2+0x66>
    60a6:	1c29      	adds	r1, r5, #0
    60a8:	4311      	orrs	r1, r2
    60aa:	d102      	bne.n	60b2 <__gedf2+0xae>
    60ac:	2e00      	cmp	r6, #0
    60ae:	d0c2      	beq.n	6036 <__gedf2+0x32>
    60b0:	e7d4      	b.n	605c <__gedf2+0x58>
    60b2:	2002      	movs	r0, #2
    60b4:	4240      	negs	r0, r0
    60b6:	e7d8      	b.n	606a <__gedf2+0x66>
    60b8:	42af      	cmp	r7, r5
    60ba:	d8d1      	bhi.n	6060 <__gedf2+0x5c>
    60bc:	d009      	beq.n	60d2 <__gedf2+0xce>
    60be:	2000      	movs	r0, #0
    60c0:	42af      	cmp	r7, r5
    60c2:	d2d2      	bcs.n	606a <__gedf2+0x66>
    60c4:	4650      	mov	r0, sl
    60c6:	4241      	negs	r1, r0
    60c8:	4148      	adcs	r0, r1
    60ca:	2301      	movs	r3, #1
    60cc:	4240      	negs	r0, r0
    60ce:	4318      	orrs	r0, r3
    60d0:	e7cb      	b.n	606a <__gedf2+0x66>
    60d2:	45c4      	cmp	ip, r8
    60d4:	d8c4      	bhi.n	6060 <__gedf2+0x5c>
    60d6:	2000      	movs	r0, #0
    60d8:	45c4      	cmp	ip, r8
    60da:	d3f3      	bcc.n	60c4 <__gedf2+0xc0>
    60dc:	e7c5      	b.n	606a <__gedf2+0x66>
    60de:	46c0      	nop			; (mov r8, r8)
    60e0:	000007ff 	.word	0x000007ff

000060e4 <__ledf2>:
    60e4:	b5f0      	push	{r4, r5, r6, r7, lr}
    60e6:	465f      	mov	r7, fp
    60e8:	464d      	mov	r5, r9
    60ea:	4644      	mov	r4, r8
    60ec:	4656      	mov	r6, sl
    60ee:	4680      	mov	r8, r0
    60f0:	b4f0      	push	{r4, r5, r6, r7}
    60f2:	1c06      	adds	r6, r0, #0
    60f4:	0308      	lsls	r0, r1, #12
    60f6:	0b00      	lsrs	r0, r0, #12
    60f8:	4684      	mov	ip, r0
    60fa:	482c      	ldr	r0, [pc, #176]	; (61ac <__ledf2+0xc8>)
    60fc:	004c      	lsls	r4, r1, #1
    60fe:	031f      	lsls	r7, r3, #12
    6100:	005d      	lsls	r5, r3, #1
    6102:	0fc9      	lsrs	r1, r1, #31
    6104:	0d64      	lsrs	r4, r4, #21
    6106:	468b      	mov	fp, r1
    6108:	4691      	mov	r9, r2
    610a:	0b3f      	lsrs	r7, r7, #12
    610c:	0d6d      	lsrs	r5, r5, #21
    610e:	0fdb      	lsrs	r3, r3, #31
    6110:	4284      	cmp	r4, r0
    6112:	d012      	beq.n	613a <__ledf2+0x56>
    6114:	4285      	cmp	r5, r0
    6116:	d025      	beq.n	6164 <__ledf2+0x80>
    6118:	2c00      	cmp	r4, #0
    611a:	d114      	bne.n	6146 <__ledf2+0x62>
    611c:	4661      	mov	r1, ip
    611e:	430e      	orrs	r6, r1
    6120:	4270      	negs	r0, r6
    6122:	4146      	adcs	r6, r0
    6124:	2d00      	cmp	r5, #0
    6126:	d035      	beq.n	6194 <__ledf2+0xb0>
    6128:	2e00      	cmp	r6, #0
    612a:	d021      	beq.n	6170 <__ledf2+0x8c>
    612c:	4258      	negs	r0, r3
    612e:	4158      	adcs	r0, r3
    6130:	2101      	movs	r1, #1
    6132:	4243      	negs	r3, r0
    6134:	430b      	orrs	r3, r1
    6136:	1c18      	adds	r0, r3, #0
    6138:	e00e      	b.n	6158 <__ledf2+0x74>
    613a:	4661      	mov	r1, ip
    613c:	2002      	movs	r0, #2
    613e:	4331      	orrs	r1, r6
    6140:	d10a      	bne.n	6158 <__ledf2+0x74>
    6142:	42a5      	cmp	r5, r4
    6144:	d00e      	beq.n	6164 <__ledf2+0x80>
    6146:	2d00      	cmp	r5, #0
    6148:	d112      	bne.n	6170 <__ledf2+0x8c>
    614a:	433a      	orrs	r2, r7
    614c:	d110      	bne.n	6170 <__ledf2+0x8c>
    614e:	465b      	mov	r3, fp
    6150:	4259      	negs	r1, r3
    6152:	2301      	movs	r3, #1
    6154:	4319      	orrs	r1, r3
    6156:	1c08      	adds	r0, r1, #0
    6158:	bc3c      	pop	{r2, r3, r4, r5}
    615a:	4690      	mov	r8, r2
    615c:	4699      	mov	r9, r3
    615e:	46a2      	mov	sl, r4
    6160:	46ab      	mov	fp, r5
    6162:	bdf0      	pop	{r4, r5, r6, r7, pc}
    6164:	1c39      	adds	r1, r7, #0
    6166:	2002      	movs	r0, #2
    6168:	4311      	orrs	r1, r2
    616a:	d1f5      	bne.n	6158 <__ledf2+0x74>
    616c:	2c00      	cmp	r4, #0
    616e:	d0d5      	beq.n	611c <__ledf2+0x38>
    6170:	459b      	cmp	fp, r3
    6172:	d1ec      	bne.n	614e <__ledf2+0x6a>
    6174:	42ac      	cmp	r4, r5
    6176:	dcea      	bgt.n	614e <__ledf2+0x6a>
    6178:	db05      	blt.n	6186 <__ledf2+0xa2>
    617a:	45bc      	cmp	ip, r7
    617c:	d8e7      	bhi.n	614e <__ledf2+0x6a>
    617e:	d00f      	beq.n	61a0 <__ledf2+0xbc>
    6180:	2000      	movs	r0, #0
    6182:	45bc      	cmp	ip, r7
    6184:	d2e8      	bcs.n	6158 <__ledf2+0x74>
    6186:	4658      	mov	r0, fp
    6188:	4241      	negs	r1, r0
    618a:	4148      	adcs	r0, r1
    618c:	4241      	negs	r1, r0
    618e:	2001      	movs	r0, #1
    6190:	4308      	orrs	r0, r1
    6192:	e7e1      	b.n	6158 <__ledf2+0x74>
    6194:	433a      	orrs	r2, r7
    6196:	d1c7      	bne.n	6128 <__ledf2+0x44>
    6198:	2000      	movs	r0, #0
    619a:	2e00      	cmp	r6, #0
    619c:	d1dc      	bne.n	6158 <__ledf2+0x74>
    619e:	e7d6      	b.n	614e <__ledf2+0x6a>
    61a0:	45c8      	cmp	r8, r9
    61a2:	d8d4      	bhi.n	614e <__ledf2+0x6a>
    61a4:	2000      	movs	r0, #0
    61a6:	45c8      	cmp	r8, r9
    61a8:	d3ed      	bcc.n	6186 <__ledf2+0xa2>
    61aa:	e7d5      	b.n	6158 <__ledf2+0x74>
    61ac:	000007ff 	.word	0x000007ff

000061b0 <__aeabi_dmul>:
    61b0:	b5f0      	push	{r4, r5, r6, r7, lr}
    61b2:	465f      	mov	r7, fp
    61b4:	4656      	mov	r6, sl
    61b6:	464d      	mov	r5, r9
    61b8:	4644      	mov	r4, r8
    61ba:	b4f0      	push	{r4, r5, r6, r7}
    61bc:	1c05      	adds	r5, r0, #0
    61be:	1c06      	adds	r6, r0, #0
    61c0:	0308      	lsls	r0, r1, #12
    61c2:	b087      	sub	sp, #28
    61c4:	4699      	mov	r9, r3
    61c6:	004f      	lsls	r7, r1, #1
    61c8:	0b03      	lsrs	r3, r0, #12
    61ca:	0fcc      	lsrs	r4, r1, #31
    61cc:	4692      	mov	sl, r2
    61ce:	469b      	mov	fp, r3
    61d0:	0d7f      	lsrs	r7, r7, #21
    61d2:	9401      	str	r4, [sp, #4]
    61d4:	d067      	beq.n	62a6 <__aeabi_dmul+0xf6>
    61d6:	4b6c      	ldr	r3, [pc, #432]	; (6388 <__aeabi_dmul+0x1d8>)
    61d8:	429f      	cmp	r7, r3
    61da:	d036      	beq.n	624a <__aeabi_dmul+0x9a>
    61dc:	2080      	movs	r0, #128	; 0x80
    61de:	465b      	mov	r3, fp
    61e0:	0340      	lsls	r0, r0, #13
    61e2:	4318      	orrs	r0, r3
    61e4:	00c0      	lsls	r0, r0, #3
    61e6:	0f6b      	lsrs	r3, r5, #29
    61e8:	4318      	orrs	r0, r3
    61ea:	4b68      	ldr	r3, [pc, #416]	; (638c <__aeabi_dmul+0x1dc>)
    61ec:	4683      	mov	fp, r0
    61ee:	469c      	mov	ip, r3
    61f0:	2300      	movs	r3, #0
    61f2:	4698      	mov	r8, r3
    61f4:	00ee      	lsls	r6, r5, #3
    61f6:	4467      	add	r7, ip
    61f8:	9300      	str	r3, [sp, #0]
    61fa:	464b      	mov	r3, r9
    61fc:	4649      	mov	r1, r9
    61fe:	031d      	lsls	r5, r3, #12
    6200:	0fc9      	lsrs	r1, r1, #31
    6202:	005b      	lsls	r3, r3, #1
    6204:	4652      	mov	r2, sl
    6206:	0b2d      	lsrs	r5, r5, #12
    6208:	0d5b      	lsrs	r3, r3, #21
    620a:	4689      	mov	r9, r1
    620c:	d100      	bne.n	6210 <__aeabi_dmul+0x60>
    620e:	e06e      	b.n	62ee <__aeabi_dmul+0x13e>
    6210:	495d      	ldr	r1, [pc, #372]	; (6388 <__aeabi_dmul+0x1d8>)
    6212:	428b      	cmp	r3, r1
    6214:	d064      	beq.n	62e0 <__aeabi_dmul+0x130>
    6216:	2080      	movs	r0, #128	; 0x80
    6218:	495c      	ldr	r1, [pc, #368]	; (638c <__aeabi_dmul+0x1dc>)
    621a:	0340      	lsls	r0, r0, #13
    621c:	468c      	mov	ip, r1
    621e:	2100      	movs	r1, #0
    6220:	4305      	orrs	r5, r0
    6222:	00ed      	lsls	r5, r5, #3
    6224:	0f50      	lsrs	r0, r2, #29
    6226:	4305      	orrs	r5, r0
    6228:	00d2      	lsls	r2, r2, #3
    622a:	4463      	add	r3, ip
    622c:	4648      	mov	r0, r9
    622e:	18ff      	adds	r7, r7, r3
    6230:	1c7b      	adds	r3, r7, #1
    6232:	469a      	mov	sl, r3
    6234:	9b00      	ldr	r3, [sp, #0]
    6236:	4060      	eors	r0, r4
    6238:	9002      	str	r0, [sp, #8]
    623a:	430b      	orrs	r3, r1
    623c:	2b0f      	cmp	r3, #15
    623e:	d900      	bls.n	6242 <__aeabi_dmul+0x92>
    6240:	e0ac      	b.n	639c <__aeabi_dmul+0x1ec>
    6242:	4853      	ldr	r0, [pc, #332]	; (6390 <__aeabi_dmul+0x1e0>)
    6244:	009b      	lsls	r3, r3, #2
    6246:	58c3      	ldr	r3, [r0, r3]
    6248:	469f      	mov	pc, r3
    624a:	465b      	mov	r3, fp
    624c:	431d      	orrs	r5, r3
    624e:	d000      	beq.n	6252 <__aeabi_dmul+0xa2>
    6250:	e082      	b.n	6358 <__aeabi_dmul+0x1a8>
    6252:	2308      	movs	r3, #8
    6254:	9300      	str	r3, [sp, #0]
    6256:	2300      	movs	r3, #0
    6258:	469b      	mov	fp, r3
    625a:	3302      	adds	r3, #2
    625c:	2600      	movs	r6, #0
    625e:	4698      	mov	r8, r3
    6260:	e7cb      	b.n	61fa <__aeabi_dmul+0x4a>
    6262:	9b02      	ldr	r3, [sp, #8]
    6264:	9301      	str	r3, [sp, #4]
    6266:	4643      	mov	r3, r8
    6268:	2b02      	cmp	r3, #2
    626a:	d159      	bne.n	6320 <__aeabi_dmul+0x170>
    626c:	2401      	movs	r4, #1
    626e:	2500      	movs	r5, #0
    6270:	2600      	movs	r6, #0
    6272:	9b01      	ldr	r3, [sp, #4]
    6274:	401c      	ands	r4, r3
    6276:	4b44      	ldr	r3, [pc, #272]	; (6388 <__aeabi_dmul+0x1d8>)
    6278:	2100      	movs	r1, #0
    627a:	032d      	lsls	r5, r5, #12
    627c:	0d0a      	lsrs	r2, r1, #20
    627e:	0512      	lsls	r2, r2, #20
    6280:	0b2d      	lsrs	r5, r5, #12
    6282:	4315      	orrs	r5, r2
    6284:	4a43      	ldr	r2, [pc, #268]	; (6394 <__aeabi_dmul+0x1e4>)
    6286:	051b      	lsls	r3, r3, #20
    6288:	4015      	ands	r5, r2
    628a:	431d      	orrs	r5, r3
    628c:	006d      	lsls	r5, r5, #1
    628e:	07e4      	lsls	r4, r4, #31
    6290:	086d      	lsrs	r5, r5, #1
    6292:	4325      	orrs	r5, r4
    6294:	1c30      	adds	r0, r6, #0
    6296:	1c29      	adds	r1, r5, #0
    6298:	b007      	add	sp, #28
    629a:	bc3c      	pop	{r2, r3, r4, r5}
    629c:	4690      	mov	r8, r2
    629e:	4699      	mov	r9, r3
    62a0:	46a2      	mov	sl, r4
    62a2:	46ab      	mov	fp, r5
    62a4:	bdf0      	pop	{r4, r5, r6, r7, pc}
    62a6:	432b      	orrs	r3, r5
    62a8:	d04e      	beq.n	6348 <__aeabi_dmul+0x198>
    62aa:	465b      	mov	r3, fp
    62ac:	2b00      	cmp	r3, #0
    62ae:	d100      	bne.n	62b2 <__aeabi_dmul+0x102>
    62b0:	e185      	b.n	65be <__aeabi_dmul+0x40e>
    62b2:	4658      	mov	r0, fp
    62b4:	f000 fefe 	bl	70b4 <__clzsi2>
    62b8:	1c02      	adds	r2, r0, #0
    62ba:	2328      	movs	r3, #40	; 0x28
    62bc:	1c29      	adds	r1, r5, #0
    62be:	1a9b      	subs	r3, r3, r2
    62c0:	1c16      	adds	r6, r2, #0
    62c2:	4658      	mov	r0, fp
    62c4:	40d9      	lsrs	r1, r3
    62c6:	3e08      	subs	r6, #8
    62c8:	40b0      	lsls	r0, r6
    62ca:	1c0b      	adds	r3, r1, #0
    62cc:	40b5      	lsls	r5, r6
    62ce:	4303      	orrs	r3, r0
    62d0:	469b      	mov	fp, r3
    62d2:	1c2e      	adds	r6, r5, #0
    62d4:	2300      	movs	r3, #0
    62d6:	4f30      	ldr	r7, [pc, #192]	; (6398 <__aeabi_dmul+0x1e8>)
    62d8:	9300      	str	r3, [sp, #0]
    62da:	1abf      	subs	r7, r7, r2
    62dc:	4698      	mov	r8, r3
    62de:	e78c      	b.n	61fa <__aeabi_dmul+0x4a>
    62e0:	4651      	mov	r1, sl
    62e2:	4329      	orrs	r1, r5
    62e4:	d12e      	bne.n	6344 <__aeabi_dmul+0x194>
    62e6:	2500      	movs	r5, #0
    62e8:	2200      	movs	r2, #0
    62ea:	2102      	movs	r1, #2
    62ec:	e79e      	b.n	622c <__aeabi_dmul+0x7c>
    62ee:	4651      	mov	r1, sl
    62f0:	4329      	orrs	r1, r5
    62f2:	d023      	beq.n	633c <__aeabi_dmul+0x18c>
    62f4:	2d00      	cmp	r5, #0
    62f6:	d100      	bne.n	62fa <__aeabi_dmul+0x14a>
    62f8:	e154      	b.n	65a4 <__aeabi_dmul+0x3f4>
    62fa:	1c28      	adds	r0, r5, #0
    62fc:	f000 feda 	bl	70b4 <__clzsi2>
    6300:	1c03      	adds	r3, r0, #0
    6302:	2128      	movs	r1, #40	; 0x28
    6304:	4650      	mov	r0, sl
    6306:	1ac9      	subs	r1, r1, r3
    6308:	1c1a      	adds	r2, r3, #0
    630a:	40c8      	lsrs	r0, r1
    630c:	4651      	mov	r1, sl
    630e:	3a08      	subs	r2, #8
    6310:	4091      	lsls	r1, r2
    6312:	4095      	lsls	r5, r2
    6314:	1c0a      	adds	r2, r1, #0
    6316:	4305      	orrs	r5, r0
    6318:	481f      	ldr	r0, [pc, #124]	; (6398 <__aeabi_dmul+0x1e8>)
    631a:	2100      	movs	r1, #0
    631c:	1ac3      	subs	r3, r0, r3
    631e:	e785      	b.n	622c <__aeabi_dmul+0x7c>
    6320:	2b03      	cmp	r3, #3
    6322:	d100      	bne.n	6326 <__aeabi_dmul+0x176>
    6324:	e1c2      	b.n	66ac <__aeabi_dmul+0x4fc>
    6326:	2b01      	cmp	r3, #1
    6328:	d000      	beq.n	632c <__aeabi_dmul+0x17c>
    632a:	e16d      	b.n	6608 <__aeabi_dmul+0x458>
    632c:	4644      	mov	r4, r8
    632e:	9b01      	ldr	r3, [sp, #4]
    6330:	2500      	movs	r5, #0
    6332:	401c      	ands	r4, r3
    6334:	b2e4      	uxtb	r4, r4
    6336:	2300      	movs	r3, #0
    6338:	2600      	movs	r6, #0
    633a:	e79d      	b.n	6278 <__aeabi_dmul+0xc8>
    633c:	2500      	movs	r5, #0
    633e:	2200      	movs	r2, #0
    6340:	2101      	movs	r1, #1
    6342:	e773      	b.n	622c <__aeabi_dmul+0x7c>
    6344:	2103      	movs	r1, #3
    6346:	e771      	b.n	622c <__aeabi_dmul+0x7c>
    6348:	2304      	movs	r3, #4
    634a:	9300      	str	r3, [sp, #0]
    634c:	2300      	movs	r3, #0
    634e:	469b      	mov	fp, r3
    6350:	3301      	adds	r3, #1
    6352:	2600      	movs	r6, #0
    6354:	4698      	mov	r8, r3
    6356:	e750      	b.n	61fa <__aeabi_dmul+0x4a>
    6358:	230c      	movs	r3, #12
    635a:	9300      	str	r3, [sp, #0]
    635c:	3b09      	subs	r3, #9
    635e:	4698      	mov	r8, r3
    6360:	e74b      	b.n	61fa <__aeabi_dmul+0x4a>
    6362:	2580      	movs	r5, #128	; 0x80
    6364:	2400      	movs	r4, #0
    6366:	032d      	lsls	r5, r5, #12
    6368:	2600      	movs	r6, #0
    636a:	4b07      	ldr	r3, [pc, #28]	; (6388 <__aeabi_dmul+0x1d8>)
    636c:	e784      	b.n	6278 <__aeabi_dmul+0xc8>
    636e:	464b      	mov	r3, r9
    6370:	46ab      	mov	fp, r5
    6372:	1c16      	adds	r6, r2, #0
    6374:	9301      	str	r3, [sp, #4]
    6376:	4688      	mov	r8, r1
    6378:	e775      	b.n	6266 <__aeabi_dmul+0xb6>
    637a:	9b02      	ldr	r3, [sp, #8]
    637c:	46ab      	mov	fp, r5
    637e:	1c16      	adds	r6, r2, #0
    6380:	9301      	str	r3, [sp, #4]
    6382:	4688      	mov	r8, r1
    6384:	e76f      	b.n	6266 <__aeabi_dmul+0xb6>
    6386:	46c0      	nop			; (mov r8, r8)
    6388:	000007ff 	.word	0x000007ff
    638c:	fffffc01 	.word	0xfffffc01
    6390:	000079dc 	.word	0x000079dc
    6394:	800fffff 	.word	0x800fffff
    6398:	fffffc0d 	.word	0xfffffc0d
    639c:	0c33      	lsrs	r3, r6, #16
    639e:	0436      	lsls	r6, r6, #16
    63a0:	0c36      	lsrs	r6, r6, #16
    63a2:	469c      	mov	ip, r3
    63a4:	1c33      	adds	r3, r6, #0
    63a6:	0c14      	lsrs	r4, r2, #16
    63a8:	0412      	lsls	r2, r2, #16
    63aa:	0c12      	lsrs	r2, r2, #16
    63ac:	4353      	muls	r3, r2
    63ae:	4698      	mov	r8, r3
    63b0:	4663      	mov	r3, ip
    63b2:	4353      	muls	r3, r2
    63b4:	4699      	mov	r9, r3
    63b6:	4663      	mov	r3, ip
    63b8:	4363      	muls	r3, r4
    63ba:	9301      	str	r3, [sp, #4]
    63bc:	1c33      	adds	r3, r6, #0
    63be:	4641      	mov	r1, r8
    63c0:	4363      	muls	r3, r4
    63c2:	0c09      	lsrs	r1, r1, #16
    63c4:	444b      	add	r3, r9
    63c6:	185b      	adds	r3, r3, r1
    63c8:	4599      	cmp	r9, r3
    63ca:	d905      	bls.n	63d8 <__aeabi_dmul+0x228>
    63cc:	2080      	movs	r0, #128	; 0x80
    63ce:	0240      	lsls	r0, r0, #9
    63d0:	4681      	mov	r9, r0
    63d2:	9901      	ldr	r1, [sp, #4]
    63d4:	4449      	add	r1, r9
    63d6:	9101      	str	r1, [sp, #4]
    63d8:	0c19      	lsrs	r1, r3, #16
    63da:	9103      	str	r1, [sp, #12]
    63dc:	4641      	mov	r1, r8
    63de:	0409      	lsls	r1, r1, #16
    63e0:	0c09      	lsrs	r1, r1, #16
    63e2:	041b      	lsls	r3, r3, #16
    63e4:	185b      	adds	r3, r3, r1
    63e6:	9304      	str	r3, [sp, #16]
    63e8:	0c2b      	lsrs	r3, r5, #16
    63ea:	4698      	mov	r8, r3
    63ec:	1c33      	adds	r3, r6, #0
    63ee:	042d      	lsls	r5, r5, #16
    63f0:	0c29      	lsrs	r1, r5, #16
    63f2:	434b      	muls	r3, r1
    63f4:	4660      	mov	r0, ip
    63f6:	9300      	str	r3, [sp, #0]
    63f8:	4643      	mov	r3, r8
    63fa:	4665      	mov	r5, ip
    63fc:	4358      	muls	r0, r3
    63fe:	435e      	muls	r6, r3
    6400:	9b00      	ldr	r3, [sp, #0]
    6402:	434d      	muls	r5, r1
    6404:	0c1b      	lsrs	r3, r3, #16
    6406:	4699      	mov	r9, r3
    6408:	19ae      	adds	r6, r5, r6
    640a:	444e      	add	r6, r9
    640c:	4684      	mov	ip, r0
    640e:	42b5      	cmp	r5, r6
    6410:	d903      	bls.n	641a <__aeabi_dmul+0x26a>
    6412:	2380      	movs	r3, #128	; 0x80
    6414:	025b      	lsls	r3, r3, #9
    6416:	4699      	mov	r9, r3
    6418:	44cc      	add	ip, r9
    641a:	0c35      	lsrs	r5, r6, #16
    641c:	1c2b      	adds	r3, r5, #0
    641e:	9803      	ldr	r0, [sp, #12]
    6420:	4463      	add	r3, ip
    6422:	4684      	mov	ip, r0
    6424:	9305      	str	r3, [sp, #20]
    6426:	9b00      	ldr	r3, [sp, #0]
    6428:	0436      	lsls	r6, r6, #16
    642a:	041b      	lsls	r3, r3, #16
    642c:	0c1b      	lsrs	r3, r3, #16
    642e:	18f3      	adds	r3, r6, r3
    6430:	449c      	add	ip, r3
    6432:	4660      	mov	r0, ip
    6434:	9003      	str	r0, [sp, #12]
    6436:	4658      	mov	r0, fp
    6438:	0405      	lsls	r5, r0, #16
    643a:	0c06      	lsrs	r6, r0, #16
    643c:	0c28      	lsrs	r0, r5, #16
    643e:	4684      	mov	ip, r0
    6440:	4350      	muls	r0, r2
    6442:	1c35      	adds	r5, r6, #0
    6444:	4681      	mov	r9, r0
    6446:	4660      	mov	r0, ip
    6448:	4365      	muls	r5, r4
    644a:	4344      	muls	r4, r0
    644c:	4648      	mov	r0, r9
    644e:	0c00      	lsrs	r0, r0, #16
    6450:	4683      	mov	fp, r0
    6452:	4372      	muls	r2, r6
    6454:	1914      	adds	r4, r2, r4
    6456:	445c      	add	r4, fp
    6458:	42a2      	cmp	r2, r4
    645a:	d903      	bls.n	6464 <__aeabi_dmul+0x2b4>
    645c:	2280      	movs	r2, #128	; 0x80
    645e:	0252      	lsls	r2, r2, #9
    6460:	4693      	mov	fp, r2
    6462:	445d      	add	r5, fp
    6464:	0c22      	lsrs	r2, r4, #16
    6466:	18ad      	adds	r5, r5, r2
    6468:	464a      	mov	r2, r9
    646a:	0412      	lsls	r2, r2, #16
    646c:	0c12      	lsrs	r2, r2, #16
    646e:	0424      	lsls	r4, r4, #16
    6470:	4640      	mov	r0, r8
    6472:	18a4      	adds	r4, r4, r2
    6474:	4662      	mov	r2, ip
    6476:	434a      	muls	r2, r1
    6478:	4371      	muls	r1, r6
    647a:	4346      	muls	r6, r0
    647c:	4660      	mov	r0, ip
    647e:	9600      	str	r6, [sp, #0]
    6480:	4646      	mov	r6, r8
    6482:	4370      	muls	r0, r6
    6484:	4680      	mov	r8, r0
    6486:	0c10      	lsrs	r0, r2, #16
    6488:	4684      	mov	ip, r0
    648a:	4488      	add	r8, r1
    648c:	44e0      	add	r8, ip
    648e:	4541      	cmp	r1, r8
    6490:	d905      	bls.n	649e <__aeabi_dmul+0x2ee>
    6492:	2180      	movs	r1, #128	; 0x80
    6494:	0249      	lsls	r1, r1, #9
    6496:	468c      	mov	ip, r1
    6498:	9900      	ldr	r1, [sp, #0]
    649a:	4461      	add	r1, ip
    649c:	9100      	str	r1, [sp, #0]
    649e:	9801      	ldr	r0, [sp, #4]
    64a0:	9903      	ldr	r1, [sp, #12]
    64a2:	4684      	mov	ip, r0
    64a4:	4461      	add	r1, ip
    64a6:	4299      	cmp	r1, r3
    64a8:	419b      	sbcs	r3, r3
    64aa:	425b      	negs	r3, r3
    64ac:	4699      	mov	r9, r3
    64ae:	9805      	ldr	r0, [sp, #20]
    64b0:	4643      	mov	r3, r8
    64b2:	4684      	mov	ip, r0
    64b4:	0412      	lsls	r2, r2, #16
    64b6:	0c12      	lsrs	r2, r2, #16
    64b8:	041b      	lsls	r3, r3, #16
    64ba:	189b      	adds	r3, r3, r2
    64bc:	4463      	add	r3, ip
    64be:	469c      	mov	ip, r3
    64c0:	46ab      	mov	fp, r5
    64c2:	4283      	cmp	r3, r0
    64c4:	419b      	sbcs	r3, r3
    64c6:	4640      	mov	r0, r8
    64c8:	190a      	adds	r2, r1, r4
    64ca:	44cc      	add	ip, r9
    64cc:	42a2      	cmp	r2, r4
    64ce:	4189      	sbcs	r1, r1
    64d0:	44e3      	add	fp, ip
    64d2:	45cc      	cmp	ip, r9
    64d4:	41b6      	sbcs	r6, r6
    64d6:	465c      	mov	r4, fp
    64d8:	0c00      	lsrs	r0, r0, #16
    64da:	4680      	mov	r8, r0
    64dc:	4249      	negs	r1, r1
    64de:	4276      	negs	r6, r6
    64e0:	425b      	negs	r3, r3
    64e2:	1864      	adds	r4, r4, r1
    64e4:	4333      	orrs	r3, r6
    64e6:	4498      	add	r8, r3
    64e8:	428c      	cmp	r4, r1
    64ea:	4189      	sbcs	r1, r1
    64ec:	45ab      	cmp	fp, r5
    64ee:	419b      	sbcs	r3, r3
    64f0:	4249      	negs	r1, r1
    64f2:	425b      	negs	r3, r3
    64f4:	4319      	orrs	r1, r3
    64f6:	1c0d      	adds	r5, r1, #0
    64f8:	9b00      	ldr	r3, [sp, #0]
    64fa:	4445      	add	r5, r8
    64fc:	18ee      	adds	r6, r5, r3
    64fe:	0276      	lsls	r6, r6, #9
    6500:	0de5      	lsrs	r5, r4, #23
    6502:	432e      	orrs	r6, r5
    6504:	46b3      	mov	fp, r6
    6506:	9b04      	ldr	r3, [sp, #16]
    6508:	0256      	lsls	r6, r2, #9
    650a:	431e      	orrs	r6, r3
    650c:	1e73      	subs	r3, r6, #1
    650e:	419e      	sbcs	r6, r3
    6510:	465b      	mov	r3, fp
    6512:	0dd2      	lsrs	r2, r2, #23
    6514:	4332      	orrs	r2, r6
    6516:	0266      	lsls	r6, r4, #9
    6518:	4316      	orrs	r6, r2
    651a:	01db      	lsls	r3, r3, #7
    651c:	d50a      	bpl.n	6534 <__aeabi_dmul+0x384>
    651e:	2301      	movs	r3, #1
    6520:	4033      	ands	r3, r6
    6522:	0876      	lsrs	r6, r6, #1
    6524:	431e      	orrs	r6, r3
    6526:	465b      	mov	r3, fp
    6528:	07db      	lsls	r3, r3, #31
    652a:	431e      	orrs	r6, r3
    652c:	465b      	mov	r3, fp
    652e:	085b      	lsrs	r3, r3, #1
    6530:	469b      	mov	fp, r3
    6532:	4657      	mov	r7, sl
    6534:	4b63      	ldr	r3, [pc, #396]	; (66c4 <__aeabi_dmul+0x514>)
    6536:	18fb      	adds	r3, r7, r3
    6538:	2b00      	cmp	r3, #0
    653a:	dd5a      	ble.n	65f2 <__aeabi_dmul+0x442>
    653c:	0772      	lsls	r2, r6, #29
    653e:	d009      	beq.n	6554 <__aeabi_dmul+0x3a4>
    6540:	220f      	movs	r2, #15
    6542:	4032      	ands	r2, r6
    6544:	2a04      	cmp	r2, #4
    6546:	d005      	beq.n	6554 <__aeabi_dmul+0x3a4>
    6548:	1d32      	adds	r2, r6, #4
    654a:	42b2      	cmp	r2, r6
    654c:	41b6      	sbcs	r6, r6
    654e:	4276      	negs	r6, r6
    6550:	44b3      	add	fp, r6
    6552:	1c16      	adds	r6, r2, #0
    6554:	465a      	mov	r2, fp
    6556:	01d2      	lsls	r2, r2, #7
    6558:	d506      	bpl.n	6568 <__aeabi_dmul+0x3b8>
    655a:	465a      	mov	r2, fp
    655c:	4b5a      	ldr	r3, [pc, #360]	; (66c8 <__aeabi_dmul+0x518>)
    655e:	401a      	ands	r2, r3
    6560:	2380      	movs	r3, #128	; 0x80
    6562:	4693      	mov	fp, r2
    6564:	00db      	lsls	r3, r3, #3
    6566:	18fb      	adds	r3, r7, r3
    6568:	4a58      	ldr	r2, [pc, #352]	; (66cc <__aeabi_dmul+0x51c>)
    656a:	4293      	cmp	r3, r2
    656c:	dd34      	ble.n	65d8 <__aeabi_dmul+0x428>
    656e:	2401      	movs	r4, #1
    6570:	9b02      	ldr	r3, [sp, #8]
    6572:	2500      	movs	r5, #0
    6574:	401c      	ands	r4, r3
    6576:	2600      	movs	r6, #0
    6578:	4b55      	ldr	r3, [pc, #340]	; (66d0 <__aeabi_dmul+0x520>)
    657a:	e67d      	b.n	6278 <__aeabi_dmul+0xc8>
    657c:	2080      	movs	r0, #128	; 0x80
    657e:	465b      	mov	r3, fp
    6580:	0300      	lsls	r0, r0, #12
    6582:	4203      	tst	r3, r0
    6584:	d008      	beq.n	6598 <__aeabi_dmul+0x3e8>
    6586:	4205      	tst	r5, r0
    6588:	d106      	bne.n	6598 <__aeabi_dmul+0x3e8>
    658a:	4305      	orrs	r5, r0
    658c:	032d      	lsls	r5, r5, #12
    658e:	0b2d      	lsrs	r5, r5, #12
    6590:	464c      	mov	r4, r9
    6592:	1c16      	adds	r6, r2, #0
    6594:	4b4e      	ldr	r3, [pc, #312]	; (66d0 <__aeabi_dmul+0x520>)
    6596:	e66f      	b.n	6278 <__aeabi_dmul+0xc8>
    6598:	465d      	mov	r5, fp
    659a:	4305      	orrs	r5, r0
    659c:	032d      	lsls	r5, r5, #12
    659e:	0b2d      	lsrs	r5, r5, #12
    65a0:	4b4b      	ldr	r3, [pc, #300]	; (66d0 <__aeabi_dmul+0x520>)
    65a2:	e669      	b.n	6278 <__aeabi_dmul+0xc8>
    65a4:	4650      	mov	r0, sl
    65a6:	f000 fd85 	bl	70b4 <__clzsi2>
    65aa:	1c03      	adds	r3, r0, #0
    65ac:	3320      	adds	r3, #32
    65ae:	2b27      	cmp	r3, #39	; 0x27
    65b0:	dc00      	bgt.n	65b4 <__aeabi_dmul+0x404>
    65b2:	e6a6      	b.n	6302 <__aeabi_dmul+0x152>
    65b4:	4655      	mov	r5, sl
    65b6:	3808      	subs	r0, #8
    65b8:	4085      	lsls	r5, r0
    65ba:	2200      	movs	r2, #0
    65bc:	e6ac      	b.n	6318 <__aeabi_dmul+0x168>
    65be:	1c28      	adds	r0, r5, #0
    65c0:	f000 fd78 	bl	70b4 <__clzsi2>
    65c4:	1c02      	adds	r2, r0, #0
    65c6:	3220      	adds	r2, #32
    65c8:	2a27      	cmp	r2, #39	; 0x27
    65ca:	dc00      	bgt.n	65ce <__aeabi_dmul+0x41e>
    65cc:	e675      	b.n	62ba <__aeabi_dmul+0x10a>
    65ce:	3808      	subs	r0, #8
    65d0:	4085      	lsls	r5, r0
    65d2:	2600      	movs	r6, #0
    65d4:	46ab      	mov	fp, r5
    65d6:	e67d      	b.n	62d4 <__aeabi_dmul+0x124>
    65d8:	465a      	mov	r2, fp
    65da:	08f6      	lsrs	r6, r6, #3
    65dc:	0752      	lsls	r2, r2, #29
    65de:	4316      	orrs	r6, r2
    65e0:	465a      	mov	r2, fp
    65e2:	2401      	movs	r4, #1
    65e4:	0255      	lsls	r5, r2, #9
    65e6:	9a02      	ldr	r2, [sp, #8]
    65e8:	055b      	lsls	r3, r3, #21
    65ea:	0b2d      	lsrs	r5, r5, #12
    65ec:	0d5b      	lsrs	r3, r3, #21
    65ee:	4014      	ands	r4, r2
    65f0:	e642      	b.n	6278 <__aeabi_dmul+0xc8>
    65f2:	4d38      	ldr	r5, [pc, #224]	; (66d4 <__aeabi_dmul+0x524>)
    65f4:	1bed      	subs	r5, r5, r7
    65f6:	2d38      	cmp	r5, #56	; 0x38
    65f8:	dd0a      	ble.n	6610 <__aeabi_dmul+0x460>
    65fa:	2401      	movs	r4, #1
    65fc:	9b02      	ldr	r3, [sp, #8]
    65fe:	2500      	movs	r5, #0
    6600:	401c      	ands	r4, r3
    6602:	2600      	movs	r6, #0
    6604:	2300      	movs	r3, #0
    6606:	e637      	b.n	6278 <__aeabi_dmul+0xc8>
    6608:	9b01      	ldr	r3, [sp, #4]
    660a:	4657      	mov	r7, sl
    660c:	9302      	str	r3, [sp, #8]
    660e:	e791      	b.n	6534 <__aeabi_dmul+0x384>
    6610:	2d1f      	cmp	r5, #31
    6612:	dc25      	bgt.n	6660 <__aeabi_dmul+0x4b0>
    6614:	4b30      	ldr	r3, [pc, #192]	; (66d8 <__aeabi_dmul+0x528>)
    6616:	1c32      	adds	r2, r6, #0
    6618:	469c      	mov	ip, r3
    661a:	4467      	add	r7, ip
    661c:	40be      	lsls	r6, r7
    661e:	465b      	mov	r3, fp
    6620:	40bb      	lsls	r3, r7
    6622:	1c37      	adds	r7, r6, #0
    6624:	40ea      	lsrs	r2, r5
    6626:	1e7e      	subs	r6, r7, #1
    6628:	41b7      	sbcs	r7, r6
    662a:	4313      	orrs	r3, r2
    662c:	433b      	orrs	r3, r7
    662e:	1c1e      	adds	r6, r3, #0
    6630:	465b      	mov	r3, fp
    6632:	40eb      	lsrs	r3, r5
    6634:	1c1d      	adds	r5, r3, #0
    6636:	0773      	lsls	r3, r6, #29
    6638:	d009      	beq.n	664e <__aeabi_dmul+0x49e>
    663a:	230f      	movs	r3, #15
    663c:	4033      	ands	r3, r6
    663e:	2b04      	cmp	r3, #4
    6640:	d005      	beq.n	664e <__aeabi_dmul+0x49e>
    6642:	1d33      	adds	r3, r6, #4
    6644:	42b3      	cmp	r3, r6
    6646:	41b6      	sbcs	r6, r6
    6648:	4276      	negs	r6, r6
    664a:	19ad      	adds	r5, r5, r6
    664c:	1c1e      	adds	r6, r3, #0
    664e:	022b      	lsls	r3, r5, #8
    6650:	d520      	bpl.n	6694 <__aeabi_dmul+0x4e4>
    6652:	2401      	movs	r4, #1
    6654:	9b02      	ldr	r3, [sp, #8]
    6656:	2500      	movs	r5, #0
    6658:	401c      	ands	r4, r3
    665a:	2600      	movs	r6, #0
    665c:	2301      	movs	r3, #1
    665e:	e60b      	b.n	6278 <__aeabi_dmul+0xc8>
    6660:	465a      	mov	r2, fp
    6662:	4b1e      	ldr	r3, [pc, #120]	; (66dc <__aeabi_dmul+0x52c>)
    6664:	1bdb      	subs	r3, r3, r7
    6666:	40da      	lsrs	r2, r3
    6668:	1c13      	adds	r3, r2, #0
    666a:	2d20      	cmp	r5, #32
    666c:	d01c      	beq.n	66a8 <__aeabi_dmul+0x4f8>
    666e:	4a1c      	ldr	r2, [pc, #112]	; (66e0 <__aeabi_dmul+0x530>)
    6670:	4694      	mov	ip, r2
    6672:	465a      	mov	r2, fp
    6674:	4467      	add	r7, ip
    6676:	40ba      	lsls	r2, r7
    6678:	1c17      	adds	r7, r2, #0
    667a:	433e      	orrs	r6, r7
    667c:	1e72      	subs	r2, r6, #1
    667e:	4196      	sbcs	r6, r2
    6680:	431e      	orrs	r6, r3
    6682:	2307      	movs	r3, #7
    6684:	2500      	movs	r5, #0
    6686:	4033      	ands	r3, r6
    6688:	d007      	beq.n	669a <__aeabi_dmul+0x4ea>
    668a:	230f      	movs	r3, #15
    668c:	2500      	movs	r5, #0
    668e:	4033      	ands	r3, r6
    6690:	2b04      	cmp	r3, #4
    6692:	d1d6      	bne.n	6642 <__aeabi_dmul+0x492>
    6694:	076b      	lsls	r3, r5, #29
    6696:	026d      	lsls	r5, r5, #9
    6698:	0b2d      	lsrs	r5, r5, #12
    669a:	2401      	movs	r4, #1
    669c:	08f6      	lsrs	r6, r6, #3
    669e:	431e      	orrs	r6, r3
    66a0:	9b02      	ldr	r3, [sp, #8]
    66a2:	401c      	ands	r4, r3
    66a4:	2300      	movs	r3, #0
    66a6:	e5e7      	b.n	6278 <__aeabi_dmul+0xc8>
    66a8:	2700      	movs	r7, #0
    66aa:	e7e6      	b.n	667a <__aeabi_dmul+0x4ca>
    66ac:	2580      	movs	r5, #128	; 0x80
    66ae:	465b      	mov	r3, fp
    66b0:	2401      	movs	r4, #1
    66b2:	032d      	lsls	r5, r5, #12
    66b4:	431d      	orrs	r5, r3
    66b6:	9b01      	ldr	r3, [sp, #4]
    66b8:	032d      	lsls	r5, r5, #12
    66ba:	4023      	ands	r3, r4
    66bc:	1c1c      	adds	r4, r3, #0
    66be:	0b2d      	lsrs	r5, r5, #12
    66c0:	4b03      	ldr	r3, [pc, #12]	; (66d0 <__aeabi_dmul+0x520>)
    66c2:	e5d9      	b.n	6278 <__aeabi_dmul+0xc8>
    66c4:	000003ff 	.word	0x000003ff
    66c8:	feffffff 	.word	0xfeffffff
    66cc:	000007fe 	.word	0x000007fe
    66d0:	000007ff 	.word	0x000007ff
    66d4:	fffffc02 	.word	0xfffffc02
    66d8:	0000041e 	.word	0x0000041e
    66dc:	fffffbe2 	.word	0xfffffbe2
    66e0:	0000043e 	.word	0x0000043e

000066e4 <__aeabi_dsub>:
    66e4:	b5f0      	push	{r4, r5, r6, r7, lr}
    66e6:	464d      	mov	r5, r9
    66e8:	4644      	mov	r4, r8
    66ea:	465f      	mov	r7, fp
    66ec:	4656      	mov	r6, sl
    66ee:	b4f0      	push	{r4, r5, r6, r7}
    66f0:	1c0e      	adds	r6, r1, #0
    66f2:	1c11      	adds	r1, r2, #0
    66f4:	0332      	lsls	r2, r6, #12
    66f6:	0a52      	lsrs	r2, r2, #9
    66f8:	0f47      	lsrs	r7, r0, #29
    66fa:	4317      	orrs	r7, r2
    66fc:	00c5      	lsls	r5, r0, #3
    66fe:	031a      	lsls	r2, r3, #12
    6700:	0058      	lsls	r0, r3, #1
    6702:	0fdb      	lsrs	r3, r3, #31
    6704:	4699      	mov	r9, r3
    6706:	0a52      	lsrs	r2, r2, #9
    6708:	0f4b      	lsrs	r3, r1, #29
    670a:	b083      	sub	sp, #12
    670c:	431a      	orrs	r2, r3
    670e:	00cb      	lsls	r3, r1, #3
    6710:	9301      	str	r3, [sp, #4]
    6712:	4bcf      	ldr	r3, [pc, #828]	; (6a50 <__aeabi_dsub+0x36c>)
    6714:	0074      	lsls	r4, r6, #1
    6716:	0ff6      	lsrs	r6, r6, #31
    6718:	0d64      	lsrs	r4, r4, #21
    671a:	46b0      	mov	r8, r6
    671c:	0d40      	lsrs	r0, r0, #21
    671e:	4298      	cmp	r0, r3
    6720:	d100      	bne.n	6724 <__aeabi_dsub+0x40>
    6722:	e0e8      	b.n	68f6 <__aeabi_dsub+0x212>
    6724:	2301      	movs	r3, #1
    6726:	4649      	mov	r1, r9
    6728:	4059      	eors	r1, r3
    672a:	1c0b      	adds	r3, r1, #0
    672c:	429e      	cmp	r6, r3
    672e:	d100      	bne.n	6732 <__aeabi_dsub+0x4e>
    6730:	e0b1      	b.n	6896 <__aeabi_dsub+0x1b2>
    6732:	1a26      	subs	r6, r4, r0
    6734:	2e00      	cmp	r6, #0
    6736:	dc00      	bgt.n	673a <__aeabi_dsub+0x56>
    6738:	e11c      	b.n	6974 <__aeabi_dsub+0x290>
    673a:	2800      	cmp	r0, #0
    673c:	d142      	bne.n	67c4 <__aeabi_dsub+0xe0>
    673e:	1c13      	adds	r3, r2, #0
    6740:	9901      	ldr	r1, [sp, #4]
    6742:	430b      	orrs	r3, r1
    6744:	d000      	beq.n	6748 <__aeabi_dsub+0x64>
    6746:	e0e6      	b.n	6916 <__aeabi_dsub+0x232>
    6748:	076b      	lsls	r3, r5, #29
    674a:	d100      	bne.n	674e <__aeabi_dsub+0x6a>
    674c:	e08e      	b.n	686c <__aeabi_dsub+0x188>
    674e:	230f      	movs	r3, #15
    6750:	402b      	ands	r3, r5
    6752:	2b04      	cmp	r3, #4
    6754:	d100      	bne.n	6758 <__aeabi_dsub+0x74>
    6756:	e089      	b.n	686c <__aeabi_dsub+0x188>
    6758:	1d2a      	adds	r2, r5, #4
    675a:	42aa      	cmp	r2, r5
    675c:	41ad      	sbcs	r5, r5
    675e:	2380      	movs	r3, #128	; 0x80
    6760:	2601      	movs	r6, #1
    6762:	4641      	mov	r1, r8
    6764:	426d      	negs	r5, r5
    6766:	197f      	adds	r7, r7, r5
    6768:	041b      	lsls	r3, r3, #16
    676a:	403b      	ands	r3, r7
    676c:	400e      	ands	r6, r1
    676e:	1c15      	adds	r5, r2, #0
    6770:	2b00      	cmp	r3, #0
    6772:	d100      	bne.n	6776 <__aeabi_dsub+0x92>
    6774:	e083      	b.n	687e <__aeabi_dsub+0x19a>
    6776:	4bb6      	ldr	r3, [pc, #728]	; (6a50 <__aeabi_dsub+0x36c>)
    6778:	3401      	adds	r4, #1
    677a:	429c      	cmp	r4, r3
    677c:	d100      	bne.n	6780 <__aeabi_dsub+0x9c>
    677e:	e116      	b.n	69ae <__aeabi_dsub+0x2ca>
    6780:	1c3a      	adds	r2, r7, #0
    6782:	4bb4      	ldr	r3, [pc, #720]	; (6a54 <__aeabi_dsub+0x370>)
    6784:	08ed      	lsrs	r5, r5, #3
    6786:	401a      	ands	r2, r3
    6788:	0750      	lsls	r0, r2, #29
    678a:	0564      	lsls	r4, r4, #21
    678c:	0252      	lsls	r2, r2, #9
    678e:	4305      	orrs	r5, r0
    6790:	0b12      	lsrs	r2, r2, #12
    6792:	0d64      	lsrs	r4, r4, #21
    6794:	2100      	movs	r1, #0
    6796:	0312      	lsls	r2, r2, #12
    6798:	0d0b      	lsrs	r3, r1, #20
    679a:	051b      	lsls	r3, r3, #20
    679c:	0564      	lsls	r4, r4, #21
    679e:	0b12      	lsrs	r2, r2, #12
    67a0:	431a      	orrs	r2, r3
    67a2:	0863      	lsrs	r3, r4, #1
    67a4:	4cac      	ldr	r4, [pc, #688]	; (6a58 <__aeabi_dsub+0x374>)
    67a6:	07f6      	lsls	r6, r6, #31
    67a8:	4014      	ands	r4, r2
    67aa:	431c      	orrs	r4, r3
    67ac:	0064      	lsls	r4, r4, #1
    67ae:	0864      	lsrs	r4, r4, #1
    67b0:	4334      	orrs	r4, r6
    67b2:	1c28      	adds	r0, r5, #0
    67b4:	1c21      	adds	r1, r4, #0
    67b6:	b003      	add	sp, #12
    67b8:	bc3c      	pop	{r2, r3, r4, r5}
    67ba:	4690      	mov	r8, r2
    67bc:	4699      	mov	r9, r3
    67be:	46a2      	mov	sl, r4
    67c0:	46ab      	mov	fp, r5
    67c2:	bdf0      	pop	{r4, r5, r6, r7, pc}
    67c4:	4ba2      	ldr	r3, [pc, #648]	; (6a50 <__aeabi_dsub+0x36c>)
    67c6:	429c      	cmp	r4, r3
    67c8:	d0be      	beq.n	6748 <__aeabi_dsub+0x64>
    67ca:	2380      	movs	r3, #128	; 0x80
    67cc:	041b      	lsls	r3, r3, #16
    67ce:	431a      	orrs	r2, r3
    67d0:	2e38      	cmp	r6, #56	; 0x38
    67d2:	dd00      	ble.n	67d6 <__aeabi_dsub+0xf2>
    67d4:	e103      	b.n	69de <__aeabi_dsub+0x2fa>
    67d6:	2e1f      	cmp	r6, #31
    67d8:	dd00      	ble.n	67dc <__aeabi_dsub+0xf8>
    67da:	e13f      	b.n	6a5c <__aeabi_dsub+0x378>
    67dc:	2020      	movs	r0, #32
    67de:	1b83      	subs	r3, r0, r6
    67e0:	4699      	mov	r9, r3
    67e2:	1c13      	adds	r3, r2, #0
    67e4:	4649      	mov	r1, r9
    67e6:	408b      	lsls	r3, r1
    67e8:	469c      	mov	ip, r3
    67ea:	9b01      	ldr	r3, [sp, #4]
    67ec:	4660      	mov	r0, ip
    67ee:	40f3      	lsrs	r3, r6
    67f0:	4303      	orrs	r3, r0
    67f2:	9801      	ldr	r0, [sp, #4]
    67f4:	40f2      	lsrs	r2, r6
    67f6:	4088      	lsls	r0, r1
    67f8:	1c01      	adds	r1, r0, #0
    67fa:	1e48      	subs	r0, r1, #1
    67fc:	4181      	sbcs	r1, r0
    67fe:	430b      	orrs	r3, r1
    6800:	1aeb      	subs	r3, r5, r3
    6802:	429d      	cmp	r5, r3
    6804:	4180      	sbcs	r0, r0
    6806:	1c1d      	adds	r5, r3, #0
    6808:	1aba      	subs	r2, r7, r2
    680a:	4240      	negs	r0, r0
    680c:	1a17      	subs	r7, r2, r0
    680e:	023b      	lsls	r3, r7, #8
    6810:	d400      	bmi.n	6814 <__aeabi_dsub+0x130>
    6812:	e0a8      	b.n	6966 <__aeabi_dsub+0x282>
    6814:	027a      	lsls	r2, r7, #9
    6816:	0a56      	lsrs	r6, r2, #9
    6818:	2e00      	cmp	r6, #0
    681a:	d100      	bne.n	681e <__aeabi_dsub+0x13a>
    681c:	e0ca      	b.n	69b4 <__aeabi_dsub+0x2d0>
    681e:	1c30      	adds	r0, r6, #0
    6820:	f000 fc48 	bl	70b4 <__clzsi2>
    6824:	1c03      	adds	r3, r0, #0
    6826:	3b08      	subs	r3, #8
    6828:	2b1f      	cmp	r3, #31
    682a:	dd00      	ble.n	682e <__aeabi_dsub+0x14a>
    682c:	e0cb      	b.n	69c6 <__aeabi_dsub+0x2e2>
    682e:	2228      	movs	r2, #40	; 0x28
    6830:	1c29      	adds	r1, r5, #0
    6832:	1a12      	subs	r2, r2, r0
    6834:	40d1      	lsrs	r1, r2
    6836:	409e      	lsls	r6, r3
    6838:	1c0a      	adds	r2, r1, #0
    683a:	409d      	lsls	r5, r3
    683c:	4332      	orrs	r2, r6
    683e:	429c      	cmp	r4, r3
    6840:	dd00      	ble.n	6844 <__aeabi_dsub+0x160>
    6842:	e0c8      	b.n	69d6 <__aeabi_dsub+0x2f2>
    6844:	1b1c      	subs	r4, r3, r4
    6846:	1c67      	adds	r7, r4, #1
    6848:	2f1f      	cmp	r7, #31
    684a:	dd00      	ble.n	684e <__aeabi_dsub+0x16a>
    684c:	e0ed      	b.n	6a2a <__aeabi_dsub+0x346>
    684e:	231f      	movs	r3, #31
    6850:	1c29      	adds	r1, r5, #0
    6852:	1b1c      	subs	r4, r3, r4
    6854:	1c13      	adds	r3, r2, #0
    6856:	40a5      	lsls	r5, r4
    6858:	40a3      	lsls	r3, r4
    685a:	40f9      	lsrs	r1, r7
    685c:	1e6c      	subs	r4, r5, #1
    685e:	41a5      	sbcs	r5, r4
    6860:	40fa      	lsrs	r2, r7
    6862:	4319      	orrs	r1, r3
    6864:	430d      	orrs	r5, r1
    6866:	1c17      	adds	r7, r2, #0
    6868:	2400      	movs	r4, #0
    686a:	e76d      	b.n	6748 <__aeabi_dsub+0x64>
    686c:	2380      	movs	r3, #128	; 0x80
    686e:	2601      	movs	r6, #1
    6870:	4642      	mov	r2, r8
    6872:	041b      	lsls	r3, r3, #16
    6874:	403b      	ands	r3, r7
    6876:	4016      	ands	r6, r2
    6878:	2b00      	cmp	r3, #0
    687a:	d000      	beq.n	687e <__aeabi_dsub+0x19a>
    687c:	e77b      	b.n	6776 <__aeabi_dsub+0x92>
    687e:	4b74      	ldr	r3, [pc, #464]	; (6a50 <__aeabi_dsub+0x36c>)
    6880:	08ed      	lsrs	r5, r5, #3
    6882:	0778      	lsls	r0, r7, #29
    6884:	4305      	orrs	r5, r0
    6886:	08fa      	lsrs	r2, r7, #3
    6888:	429c      	cmp	r4, r3
    688a:	d03b      	beq.n	6904 <__aeabi_dsub+0x220>
    688c:	0312      	lsls	r2, r2, #12
    688e:	0564      	lsls	r4, r4, #21
    6890:	0b12      	lsrs	r2, r2, #12
    6892:	0d64      	lsrs	r4, r4, #21
    6894:	e77e      	b.n	6794 <__aeabi_dsub+0xb0>
    6896:	1a23      	subs	r3, r4, r0
    6898:	469a      	mov	sl, r3
    689a:	2b00      	cmp	r3, #0
    689c:	dc00      	bgt.n	68a0 <__aeabi_dsub+0x1bc>
    689e:	e0a5      	b.n	69ec <__aeabi_dsub+0x308>
    68a0:	2800      	cmp	r0, #0
    68a2:	d044      	beq.n	692e <__aeabi_dsub+0x24a>
    68a4:	486a      	ldr	r0, [pc, #424]	; (6a50 <__aeabi_dsub+0x36c>)
    68a6:	4284      	cmp	r4, r0
    68a8:	d100      	bne.n	68ac <__aeabi_dsub+0x1c8>
    68aa:	e74d      	b.n	6748 <__aeabi_dsub+0x64>
    68ac:	2080      	movs	r0, #128	; 0x80
    68ae:	0400      	lsls	r0, r0, #16
    68b0:	4302      	orrs	r2, r0
    68b2:	4653      	mov	r3, sl
    68b4:	2b38      	cmp	r3, #56	; 0x38
    68b6:	dc00      	bgt.n	68ba <__aeabi_dsub+0x1d6>
    68b8:	e11c      	b.n	6af4 <__aeabi_dsub+0x410>
    68ba:	9b01      	ldr	r3, [sp, #4]
    68bc:	431a      	orrs	r2, r3
    68be:	1e51      	subs	r1, r2, #1
    68c0:	418a      	sbcs	r2, r1
    68c2:	b2d1      	uxtb	r1, r2
    68c4:	2200      	movs	r2, #0
    68c6:	1949      	adds	r1, r1, r5
    68c8:	42a9      	cmp	r1, r5
    68ca:	4180      	sbcs	r0, r0
    68cc:	1c0d      	adds	r5, r1, #0
    68ce:	19d2      	adds	r2, r2, r7
    68d0:	4240      	negs	r0, r0
    68d2:	1817      	adds	r7, r2, r0
    68d4:	023b      	lsls	r3, r7, #8
    68d6:	d546      	bpl.n	6966 <__aeabi_dsub+0x282>
    68d8:	4b5d      	ldr	r3, [pc, #372]	; (6a50 <__aeabi_dsub+0x36c>)
    68da:	3401      	adds	r4, #1
    68dc:	429c      	cmp	r4, r3
    68de:	d100      	bne.n	68e2 <__aeabi_dsub+0x1fe>
    68e0:	e169      	b.n	6bb6 <__aeabi_dsub+0x4d2>
    68e2:	2001      	movs	r0, #1
    68e4:	4a5b      	ldr	r2, [pc, #364]	; (6a54 <__aeabi_dsub+0x370>)
    68e6:	086b      	lsrs	r3, r5, #1
    68e8:	403a      	ands	r2, r7
    68ea:	4028      	ands	r0, r5
    68ec:	4318      	orrs	r0, r3
    68ee:	07d5      	lsls	r5, r2, #31
    68f0:	4305      	orrs	r5, r0
    68f2:	0857      	lsrs	r7, r2, #1
    68f4:	e728      	b.n	6748 <__aeabi_dsub+0x64>
    68f6:	1c13      	adds	r3, r2, #0
    68f8:	9901      	ldr	r1, [sp, #4]
    68fa:	430b      	orrs	r3, r1
    68fc:	d100      	bne.n	6900 <__aeabi_dsub+0x21c>
    68fe:	e711      	b.n	6724 <__aeabi_dsub+0x40>
    6900:	464b      	mov	r3, r9
    6902:	e713      	b.n	672c <__aeabi_dsub+0x48>
    6904:	1c2b      	adds	r3, r5, #0
    6906:	4313      	orrs	r3, r2
    6908:	d051      	beq.n	69ae <__aeabi_dsub+0x2ca>
    690a:	2380      	movs	r3, #128	; 0x80
    690c:	031b      	lsls	r3, r3, #12
    690e:	431a      	orrs	r2, r3
    6910:	0312      	lsls	r2, r2, #12
    6912:	0b12      	lsrs	r2, r2, #12
    6914:	e73e      	b.n	6794 <__aeabi_dsub+0xb0>
    6916:	3e01      	subs	r6, #1
    6918:	2e00      	cmp	r6, #0
    691a:	d000      	beq.n	691e <__aeabi_dsub+0x23a>
    691c:	e080      	b.n	6a20 <__aeabi_dsub+0x33c>
    691e:	1a69      	subs	r1, r5, r1
    6920:	428d      	cmp	r5, r1
    6922:	419b      	sbcs	r3, r3
    6924:	1aba      	subs	r2, r7, r2
    6926:	425b      	negs	r3, r3
    6928:	1ad7      	subs	r7, r2, r3
    692a:	1c0d      	adds	r5, r1, #0
    692c:	e76f      	b.n	680e <__aeabi_dsub+0x12a>
    692e:	1c10      	adds	r0, r2, #0
    6930:	9b01      	ldr	r3, [sp, #4]
    6932:	4318      	orrs	r0, r3
    6934:	d100      	bne.n	6938 <__aeabi_dsub+0x254>
    6936:	e707      	b.n	6748 <__aeabi_dsub+0x64>
    6938:	2301      	movs	r3, #1
    693a:	425b      	negs	r3, r3
    693c:	469c      	mov	ip, r3
    693e:	44e2      	add	sl, ip
    6940:	4653      	mov	r3, sl
    6942:	2b00      	cmp	r3, #0
    6944:	d000      	beq.n	6948 <__aeabi_dsub+0x264>
    6946:	e102      	b.n	6b4e <__aeabi_dsub+0x46a>
    6948:	9b01      	ldr	r3, [sp, #4]
    694a:	19d2      	adds	r2, r2, r7
    694c:	1959      	adds	r1, r3, r5
    694e:	42a9      	cmp	r1, r5
    6950:	419b      	sbcs	r3, r3
    6952:	425b      	negs	r3, r3
    6954:	18d7      	adds	r7, r2, r3
    6956:	1c0d      	adds	r5, r1, #0
    6958:	e7bc      	b.n	68d4 <__aeabi_dsub+0x1f0>
    695a:	4663      	mov	r3, ip
    695c:	4303      	orrs	r3, r0
    695e:	d100      	bne.n	6962 <__aeabi_dsub+0x27e>
    6960:	e128      	b.n	6bb4 <__aeabi_dsub+0x4d0>
    6962:	1c07      	adds	r7, r0, #0
    6964:	4665      	mov	r5, ip
    6966:	076b      	lsls	r3, r5, #29
    6968:	d000      	beq.n	696c <__aeabi_dsub+0x288>
    696a:	e6f0      	b.n	674e <__aeabi_dsub+0x6a>
    696c:	2601      	movs	r6, #1
    696e:	4643      	mov	r3, r8
    6970:	401e      	ands	r6, r3
    6972:	e784      	b.n	687e <__aeabi_dsub+0x19a>
    6974:	2e00      	cmp	r6, #0
    6976:	d000      	beq.n	697a <__aeabi_dsub+0x296>
    6978:	e081      	b.n	6a7e <__aeabi_dsub+0x39a>
    697a:	1c60      	adds	r0, r4, #1
    697c:	0540      	lsls	r0, r0, #21
    697e:	0d40      	lsrs	r0, r0, #21
    6980:	2801      	cmp	r0, #1
    6982:	dc00      	bgt.n	6986 <__aeabi_dsub+0x2a2>
    6984:	e107      	b.n	6b96 <__aeabi_dsub+0x4b2>
    6986:	9901      	ldr	r1, [sp, #4]
    6988:	1a68      	subs	r0, r5, r1
    698a:	4684      	mov	ip, r0
    698c:	4565      	cmp	r5, ip
    698e:	41b6      	sbcs	r6, r6
    6990:	1ab8      	subs	r0, r7, r2
    6992:	4276      	negs	r6, r6
    6994:	1b86      	subs	r6, r0, r6
    6996:	0230      	lsls	r0, r6, #8
    6998:	d400      	bmi.n	699c <__aeabi_dsub+0x2b8>
    699a:	e0a1      	b.n	6ae0 <__aeabi_dsub+0x3fc>
    699c:	468c      	mov	ip, r1
    699e:	1b4d      	subs	r5, r1, r5
    69a0:	45ac      	cmp	ip, r5
    69a2:	4189      	sbcs	r1, r1
    69a4:	1bd2      	subs	r2, r2, r7
    69a6:	4249      	negs	r1, r1
    69a8:	1a56      	subs	r6, r2, r1
    69aa:	4698      	mov	r8, r3
    69ac:	e734      	b.n	6818 <__aeabi_dsub+0x134>
    69ae:	2200      	movs	r2, #0
    69b0:	2500      	movs	r5, #0
    69b2:	e6ef      	b.n	6794 <__aeabi_dsub+0xb0>
    69b4:	1c28      	adds	r0, r5, #0
    69b6:	f000 fb7d 	bl	70b4 <__clzsi2>
    69ba:	3020      	adds	r0, #32
    69bc:	1c03      	adds	r3, r0, #0
    69be:	3b08      	subs	r3, #8
    69c0:	2b1f      	cmp	r3, #31
    69c2:	dc00      	bgt.n	69c6 <__aeabi_dsub+0x2e2>
    69c4:	e733      	b.n	682e <__aeabi_dsub+0x14a>
    69c6:	1c02      	adds	r2, r0, #0
    69c8:	3a28      	subs	r2, #40	; 0x28
    69ca:	4095      	lsls	r5, r2
    69cc:	1c2a      	adds	r2, r5, #0
    69ce:	2500      	movs	r5, #0
    69d0:	429c      	cmp	r4, r3
    69d2:	dc00      	bgt.n	69d6 <__aeabi_dsub+0x2f2>
    69d4:	e736      	b.n	6844 <__aeabi_dsub+0x160>
    69d6:	4f1f      	ldr	r7, [pc, #124]	; (6a54 <__aeabi_dsub+0x370>)
    69d8:	1ae4      	subs	r4, r4, r3
    69da:	4017      	ands	r7, r2
    69dc:	e6b4      	b.n	6748 <__aeabi_dsub+0x64>
    69de:	9b01      	ldr	r3, [sp, #4]
    69e0:	431a      	orrs	r2, r3
    69e2:	1e51      	subs	r1, r2, #1
    69e4:	418a      	sbcs	r2, r1
    69e6:	b2d3      	uxtb	r3, r2
    69e8:	2200      	movs	r2, #0
    69ea:	e709      	b.n	6800 <__aeabi_dsub+0x11c>
    69ec:	2b00      	cmp	r3, #0
    69ee:	d000      	beq.n	69f2 <__aeabi_dsub+0x30e>
    69f0:	e101      	b.n	6bf6 <__aeabi_dsub+0x512>
    69f2:	1c60      	adds	r0, r4, #1
    69f4:	0543      	lsls	r3, r0, #21
    69f6:	0d5b      	lsrs	r3, r3, #21
    69f8:	2b01      	cmp	r3, #1
    69fa:	dc00      	bgt.n	69fe <__aeabi_dsub+0x31a>
    69fc:	e0b0      	b.n	6b60 <__aeabi_dsub+0x47c>
    69fe:	4b14      	ldr	r3, [pc, #80]	; (6a50 <__aeabi_dsub+0x36c>)
    6a00:	4298      	cmp	r0, r3
    6a02:	d100      	bne.n	6a06 <__aeabi_dsub+0x322>
    6a04:	e11e      	b.n	6c44 <__aeabi_dsub+0x560>
    6a06:	9b01      	ldr	r3, [sp, #4]
    6a08:	19d2      	adds	r2, r2, r7
    6a0a:	1959      	adds	r1, r3, r5
    6a0c:	42a9      	cmp	r1, r5
    6a0e:	419b      	sbcs	r3, r3
    6a10:	425b      	negs	r3, r3
    6a12:	18d2      	adds	r2, r2, r3
    6a14:	0849      	lsrs	r1, r1, #1
    6a16:	07d5      	lsls	r5, r2, #31
    6a18:	430d      	orrs	r5, r1
    6a1a:	0857      	lsrs	r7, r2, #1
    6a1c:	1c04      	adds	r4, r0, #0
    6a1e:	e693      	b.n	6748 <__aeabi_dsub+0x64>
    6a20:	4b0b      	ldr	r3, [pc, #44]	; (6a50 <__aeabi_dsub+0x36c>)
    6a22:	429c      	cmp	r4, r3
    6a24:	d000      	beq.n	6a28 <__aeabi_dsub+0x344>
    6a26:	e6d3      	b.n	67d0 <__aeabi_dsub+0xec>
    6a28:	e68e      	b.n	6748 <__aeabi_dsub+0x64>
    6a2a:	1c21      	adds	r1, r4, #0
    6a2c:	1c13      	adds	r3, r2, #0
    6a2e:	391f      	subs	r1, #31
    6a30:	40cb      	lsrs	r3, r1
    6a32:	1c19      	adds	r1, r3, #0
    6a34:	2f20      	cmp	r7, #32
    6a36:	d100      	bne.n	6a3a <__aeabi_dsub+0x356>
    6a38:	e08e      	b.n	6b58 <__aeabi_dsub+0x474>
    6a3a:	233f      	movs	r3, #63	; 0x3f
    6a3c:	1b1c      	subs	r4, r3, r4
    6a3e:	40a2      	lsls	r2, r4
    6a40:	4315      	orrs	r5, r2
    6a42:	1e6a      	subs	r2, r5, #1
    6a44:	4195      	sbcs	r5, r2
    6a46:	2700      	movs	r7, #0
    6a48:	430d      	orrs	r5, r1
    6a4a:	2400      	movs	r4, #0
    6a4c:	e78b      	b.n	6966 <__aeabi_dsub+0x282>
    6a4e:	46c0      	nop			; (mov r8, r8)
    6a50:	000007ff 	.word	0x000007ff
    6a54:	ff7fffff 	.word	0xff7fffff
    6a58:	800fffff 	.word	0x800fffff
    6a5c:	1c33      	adds	r3, r6, #0
    6a5e:	1c10      	adds	r0, r2, #0
    6a60:	3b20      	subs	r3, #32
    6a62:	40d8      	lsrs	r0, r3
    6a64:	2e20      	cmp	r6, #32
    6a66:	d079      	beq.n	6b5c <__aeabi_dsub+0x478>
    6a68:	2340      	movs	r3, #64	; 0x40
    6a6a:	1b9b      	subs	r3, r3, r6
    6a6c:	409a      	lsls	r2, r3
    6a6e:	1c13      	adds	r3, r2, #0
    6a70:	9a01      	ldr	r2, [sp, #4]
    6a72:	4313      	orrs	r3, r2
    6a74:	1e59      	subs	r1, r3, #1
    6a76:	418b      	sbcs	r3, r1
    6a78:	2200      	movs	r2, #0
    6a7a:	4303      	orrs	r3, r0
    6a7c:	e6c0      	b.n	6800 <__aeabi_dsub+0x11c>
    6a7e:	2c00      	cmp	r4, #0
    6a80:	d053      	beq.n	6b2a <__aeabi_dsub+0x446>
    6a82:	4cc7      	ldr	r4, [pc, #796]	; (6da0 <__aeabi_dsub+0x6bc>)
    6a84:	42a0      	cmp	r0, r4
    6a86:	d100      	bne.n	6a8a <__aeabi_dsub+0x3a6>
    6a88:	e0b0      	b.n	6bec <__aeabi_dsub+0x508>
    6a8a:	2480      	movs	r4, #128	; 0x80
    6a8c:	4271      	negs	r1, r6
    6a8e:	4689      	mov	r9, r1
    6a90:	0424      	lsls	r4, r4, #16
    6a92:	4327      	orrs	r7, r4
    6a94:	4649      	mov	r1, r9
    6a96:	2938      	cmp	r1, #56	; 0x38
    6a98:	dd00      	ble.n	6a9c <__aeabi_dsub+0x3b8>
    6a9a:	e0cd      	b.n	6c38 <__aeabi_dsub+0x554>
    6a9c:	291f      	cmp	r1, #31
    6a9e:	dd00      	ble.n	6aa2 <__aeabi_dsub+0x3be>
    6aa0:	e159      	b.n	6d56 <__aeabi_dsub+0x672>
    6aa2:	2420      	movs	r4, #32
    6aa4:	1c3e      	adds	r6, r7, #0
    6aa6:	1a61      	subs	r1, r4, r1
    6aa8:	408e      	lsls	r6, r1
    6aaa:	468a      	mov	sl, r1
    6aac:	46b0      	mov	r8, r6
    6aae:	4649      	mov	r1, r9
    6ab0:	1c2e      	adds	r6, r5, #0
    6ab2:	40ce      	lsrs	r6, r1
    6ab4:	4651      	mov	r1, sl
    6ab6:	46b4      	mov	ip, r6
    6ab8:	408d      	lsls	r5, r1
    6aba:	4664      	mov	r4, ip
    6abc:	4646      	mov	r6, r8
    6abe:	4649      	mov	r1, r9
    6ac0:	4326      	orrs	r6, r4
    6ac2:	1e6c      	subs	r4, r5, #1
    6ac4:	41a5      	sbcs	r5, r4
    6ac6:	40cf      	lsrs	r7, r1
    6ac8:	4335      	orrs	r5, r6
    6aca:	9901      	ldr	r1, [sp, #4]
    6acc:	1bd7      	subs	r7, r2, r7
    6ace:	468c      	mov	ip, r1
    6ad0:	1b4d      	subs	r5, r1, r5
    6ad2:	45ac      	cmp	ip, r5
    6ad4:	4192      	sbcs	r2, r2
    6ad6:	4252      	negs	r2, r2
    6ad8:	1abf      	subs	r7, r7, r2
    6ada:	1c04      	adds	r4, r0, #0
    6adc:	4698      	mov	r8, r3
    6ade:	e696      	b.n	680e <__aeabi_dsub+0x12a>
    6ae0:	4663      	mov	r3, ip
    6ae2:	4665      	mov	r5, ip
    6ae4:	4333      	orrs	r3, r6
    6ae6:	d000      	beq.n	6aea <__aeabi_dsub+0x406>
    6ae8:	e696      	b.n	6818 <__aeabi_dsub+0x134>
    6aea:	2600      	movs	r6, #0
    6aec:	2700      	movs	r7, #0
    6aee:	2400      	movs	r4, #0
    6af0:	2500      	movs	r5, #0
    6af2:	e6c4      	b.n	687e <__aeabi_dsub+0x19a>
    6af4:	2b1f      	cmp	r3, #31
    6af6:	dc61      	bgt.n	6bbc <__aeabi_dsub+0x4d8>
    6af8:	2020      	movs	r0, #32
    6afa:	1ac3      	subs	r3, r0, r3
    6afc:	469b      	mov	fp, r3
    6afe:	1c13      	adds	r3, r2, #0
    6b00:	4659      	mov	r1, fp
    6b02:	408b      	lsls	r3, r1
    6b04:	4651      	mov	r1, sl
    6b06:	4699      	mov	r9, r3
    6b08:	9b01      	ldr	r3, [sp, #4]
    6b0a:	40cb      	lsrs	r3, r1
    6b0c:	469c      	mov	ip, r3
    6b0e:	464b      	mov	r3, r9
    6b10:	4660      	mov	r0, ip
    6b12:	4303      	orrs	r3, r0
    6b14:	469c      	mov	ip, r3
    6b16:	465b      	mov	r3, fp
    6b18:	9901      	ldr	r1, [sp, #4]
    6b1a:	4099      	lsls	r1, r3
    6b1c:	4663      	mov	r3, ip
    6b1e:	1e48      	subs	r0, r1, #1
    6b20:	4181      	sbcs	r1, r0
    6b22:	4319      	orrs	r1, r3
    6b24:	4653      	mov	r3, sl
    6b26:	40da      	lsrs	r2, r3
    6b28:	e6cd      	b.n	68c6 <__aeabi_dsub+0x1e2>
    6b2a:	1c3c      	adds	r4, r7, #0
    6b2c:	432c      	orrs	r4, r5
    6b2e:	d05d      	beq.n	6bec <__aeabi_dsub+0x508>
    6b30:	43f1      	mvns	r1, r6
    6b32:	4689      	mov	r9, r1
    6b34:	2900      	cmp	r1, #0
    6b36:	d155      	bne.n	6be4 <__aeabi_dsub+0x500>
    6b38:	9901      	ldr	r1, [sp, #4]
    6b3a:	1bd2      	subs	r2, r2, r7
    6b3c:	468c      	mov	ip, r1
    6b3e:	1b4d      	subs	r5, r1, r5
    6b40:	45ac      	cmp	ip, r5
    6b42:	4189      	sbcs	r1, r1
    6b44:	4249      	negs	r1, r1
    6b46:	1a57      	subs	r7, r2, r1
    6b48:	1c04      	adds	r4, r0, #0
    6b4a:	4698      	mov	r8, r3
    6b4c:	e65f      	b.n	680e <__aeabi_dsub+0x12a>
    6b4e:	4894      	ldr	r0, [pc, #592]	; (6da0 <__aeabi_dsub+0x6bc>)
    6b50:	4284      	cmp	r4, r0
    6b52:	d000      	beq.n	6b56 <__aeabi_dsub+0x472>
    6b54:	e6ad      	b.n	68b2 <__aeabi_dsub+0x1ce>
    6b56:	e5f7      	b.n	6748 <__aeabi_dsub+0x64>
    6b58:	2200      	movs	r2, #0
    6b5a:	e771      	b.n	6a40 <__aeabi_dsub+0x35c>
    6b5c:	2300      	movs	r3, #0
    6b5e:	e787      	b.n	6a70 <__aeabi_dsub+0x38c>
    6b60:	1c3b      	adds	r3, r7, #0
    6b62:	432b      	orrs	r3, r5
    6b64:	2c00      	cmp	r4, #0
    6b66:	d000      	beq.n	6b6a <__aeabi_dsub+0x486>
    6b68:	e0da      	b.n	6d20 <__aeabi_dsub+0x63c>
    6b6a:	2b00      	cmp	r3, #0
    6b6c:	d100      	bne.n	6b70 <__aeabi_dsub+0x48c>
    6b6e:	e113      	b.n	6d98 <__aeabi_dsub+0x6b4>
    6b70:	1c13      	adds	r3, r2, #0
    6b72:	9901      	ldr	r1, [sp, #4]
    6b74:	430b      	orrs	r3, r1
    6b76:	d100      	bne.n	6b7a <__aeabi_dsub+0x496>
    6b78:	e5e6      	b.n	6748 <__aeabi_dsub+0x64>
    6b7a:	1949      	adds	r1, r1, r5
    6b7c:	42a9      	cmp	r1, r5
    6b7e:	419b      	sbcs	r3, r3
    6b80:	19d2      	adds	r2, r2, r7
    6b82:	425b      	negs	r3, r3
    6b84:	18d7      	adds	r7, r2, r3
    6b86:	023b      	lsls	r3, r7, #8
    6b88:	d400      	bmi.n	6b8c <__aeabi_dsub+0x4a8>
    6b8a:	e121      	b.n	6dd0 <__aeabi_dsub+0x6ec>
    6b8c:	4b85      	ldr	r3, [pc, #532]	; (6da4 <__aeabi_dsub+0x6c0>)
    6b8e:	1c0d      	adds	r5, r1, #0
    6b90:	401f      	ands	r7, r3
    6b92:	1c04      	adds	r4, r0, #0
    6b94:	e5d8      	b.n	6748 <__aeabi_dsub+0x64>
    6b96:	1c38      	adds	r0, r7, #0
    6b98:	4328      	orrs	r0, r5
    6b9a:	2c00      	cmp	r4, #0
    6b9c:	d140      	bne.n	6c20 <__aeabi_dsub+0x53c>
    6b9e:	2800      	cmp	r0, #0
    6ba0:	d000      	beq.n	6ba4 <__aeabi_dsub+0x4c0>
    6ba2:	e083      	b.n	6cac <__aeabi_dsub+0x5c8>
    6ba4:	1c10      	adds	r0, r2, #0
    6ba6:	9901      	ldr	r1, [sp, #4]
    6ba8:	4308      	orrs	r0, r1
    6baa:	d003      	beq.n	6bb4 <__aeabi_dsub+0x4d0>
    6bac:	1c17      	adds	r7, r2, #0
    6bae:	1c0d      	adds	r5, r1, #0
    6bb0:	4698      	mov	r8, r3
    6bb2:	e5c9      	b.n	6748 <__aeabi_dsub+0x64>
    6bb4:	2600      	movs	r6, #0
    6bb6:	2700      	movs	r7, #0
    6bb8:	2500      	movs	r5, #0
    6bba:	e660      	b.n	687e <__aeabi_dsub+0x19a>
    6bbc:	4650      	mov	r0, sl
    6bbe:	1c13      	adds	r3, r2, #0
    6bc0:	3820      	subs	r0, #32
    6bc2:	40c3      	lsrs	r3, r0
    6bc4:	1c18      	adds	r0, r3, #0
    6bc6:	4653      	mov	r3, sl
    6bc8:	2b20      	cmp	r3, #32
    6bca:	d100      	bne.n	6bce <__aeabi_dsub+0x4ea>
    6bcc:	e0c1      	b.n	6d52 <__aeabi_dsub+0x66e>
    6bce:	2340      	movs	r3, #64	; 0x40
    6bd0:	4651      	mov	r1, sl
    6bd2:	1a5b      	subs	r3, r3, r1
    6bd4:	409a      	lsls	r2, r3
    6bd6:	9901      	ldr	r1, [sp, #4]
    6bd8:	4311      	orrs	r1, r2
    6bda:	1e4a      	subs	r2, r1, #1
    6bdc:	4191      	sbcs	r1, r2
    6bde:	2200      	movs	r2, #0
    6be0:	4301      	orrs	r1, r0
    6be2:	e670      	b.n	68c6 <__aeabi_dsub+0x1e2>
    6be4:	4c6e      	ldr	r4, [pc, #440]	; (6da0 <__aeabi_dsub+0x6bc>)
    6be6:	42a0      	cmp	r0, r4
    6be8:	d000      	beq.n	6bec <__aeabi_dsub+0x508>
    6bea:	e753      	b.n	6a94 <__aeabi_dsub+0x3b0>
    6bec:	1c17      	adds	r7, r2, #0
    6bee:	9d01      	ldr	r5, [sp, #4]
    6bf0:	1c04      	adds	r4, r0, #0
    6bf2:	4698      	mov	r8, r3
    6bf4:	e5a8      	b.n	6748 <__aeabi_dsub+0x64>
    6bf6:	2c00      	cmp	r4, #0
    6bf8:	d128      	bne.n	6c4c <__aeabi_dsub+0x568>
    6bfa:	1c3c      	adds	r4, r7, #0
    6bfc:	432c      	orrs	r4, r5
    6bfe:	d100      	bne.n	6c02 <__aeabi_dsub+0x51e>
    6c00:	e08a      	b.n	6d18 <__aeabi_dsub+0x634>
    6c02:	43db      	mvns	r3, r3
    6c04:	469a      	mov	sl, r3
    6c06:	2b00      	cmp	r3, #0
    6c08:	d000      	beq.n	6c0c <__aeabi_dsub+0x528>
    6c0a:	e082      	b.n	6d12 <__aeabi_dsub+0x62e>
    6c0c:	9b01      	ldr	r3, [sp, #4]
    6c0e:	19d2      	adds	r2, r2, r7
    6c10:	469c      	mov	ip, r3
    6c12:	4465      	add	r5, ip
    6c14:	429d      	cmp	r5, r3
    6c16:	4189      	sbcs	r1, r1
    6c18:	4249      	negs	r1, r1
    6c1a:	1857      	adds	r7, r2, r1
    6c1c:	1c04      	adds	r4, r0, #0
    6c1e:	e659      	b.n	68d4 <__aeabi_dsub+0x1f0>
    6c20:	2800      	cmp	r0, #0
    6c22:	d15b      	bne.n	6cdc <__aeabi_dsub+0x5f8>
    6c24:	1c10      	adds	r0, r2, #0
    6c26:	9901      	ldr	r1, [sp, #4]
    6c28:	4308      	orrs	r0, r1
    6c2a:	d100      	bne.n	6c2e <__aeabi_dsub+0x54a>
    6c2c:	e0a4      	b.n	6d78 <__aeabi_dsub+0x694>
    6c2e:	1c17      	adds	r7, r2, #0
    6c30:	1c0d      	adds	r5, r1, #0
    6c32:	4698      	mov	r8, r3
    6c34:	4c5a      	ldr	r4, [pc, #360]	; (6da0 <__aeabi_dsub+0x6bc>)
    6c36:	e587      	b.n	6748 <__aeabi_dsub+0x64>
    6c38:	433d      	orrs	r5, r7
    6c3a:	1e6f      	subs	r7, r5, #1
    6c3c:	41bd      	sbcs	r5, r7
    6c3e:	2700      	movs	r7, #0
    6c40:	b2ed      	uxtb	r5, r5
    6c42:	e742      	b.n	6aca <__aeabi_dsub+0x3e6>
    6c44:	1c04      	adds	r4, r0, #0
    6c46:	2700      	movs	r7, #0
    6c48:	2500      	movs	r5, #0
    6c4a:	e618      	b.n	687e <__aeabi_dsub+0x19a>
    6c4c:	4c54      	ldr	r4, [pc, #336]	; (6da0 <__aeabi_dsub+0x6bc>)
    6c4e:	42a0      	cmp	r0, r4
    6c50:	d062      	beq.n	6d18 <__aeabi_dsub+0x634>
    6c52:	4653      	mov	r3, sl
    6c54:	2480      	movs	r4, #128	; 0x80
    6c56:	425b      	negs	r3, r3
    6c58:	469a      	mov	sl, r3
    6c5a:	0424      	lsls	r4, r4, #16
    6c5c:	4327      	orrs	r7, r4
    6c5e:	4653      	mov	r3, sl
    6c60:	2b38      	cmp	r3, #56	; 0x38
    6c62:	dd00      	ble.n	6c66 <__aeabi_dsub+0x582>
    6c64:	e08e      	b.n	6d84 <__aeabi_dsub+0x6a0>
    6c66:	2b1f      	cmp	r3, #31
    6c68:	dd00      	ble.n	6c6c <__aeabi_dsub+0x588>
    6c6a:	e09d      	b.n	6da8 <__aeabi_dsub+0x6c4>
    6c6c:	2420      	movs	r4, #32
    6c6e:	1ae3      	subs	r3, r4, r3
    6c70:	469b      	mov	fp, r3
    6c72:	1c3b      	adds	r3, r7, #0
    6c74:	4659      	mov	r1, fp
    6c76:	408b      	lsls	r3, r1
    6c78:	4651      	mov	r1, sl
    6c7a:	4699      	mov	r9, r3
    6c7c:	1c2b      	adds	r3, r5, #0
    6c7e:	40cb      	lsrs	r3, r1
    6c80:	469c      	mov	ip, r3
    6c82:	464b      	mov	r3, r9
    6c84:	4664      	mov	r4, ip
    6c86:	4323      	orrs	r3, r4
    6c88:	469c      	mov	ip, r3
    6c8a:	465b      	mov	r3, fp
    6c8c:	409d      	lsls	r5, r3
    6c8e:	4663      	mov	r3, ip
    6c90:	1e6c      	subs	r4, r5, #1
    6c92:	41a5      	sbcs	r5, r4
    6c94:	40cf      	lsrs	r7, r1
    6c96:	431d      	orrs	r5, r3
    6c98:	9b01      	ldr	r3, [sp, #4]
    6c9a:	18bf      	adds	r7, r7, r2
    6c9c:	469c      	mov	ip, r3
    6c9e:	4465      	add	r5, ip
    6ca0:	429d      	cmp	r5, r3
    6ca2:	4192      	sbcs	r2, r2
    6ca4:	4252      	negs	r2, r2
    6ca6:	18bf      	adds	r7, r7, r2
    6ca8:	1c04      	adds	r4, r0, #0
    6caa:	e613      	b.n	68d4 <__aeabi_dsub+0x1f0>
    6cac:	1c10      	adds	r0, r2, #0
    6cae:	9901      	ldr	r1, [sp, #4]
    6cb0:	4308      	orrs	r0, r1
    6cb2:	d100      	bne.n	6cb6 <__aeabi_dsub+0x5d2>
    6cb4:	e548      	b.n	6748 <__aeabi_dsub+0x64>
    6cb6:	1a68      	subs	r0, r5, r1
    6cb8:	4684      	mov	ip, r0
    6cba:	4285      	cmp	r5, r0
    6cbc:	4180      	sbcs	r0, r0
    6cbe:	1abe      	subs	r6, r7, r2
    6cc0:	4240      	negs	r0, r0
    6cc2:	1a30      	subs	r0, r6, r0
    6cc4:	0206      	lsls	r6, r0, #8
    6cc6:	d400      	bmi.n	6cca <__aeabi_dsub+0x5e6>
    6cc8:	e647      	b.n	695a <__aeabi_dsub+0x276>
    6cca:	468c      	mov	ip, r1
    6ccc:	1b4d      	subs	r5, r1, r5
    6cce:	45ac      	cmp	ip, r5
    6cd0:	4189      	sbcs	r1, r1
    6cd2:	1bd2      	subs	r2, r2, r7
    6cd4:	4249      	negs	r1, r1
    6cd6:	1a57      	subs	r7, r2, r1
    6cd8:	4698      	mov	r8, r3
    6cda:	e535      	b.n	6748 <__aeabi_dsub+0x64>
    6cdc:	1c10      	adds	r0, r2, #0
    6cde:	9901      	ldr	r1, [sp, #4]
    6ce0:	4308      	orrs	r0, r1
    6ce2:	d034      	beq.n	6d4e <__aeabi_dsub+0x66a>
    6ce4:	2480      	movs	r4, #128	; 0x80
    6ce6:	0778      	lsls	r0, r7, #29
    6ce8:	08ed      	lsrs	r5, r5, #3
    6cea:	08ff      	lsrs	r7, r7, #3
    6cec:	0324      	lsls	r4, r4, #12
    6cee:	4328      	orrs	r0, r5
    6cf0:	4227      	tst	r7, r4
    6cf2:	d008      	beq.n	6d06 <__aeabi_dsub+0x622>
    6cf4:	08d6      	lsrs	r6, r2, #3
    6cf6:	4226      	tst	r6, r4
    6cf8:	d105      	bne.n	6d06 <__aeabi_dsub+0x622>
    6cfa:	08c9      	lsrs	r1, r1, #3
    6cfc:	0752      	lsls	r2, r2, #29
    6cfe:	430a      	orrs	r2, r1
    6d00:	1c10      	adds	r0, r2, #0
    6d02:	1c37      	adds	r7, r6, #0
    6d04:	4698      	mov	r8, r3
    6d06:	00ff      	lsls	r7, r7, #3
    6d08:	0f42      	lsrs	r2, r0, #29
    6d0a:	4317      	orrs	r7, r2
    6d0c:	00c5      	lsls	r5, r0, #3
    6d0e:	4c24      	ldr	r4, [pc, #144]	; (6da0 <__aeabi_dsub+0x6bc>)
    6d10:	e51a      	b.n	6748 <__aeabi_dsub+0x64>
    6d12:	4c23      	ldr	r4, [pc, #140]	; (6da0 <__aeabi_dsub+0x6bc>)
    6d14:	42a0      	cmp	r0, r4
    6d16:	d1a2      	bne.n	6c5e <__aeabi_dsub+0x57a>
    6d18:	1c17      	adds	r7, r2, #0
    6d1a:	9d01      	ldr	r5, [sp, #4]
    6d1c:	1c04      	adds	r4, r0, #0
    6d1e:	e513      	b.n	6748 <__aeabi_dsub+0x64>
    6d20:	2b00      	cmp	r3, #0
    6d22:	d035      	beq.n	6d90 <__aeabi_dsub+0x6ac>
    6d24:	1c13      	adds	r3, r2, #0
    6d26:	9901      	ldr	r1, [sp, #4]
    6d28:	430b      	orrs	r3, r1
    6d2a:	d010      	beq.n	6d4e <__aeabi_dsub+0x66a>
    6d2c:	2480      	movs	r4, #128	; 0x80
    6d2e:	0778      	lsls	r0, r7, #29
    6d30:	08ed      	lsrs	r5, r5, #3
    6d32:	08ff      	lsrs	r7, r7, #3
    6d34:	0324      	lsls	r4, r4, #12
    6d36:	4328      	orrs	r0, r5
    6d38:	4227      	tst	r7, r4
    6d3a:	d0e4      	beq.n	6d06 <__aeabi_dsub+0x622>
    6d3c:	08d3      	lsrs	r3, r2, #3
    6d3e:	4223      	tst	r3, r4
    6d40:	d1e1      	bne.n	6d06 <__aeabi_dsub+0x622>
    6d42:	08c9      	lsrs	r1, r1, #3
    6d44:	0752      	lsls	r2, r2, #29
    6d46:	430a      	orrs	r2, r1
    6d48:	1c10      	adds	r0, r2, #0
    6d4a:	1c1f      	adds	r7, r3, #0
    6d4c:	e7db      	b.n	6d06 <__aeabi_dsub+0x622>
    6d4e:	4c14      	ldr	r4, [pc, #80]	; (6da0 <__aeabi_dsub+0x6bc>)
    6d50:	e4fa      	b.n	6748 <__aeabi_dsub+0x64>
    6d52:	2200      	movs	r2, #0
    6d54:	e73f      	b.n	6bd6 <__aeabi_dsub+0x4f2>
    6d56:	464c      	mov	r4, r9
    6d58:	1c3e      	adds	r6, r7, #0
    6d5a:	3c20      	subs	r4, #32
    6d5c:	40e6      	lsrs	r6, r4
    6d5e:	4649      	mov	r1, r9
    6d60:	1c34      	adds	r4, r6, #0
    6d62:	2920      	cmp	r1, #32
    6d64:	d032      	beq.n	6dcc <__aeabi_dsub+0x6e8>
    6d66:	2640      	movs	r6, #64	; 0x40
    6d68:	1a76      	subs	r6, r6, r1
    6d6a:	40b7      	lsls	r7, r6
    6d6c:	433d      	orrs	r5, r7
    6d6e:	1e6f      	subs	r7, r5, #1
    6d70:	41bd      	sbcs	r5, r7
    6d72:	2700      	movs	r7, #0
    6d74:	4325      	orrs	r5, r4
    6d76:	e6a8      	b.n	6aca <__aeabi_dsub+0x3e6>
    6d78:	2780      	movs	r7, #128	; 0x80
    6d7a:	2600      	movs	r6, #0
    6d7c:	03ff      	lsls	r7, r7, #15
    6d7e:	4c08      	ldr	r4, [pc, #32]	; (6da0 <__aeabi_dsub+0x6bc>)
    6d80:	2500      	movs	r5, #0
    6d82:	e57c      	b.n	687e <__aeabi_dsub+0x19a>
    6d84:	433d      	orrs	r5, r7
    6d86:	1e6f      	subs	r7, r5, #1
    6d88:	41bd      	sbcs	r5, r7
    6d8a:	2700      	movs	r7, #0
    6d8c:	b2ed      	uxtb	r5, r5
    6d8e:	e783      	b.n	6c98 <__aeabi_dsub+0x5b4>
    6d90:	1c17      	adds	r7, r2, #0
    6d92:	9d01      	ldr	r5, [sp, #4]
    6d94:	4c02      	ldr	r4, [pc, #8]	; (6da0 <__aeabi_dsub+0x6bc>)
    6d96:	e4d7      	b.n	6748 <__aeabi_dsub+0x64>
    6d98:	1c17      	adds	r7, r2, #0
    6d9a:	9d01      	ldr	r5, [sp, #4]
    6d9c:	e4d4      	b.n	6748 <__aeabi_dsub+0x64>
    6d9e:	46c0      	nop			; (mov r8, r8)
    6da0:	000007ff 	.word	0x000007ff
    6da4:	ff7fffff 	.word	0xff7fffff
    6da8:	4654      	mov	r4, sl
    6daa:	1c3b      	adds	r3, r7, #0
    6dac:	3c20      	subs	r4, #32
    6dae:	40e3      	lsrs	r3, r4
    6db0:	1c1c      	adds	r4, r3, #0
    6db2:	4653      	mov	r3, sl
    6db4:	2b20      	cmp	r3, #32
    6db6:	d00d      	beq.n	6dd4 <__aeabi_dsub+0x6f0>
    6db8:	2340      	movs	r3, #64	; 0x40
    6dba:	4651      	mov	r1, sl
    6dbc:	1a5b      	subs	r3, r3, r1
    6dbe:	409f      	lsls	r7, r3
    6dc0:	433d      	orrs	r5, r7
    6dc2:	1e6f      	subs	r7, r5, #1
    6dc4:	41bd      	sbcs	r5, r7
    6dc6:	2700      	movs	r7, #0
    6dc8:	4325      	orrs	r5, r4
    6dca:	e765      	b.n	6c98 <__aeabi_dsub+0x5b4>
    6dcc:	2700      	movs	r7, #0
    6dce:	e7cd      	b.n	6d6c <__aeabi_dsub+0x688>
    6dd0:	1c0d      	adds	r5, r1, #0
    6dd2:	e5c8      	b.n	6966 <__aeabi_dsub+0x282>
    6dd4:	2700      	movs	r7, #0
    6dd6:	e7f3      	b.n	6dc0 <__aeabi_dsub+0x6dc>

00006dd8 <__aeabi_d2iz>:
    6dd8:	030b      	lsls	r3, r1, #12
    6dda:	b530      	push	{r4, r5, lr}
    6ddc:	4c13      	ldr	r4, [pc, #76]	; (6e2c <__aeabi_d2iz+0x54>)
    6dde:	0b1a      	lsrs	r2, r3, #12
    6de0:	004b      	lsls	r3, r1, #1
    6de2:	1c05      	adds	r5, r0, #0
    6de4:	0d5b      	lsrs	r3, r3, #21
    6de6:	0fc9      	lsrs	r1, r1, #31
    6de8:	2000      	movs	r0, #0
    6dea:	42a3      	cmp	r3, r4
    6dec:	dd10      	ble.n	6e10 <__aeabi_d2iz+0x38>
    6dee:	4810      	ldr	r0, [pc, #64]	; (6e30 <__aeabi_d2iz+0x58>)
    6df0:	4283      	cmp	r3, r0
    6df2:	dc0e      	bgt.n	6e12 <__aeabi_d2iz+0x3a>
    6df4:	2080      	movs	r0, #128	; 0x80
    6df6:	4c0f      	ldr	r4, [pc, #60]	; (6e34 <__aeabi_d2iz+0x5c>)
    6df8:	0340      	lsls	r0, r0, #13
    6dfa:	4302      	orrs	r2, r0
    6dfc:	1ae4      	subs	r4, r4, r3
    6dfe:	2c1f      	cmp	r4, #31
    6e00:	dd0a      	ble.n	6e18 <__aeabi_d2iz+0x40>
    6e02:	480d      	ldr	r0, [pc, #52]	; (6e38 <__aeabi_d2iz+0x60>)
    6e04:	1ac3      	subs	r3, r0, r3
    6e06:	40da      	lsrs	r2, r3
    6e08:	1c13      	adds	r3, r2, #0
    6e0a:	4248      	negs	r0, r1
    6e0c:	4043      	eors	r3, r0
    6e0e:	1858      	adds	r0, r3, r1
    6e10:	bd30      	pop	{r4, r5, pc}
    6e12:	4b0a      	ldr	r3, [pc, #40]	; (6e3c <__aeabi_d2iz+0x64>)
    6e14:	18c8      	adds	r0, r1, r3
    6e16:	e7fb      	b.n	6e10 <__aeabi_d2iz+0x38>
    6e18:	1c28      	adds	r0, r5, #0
    6e1a:	40e0      	lsrs	r0, r4
    6e1c:	4c08      	ldr	r4, [pc, #32]	; (6e40 <__aeabi_d2iz+0x68>)
    6e1e:	46a4      	mov	ip, r4
    6e20:	4463      	add	r3, ip
    6e22:	409a      	lsls	r2, r3
    6e24:	1c13      	adds	r3, r2, #0
    6e26:	4303      	orrs	r3, r0
    6e28:	e7ef      	b.n	6e0a <__aeabi_d2iz+0x32>
    6e2a:	46c0      	nop			; (mov r8, r8)
    6e2c:	000003fe 	.word	0x000003fe
    6e30:	0000041d 	.word	0x0000041d
    6e34:	00000433 	.word	0x00000433
    6e38:	00000413 	.word	0x00000413
    6e3c:	7fffffff 	.word	0x7fffffff
    6e40:	fffffbed 	.word	0xfffffbed

00006e44 <__aeabi_i2d>:
    6e44:	b538      	push	{r3, r4, r5, lr}
    6e46:	1e04      	subs	r4, r0, #0
    6e48:	d016      	beq.n	6e78 <__aeabi_i2d+0x34>
    6e4a:	0fc5      	lsrs	r5, r0, #31
    6e4c:	d000      	beq.n	6e50 <__aeabi_i2d+0xc>
    6e4e:	4244      	negs	r4, r0
    6e50:	1c20      	adds	r0, r4, #0
    6e52:	f000 f92f 	bl	70b4 <__clzsi2>
    6e56:	4b17      	ldr	r3, [pc, #92]	; (6eb4 <__aeabi_i2d+0x70>)
    6e58:	1a1b      	subs	r3, r3, r0
    6e5a:	280a      	cmp	r0, #10
    6e5c:	dc21      	bgt.n	6ea2 <__aeabi_i2d+0x5e>
    6e5e:	1c02      	adds	r2, r0, #0
    6e60:	1c21      	adds	r1, r4, #0
    6e62:	3215      	adds	r2, #21
    6e64:	4091      	lsls	r1, r2
    6e66:	1c0a      	adds	r2, r1, #0
    6e68:	210b      	movs	r1, #11
    6e6a:	1a08      	subs	r0, r1, r0
    6e6c:	40c4      	lsrs	r4, r0
    6e6e:	055b      	lsls	r3, r3, #21
    6e70:	0324      	lsls	r4, r4, #12
    6e72:	0b24      	lsrs	r4, r4, #12
    6e74:	0d5b      	lsrs	r3, r3, #21
    6e76:	e003      	b.n	6e80 <__aeabi_i2d+0x3c>
    6e78:	2500      	movs	r5, #0
    6e7a:	2300      	movs	r3, #0
    6e7c:	2400      	movs	r4, #0
    6e7e:	2200      	movs	r2, #0
    6e80:	2100      	movs	r1, #0
    6e82:	1c10      	adds	r0, r2, #0
    6e84:	0324      	lsls	r4, r4, #12
    6e86:	0d0a      	lsrs	r2, r1, #20
    6e88:	0512      	lsls	r2, r2, #20
    6e8a:	0b24      	lsrs	r4, r4, #12
    6e8c:	4314      	orrs	r4, r2
    6e8e:	4a0a      	ldr	r2, [pc, #40]	; (6eb8 <__aeabi_i2d+0x74>)
    6e90:	051b      	lsls	r3, r3, #20
    6e92:	4014      	ands	r4, r2
    6e94:	431c      	orrs	r4, r3
    6e96:	0064      	lsls	r4, r4, #1
    6e98:	07ed      	lsls	r5, r5, #31
    6e9a:	0864      	lsrs	r4, r4, #1
    6e9c:	432c      	orrs	r4, r5
    6e9e:	1c21      	adds	r1, r4, #0
    6ea0:	bd38      	pop	{r3, r4, r5, pc}
    6ea2:	380b      	subs	r0, #11
    6ea4:	4084      	lsls	r4, r0
    6ea6:	055b      	lsls	r3, r3, #21
    6ea8:	0324      	lsls	r4, r4, #12
    6eaa:	0b24      	lsrs	r4, r4, #12
    6eac:	0d5b      	lsrs	r3, r3, #21
    6eae:	2200      	movs	r2, #0
    6eb0:	e7e6      	b.n	6e80 <__aeabi_i2d+0x3c>
    6eb2:	46c0      	nop			; (mov r8, r8)
    6eb4:	0000041e 	.word	0x0000041e
    6eb8:	800fffff 	.word	0x800fffff

00006ebc <__aeabi_ui2d>:
    6ebc:	b510      	push	{r4, lr}
    6ebe:	1e04      	subs	r4, r0, #0
    6ec0:	d010      	beq.n	6ee4 <__aeabi_ui2d+0x28>
    6ec2:	f000 f8f7 	bl	70b4 <__clzsi2>
    6ec6:	4a14      	ldr	r2, [pc, #80]	; (6f18 <__aeabi_ui2d+0x5c>)
    6ec8:	1a12      	subs	r2, r2, r0
    6eca:	280a      	cmp	r0, #10
    6ecc:	dc1a      	bgt.n	6f04 <__aeabi_ui2d+0x48>
    6ece:	230b      	movs	r3, #11
    6ed0:	1c21      	adds	r1, r4, #0
    6ed2:	1a1b      	subs	r3, r3, r0
    6ed4:	40d9      	lsrs	r1, r3
    6ed6:	3015      	adds	r0, #21
    6ed8:	030b      	lsls	r3, r1, #12
    6eda:	0552      	lsls	r2, r2, #21
    6edc:	4084      	lsls	r4, r0
    6ede:	0b1b      	lsrs	r3, r3, #12
    6ee0:	0d52      	lsrs	r2, r2, #21
    6ee2:	e001      	b.n	6ee8 <__aeabi_ui2d+0x2c>
    6ee4:	2200      	movs	r2, #0
    6ee6:	2300      	movs	r3, #0
    6ee8:	2100      	movs	r1, #0
    6eea:	031b      	lsls	r3, r3, #12
    6eec:	1c20      	adds	r0, r4, #0
    6eee:	0b1c      	lsrs	r4, r3, #12
    6ef0:	0d0b      	lsrs	r3, r1, #20
    6ef2:	051b      	lsls	r3, r3, #20
    6ef4:	4323      	orrs	r3, r4
    6ef6:	4c09      	ldr	r4, [pc, #36]	; (6f1c <__aeabi_ui2d+0x60>)
    6ef8:	0512      	lsls	r2, r2, #20
    6efa:	4023      	ands	r3, r4
    6efc:	4313      	orrs	r3, r2
    6efe:	005b      	lsls	r3, r3, #1
    6f00:	0859      	lsrs	r1, r3, #1
    6f02:	bd10      	pop	{r4, pc}
    6f04:	1c03      	adds	r3, r0, #0
    6f06:	3b0b      	subs	r3, #11
    6f08:	409c      	lsls	r4, r3
    6f0a:	0552      	lsls	r2, r2, #21
    6f0c:	0323      	lsls	r3, r4, #12
    6f0e:	0b1b      	lsrs	r3, r3, #12
    6f10:	0d52      	lsrs	r2, r2, #21
    6f12:	2400      	movs	r4, #0
    6f14:	e7e8      	b.n	6ee8 <__aeabi_ui2d+0x2c>
    6f16:	46c0      	nop			; (mov r8, r8)
    6f18:	0000041e 	.word	0x0000041e
    6f1c:	800fffff 	.word	0x800fffff

00006f20 <__aeabi_d2f>:
    6f20:	b570      	push	{r4, r5, r6, lr}
    6f22:	030b      	lsls	r3, r1, #12
    6f24:	004d      	lsls	r5, r1, #1
    6f26:	0f44      	lsrs	r4, r0, #29
    6f28:	0d6d      	lsrs	r5, r5, #21
    6f2a:	0a5b      	lsrs	r3, r3, #9
    6f2c:	4323      	orrs	r3, r4
    6f2e:	1c6c      	adds	r4, r5, #1
    6f30:	0564      	lsls	r4, r4, #21
    6f32:	0fc9      	lsrs	r1, r1, #31
    6f34:	00c2      	lsls	r2, r0, #3
    6f36:	0d64      	lsrs	r4, r4, #21
    6f38:	2c01      	cmp	r4, #1
    6f3a:	dd2a      	ble.n	6f92 <__aeabi_d2f+0x72>
    6f3c:	4c3b      	ldr	r4, [pc, #236]	; (702c <__aeabi_d2f+0x10c>)
    6f3e:	192c      	adds	r4, r5, r4
    6f40:	2cfe      	cmp	r4, #254	; 0xfe
    6f42:	dc1a      	bgt.n	6f7a <__aeabi_d2f+0x5a>
    6f44:	2c00      	cmp	r4, #0
    6f46:	dd35      	ble.n	6fb4 <__aeabi_d2f+0x94>
    6f48:	0180      	lsls	r0, r0, #6
    6f4a:	1e45      	subs	r5, r0, #1
    6f4c:	41a8      	sbcs	r0, r5
    6f4e:	00db      	lsls	r3, r3, #3
    6f50:	4303      	orrs	r3, r0
    6f52:	0f52      	lsrs	r2, r2, #29
    6f54:	4313      	orrs	r3, r2
    6f56:	075a      	lsls	r2, r3, #29
    6f58:	d004      	beq.n	6f64 <__aeabi_d2f+0x44>
    6f5a:	220f      	movs	r2, #15
    6f5c:	401a      	ands	r2, r3
    6f5e:	2a04      	cmp	r2, #4
    6f60:	d000      	beq.n	6f64 <__aeabi_d2f+0x44>
    6f62:	3304      	adds	r3, #4
    6f64:	2280      	movs	r2, #128	; 0x80
    6f66:	04d2      	lsls	r2, r2, #19
    6f68:	401a      	ands	r2, r3
    6f6a:	d027      	beq.n	6fbc <__aeabi_d2f+0x9c>
    6f6c:	3401      	adds	r4, #1
    6f6e:	2cff      	cmp	r4, #255	; 0xff
    6f70:	d003      	beq.n	6f7a <__aeabi_d2f+0x5a>
    6f72:	019b      	lsls	r3, r3, #6
    6f74:	0a5b      	lsrs	r3, r3, #9
    6f76:	b2e4      	uxtb	r4, r4
    6f78:	e001      	b.n	6f7e <__aeabi_d2f+0x5e>
    6f7a:	24ff      	movs	r4, #255	; 0xff
    6f7c:	2300      	movs	r3, #0
    6f7e:	025b      	lsls	r3, r3, #9
    6f80:	05e4      	lsls	r4, r4, #23
    6f82:	0a5b      	lsrs	r3, r3, #9
    6f84:	4323      	orrs	r3, r4
    6f86:	005b      	lsls	r3, r3, #1
    6f88:	07c9      	lsls	r1, r1, #31
    6f8a:	085b      	lsrs	r3, r3, #1
    6f8c:	430b      	orrs	r3, r1
    6f8e:	1c18      	adds	r0, r3, #0
    6f90:	bd70      	pop	{r4, r5, r6, pc}
    6f92:	2d00      	cmp	r5, #0
    6f94:	d106      	bne.n	6fa4 <__aeabi_d2f+0x84>
    6f96:	4313      	orrs	r3, r2
    6f98:	d10e      	bne.n	6fb8 <__aeabi_d2f+0x98>
    6f9a:	2400      	movs	r4, #0
    6f9c:	025b      	lsls	r3, r3, #9
    6f9e:	0a5b      	lsrs	r3, r3, #9
    6fa0:	b2e4      	uxtb	r4, r4
    6fa2:	e7ec      	b.n	6f7e <__aeabi_d2f+0x5e>
    6fa4:	431a      	orrs	r2, r3
    6fa6:	d0e8      	beq.n	6f7a <__aeabi_d2f+0x5a>
    6fa8:	2080      	movs	r0, #128	; 0x80
    6faa:	00db      	lsls	r3, r3, #3
    6fac:	0480      	lsls	r0, r0, #18
    6fae:	4303      	orrs	r3, r0
    6fb0:	24ff      	movs	r4, #255	; 0xff
    6fb2:	e7d0      	b.n	6f56 <__aeabi_d2f+0x36>
    6fb4:	3417      	adds	r4, #23
    6fb6:	da0c      	bge.n	6fd2 <__aeabi_d2f+0xb2>
    6fb8:	2305      	movs	r3, #5
    6fba:	2400      	movs	r4, #0
    6fbc:	08db      	lsrs	r3, r3, #3
    6fbe:	2cff      	cmp	r4, #255	; 0xff
    6fc0:	d1ec      	bne.n	6f9c <__aeabi_d2f+0x7c>
    6fc2:	2b00      	cmp	r3, #0
    6fc4:	d02d      	beq.n	7022 <__aeabi_d2f+0x102>
    6fc6:	2280      	movs	r2, #128	; 0x80
    6fc8:	03d2      	lsls	r2, r2, #15
    6fca:	4313      	orrs	r3, r2
    6fcc:	025b      	lsls	r3, r3, #9
    6fce:	0a5b      	lsrs	r3, r3, #9
    6fd0:	e7d5      	b.n	6f7e <__aeabi_d2f+0x5e>
    6fd2:	2480      	movs	r4, #128	; 0x80
    6fd4:	4816      	ldr	r0, [pc, #88]	; (7030 <__aeabi_d2f+0x110>)
    6fd6:	0424      	lsls	r4, r4, #16
    6fd8:	4323      	orrs	r3, r4
    6fda:	1b40      	subs	r0, r0, r5
    6fdc:	281f      	cmp	r0, #31
    6fde:	dc0d      	bgt.n	6ffc <__aeabi_d2f+0xdc>
    6fe0:	4c14      	ldr	r4, [pc, #80]	; (7034 <__aeabi_d2f+0x114>)
    6fe2:	46a4      	mov	ip, r4
    6fe4:	4465      	add	r5, ip
    6fe6:	40ab      	lsls	r3, r5
    6fe8:	1c1c      	adds	r4, r3, #0
    6fea:	1c13      	adds	r3, r2, #0
    6fec:	40ab      	lsls	r3, r5
    6fee:	1e5d      	subs	r5, r3, #1
    6ff0:	41ab      	sbcs	r3, r5
    6ff2:	40c2      	lsrs	r2, r0
    6ff4:	4323      	orrs	r3, r4
    6ff6:	4313      	orrs	r3, r2
    6ff8:	2400      	movs	r4, #0
    6ffa:	e7ac      	b.n	6f56 <__aeabi_d2f+0x36>
    6ffc:	1c1e      	adds	r6, r3, #0
    6ffe:	4c0e      	ldr	r4, [pc, #56]	; (7038 <__aeabi_d2f+0x118>)
    7000:	1b64      	subs	r4, r4, r5
    7002:	40e6      	lsrs	r6, r4
    7004:	1c34      	adds	r4, r6, #0
    7006:	2820      	cmp	r0, #32
    7008:	d00d      	beq.n	7026 <__aeabi_d2f+0x106>
    700a:	480c      	ldr	r0, [pc, #48]	; (703c <__aeabi_d2f+0x11c>)
    700c:	4684      	mov	ip, r0
    700e:	4465      	add	r5, ip
    7010:	40ab      	lsls	r3, r5
    7012:	1c1d      	adds	r5, r3, #0
    7014:	432a      	orrs	r2, r5
    7016:	1e53      	subs	r3, r2, #1
    7018:	419a      	sbcs	r2, r3
    701a:	1c13      	adds	r3, r2, #0
    701c:	4323      	orrs	r3, r4
    701e:	2400      	movs	r4, #0
    7020:	e799      	b.n	6f56 <__aeabi_d2f+0x36>
    7022:	2300      	movs	r3, #0
    7024:	e7ab      	b.n	6f7e <__aeabi_d2f+0x5e>
    7026:	2500      	movs	r5, #0
    7028:	e7f4      	b.n	7014 <__aeabi_d2f+0xf4>
    702a:	46c0      	nop			; (mov r8, r8)
    702c:	fffffc80 	.word	0xfffffc80
    7030:	0000039e 	.word	0x0000039e
    7034:	fffffc82 	.word	0xfffffc82
    7038:	0000037e 	.word	0x0000037e
    703c:	fffffca2 	.word	0xfffffca2

00007040 <__aeabi_cfrcmple>:
    7040:	4684      	mov	ip, r0
    7042:	1c08      	adds	r0, r1, #0
    7044:	4661      	mov	r1, ip
    7046:	e7ff      	b.n	7048 <__aeabi_cfcmpeq>

00007048 <__aeabi_cfcmpeq>:
    7048:	b51f      	push	{r0, r1, r2, r3, r4, lr}
    704a:	f000 fa69 	bl	7520 <__lesf2>
    704e:	2800      	cmp	r0, #0
    7050:	d401      	bmi.n	7056 <__aeabi_cfcmpeq+0xe>
    7052:	2100      	movs	r1, #0
    7054:	42c8      	cmn	r0, r1
    7056:	bd1f      	pop	{r0, r1, r2, r3, r4, pc}

00007058 <__aeabi_fcmpeq>:
    7058:	b510      	push	{r4, lr}
    705a:	f000 f9ed 	bl	7438 <__eqsf2>
    705e:	4240      	negs	r0, r0
    7060:	3001      	adds	r0, #1
    7062:	bd10      	pop	{r4, pc}

00007064 <__aeabi_fcmplt>:
    7064:	b510      	push	{r4, lr}
    7066:	f000 fa5b 	bl	7520 <__lesf2>
    706a:	2800      	cmp	r0, #0
    706c:	db01      	blt.n	7072 <__aeabi_fcmplt+0xe>
    706e:	2000      	movs	r0, #0
    7070:	bd10      	pop	{r4, pc}
    7072:	2001      	movs	r0, #1
    7074:	bd10      	pop	{r4, pc}
    7076:	46c0      	nop			; (mov r8, r8)

00007078 <__aeabi_fcmple>:
    7078:	b510      	push	{r4, lr}
    707a:	f000 fa51 	bl	7520 <__lesf2>
    707e:	2800      	cmp	r0, #0
    7080:	dd01      	ble.n	7086 <__aeabi_fcmple+0xe>
    7082:	2000      	movs	r0, #0
    7084:	bd10      	pop	{r4, pc}
    7086:	2001      	movs	r0, #1
    7088:	bd10      	pop	{r4, pc}
    708a:	46c0      	nop			; (mov r8, r8)

0000708c <__aeabi_fcmpgt>:
    708c:	b510      	push	{r4, lr}
    708e:	f000 f9fd 	bl	748c <__gesf2>
    7092:	2800      	cmp	r0, #0
    7094:	dc01      	bgt.n	709a <__aeabi_fcmpgt+0xe>
    7096:	2000      	movs	r0, #0
    7098:	bd10      	pop	{r4, pc}
    709a:	2001      	movs	r0, #1
    709c:	bd10      	pop	{r4, pc}
    709e:	46c0      	nop			; (mov r8, r8)

000070a0 <__aeabi_fcmpge>:
    70a0:	b510      	push	{r4, lr}
    70a2:	f000 f9f3 	bl	748c <__gesf2>
    70a6:	2800      	cmp	r0, #0
    70a8:	da01      	bge.n	70ae <__aeabi_fcmpge+0xe>
    70aa:	2000      	movs	r0, #0
    70ac:	bd10      	pop	{r4, pc}
    70ae:	2001      	movs	r0, #1
    70b0:	bd10      	pop	{r4, pc}
    70b2:	46c0      	nop			; (mov r8, r8)

000070b4 <__clzsi2>:
    70b4:	211c      	movs	r1, #28
    70b6:	2301      	movs	r3, #1
    70b8:	041b      	lsls	r3, r3, #16
    70ba:	4298      	cmp	r0, r3
    70bc:	d301      	bcc.n	70c2 <__clzsi2+0xe>
    70be:	0c00      	lsrs	r0, r0, #16
    70c0:	3910      	subs	r1, #16
    70c2:	0a1b      	lsrs	r3, r3, #8
    70c4:	4298      	cmp	r0, r3
    70c6:	d301      	bcc.n	70cc <__clzsi2+0x18>
    70c8:	0a00      	lsrs	r0, r0, #8
    70ca:	3908      	subs	r1, #8
    70cc:	091b      	lsrs	r3, r3, #4
    70ce:	4298      	cmp	r0, r3
    70d0:	d301      	bcc.n	70d6 <__clzsi2+0x22>
    70d2:	0900      	lsrs	r0, r0, #4
    70d4:	3904      	subs	r1, #4
    70d6:	a202      	add	r2, pc, #8	; (adr r2, 70e0 <__clzsi2+0x2c>)
    70d8:	5c10      	ldrb	r0, [r2, r0]
    70da:	1840      	adds	r0, r0, r1
    70dc:	4770      	bx	lr
    70de:	46c0      	nop			; (mov r8, r8)
    70e0:	02020304 	.word	0x02020304
    70e4:	01010101 	.word	0x01010101
	...

000070f0 <__divdi3>:
    70f0:	b5f0      	push	{r4, r5, r6, r7, lr}
    70f2:	4644      	mov	r4, r8
    70f4:	465f      	mov	r7, fp
    70f6:	4656      	mov	r6, sl
    70f8:	464d      	mov	r5, r9
    70fa:	b4f0      	push	{r4, r5, r6, r7}
    70fc:	1c1c      	adds	r4, r3, #0
    70fe:	b085      	sub	sp, #20
    7100:	2900      	cmp	r1, #0
    7102:	da00      	bge.n	7106 <__divdi3+0x16>
    7104:	e0a9      	b.n	725a <__divdi3+0x16a>
    7106:	1c0f      	adds	r7, r1, #0
    7108:	2100      	movs	r1, #0
    710a:	1c06      	adds	r6, r0, #0
    710c:	4688      	mov	r8, r1
    710e:	1c10      	adds	r0, r2, #0
    7110:	1c19      	adds	r1, r3, #0
    7112:	2c00      	cmp	r4, #0
    7114:	da00      	bge.n	7118 <__divdi3+0x28>
    7116:	e097      	b.n	7248 <__divdi3+0x158>
    7118:	1c34      	adds	r4, r6, #0
    711a:	1c3d      	adds	r5, r7, #0
    711c:	4682      	mov	sl, r0
    711e:	4689      	mov	r9, r1
    7120:	42b9      	cmp	r1, r7
    7122:	d873      	bhi.n	720c <__divdi3+0x11c>
    7124:	d070      	beq.n	7208 <__divdi3+0x118>
    7126:	4649      	mov	r1, r9
    7128:	4650      	mov	r0, sl
    712a:	f000 fa3f 	bl	75ac <__clzdi2>
    712e:	4683      	mov	fp, r0
    7130:	1c39      	adds	r1, r7, #0
    7132:	1c30      	adds	r0, r6, #0
    7134:	f000 fa3a 	bl	75ac <__clzdi2>
    7138:	465b      	mov	r3, fp
    713a:	1a18      	subs	r0, r3, r0
    713c:	1c03      	adds	r3, r0, #0
    713e:	4683      	mov	fp, r0
    7140:	3b20      	subs	r3, #32
    7142:	469c      	mov	ip, r3
    7144:	d500      	bpl.n	7148 <__divdi3+0x58>
    7146:	e09c      	b.n	7282 <__divdi3+0x192>
    7148:	2300      	movs	r3, #0
    714a:	2200      	movs	r2, #0
    714c:	4651      	mov	r1, sl
    714e:	9200      	str	r2, [sp, #0]
    7150:	9301      	str	r3, [sp, #4]
    7152:	4663      	mov	r3, ip
    7154:	4099      	lsls	r1, r3
    7156:	9101      	str	r1, [sp, #4]
    7158:	4651      	mov	r1, sl
    715a:	4081      	lsls	r1, r0
    715c:	9b01      	ldr	r3, [sp, #4]
    715e:	9100      	str	r1, [sp, #0]
    7160:	42bb      	cmp	r3, r7
    7162:	d900      	bls.n	7166 <__divdi3+0x76>
    7164:	e083      	b.n	726e <__divdi3+0x17e>
    7166:	d100      	bne.n	716a <__divdi3+0x7a>
    7168:	e07e      	b.n	7268 <__divdi3+0x178>
    716a:	9a00      	ldr	r2, [sp, #0]
    716c:	9b01      	ldr	r3, [sp, #4]
    716e:	1c34      	adds	r4, r6, #0
    7170:	1c3d      	adds	r5, r7, #0
    7172:	1aa4      	subs	r4, r4, r2
    7174:	419d      	sbcs	r5, r3
    7176:	4663      	mov	r3, ip
    7178:	2b00      	cmp	r3, #0
    717a:	da00      	bge.n	717e <__divdi3+0x8e>
    717c:	e09a      	b.n	72b4 <__divdi3+0x1c4>
    717e:	2600      	movs	r6, #0
    7180:	2700      	movs	r7, #0
    7182:	9602      	str	r6, [sp, #8]
    7184:	9703      	str	r7, [sp, #12]
    7186:	3601      	adds	r6, #1
    7188:	409e      	lsls	r6, r3
    718a:	9603      	str	r6, [sp, #12]
    718c:	2601      	movs	r6, #1
    718e:	4086      	lsls	r6, r0
    7190:	9602      	str	r6, [sp, #8]
    7192:	2800      	cmp	r0, #0
    7194:	d100      	bne.n	7198 <__divdi3+0xa8>
    7196:	e071      	b.n	727c <__divdi3+0x18c>
    7198:	9900      	ldr	r1, [sp, #0]
    719a:	9a01      	ldr	r2, [sp, #4]
    719c:	07d3      	lsls	r3, r2, #31
    719e:	4699      	mov	r9, r3
    71a0:	464b      	mov	r3, r9
    71a2:	084e      	lsrs	r6, r1, #1
    71a4:	431e      	orrs	r6, r3
    71a6:	0857      	lsrs	r7, r2, #1
    71a8:	2300      	movs	r3, #0
    71aa:	2201      	movs	r2, #1
    71ac:	e00c      	b.n	71c8 <__divdi3+0xd8>
    71ae:	42af      	cmp	r7, r5
    71b0:	d101      	bne.n	71b6 <__divdi3+0xc6>
    71b2:	42a6      	cmp	r6, r4
    71b4:	d80a      	bhi.n	71cc <__divdi3+0xdc>
    71b6:	1ba4      	subs	r4, r4, r6
    71b8:	41bd      	sbcs	r5, r7
    71ba:	1924      	adds	r4, r4, r4
    71bc:	416d      	adcs	r5, r5
    71be:	3801      	subs	r0, #1
    71c0:	18a4      	adds	r4, r4, r2
    71c2:	415d      	adcs	r5, r3
    71c4:	2800      	cmp	r0, #0
    71c6:	d006      	beq.n	71d6 <__divdi3+0xe6>
    71c8:	42af      	cmp	r7, r5
    71ca:	d9f0      	bls.n	71ae <__divdi3+0xbe>
    71cc:	3801      	subs	r0, #1
    71ce:	1924      	adds	r4, r4, r4
    71d0:	416d      	adcs	r5, r5
    71d2:	2800      	cmp	r0, #0
    71d4:	d1f8      	bne.n	71c8 <__divdi3+0xd8>
    71d6:	2220      	movs	r2, #32
    71d8:	9e02      	ldr	r6, [sp, #8]
    71da:	9f03      	ldr	r7, [sp, #12]
    71dc:	465b      	mov	r3, fp
    71de:	4252      	negs	r2, r2
    71e0:	1936      	adds	r6, r6, r4
    71e2:	416f      	adcs	r7, r5
    71e4:	1899      	adds	r1, r3, r2
    71e6:	d45a      	bmi.n	729e <__divdi3+0x1ae>
    71e8:	1c28      	adds	r0, r5, #0
    71ea:	40c8      	lsrs	r0, r1
    71ec:	1c2c      	adds	r4, r5, #0
    71ee:	465b      	mov	r3, fp
    71f0:	40dc      	lsrs	r4, r3
    71f2:	2900      	cmp	r1, #0
    71f4:	db68      	blt.n	72c8 <__divdi3+0x1d8>
    71f6:	1c04      	adds	r4, r0, #0
    71f8:	408c      	lsls	r4, r1
    71fa:	1c23      	adds	r3, r4, #0
    71fc:	4659      	mov	r1, fp
    71fe:	4088      	lsls	r0, r1
    7200:	1c02      	adds	r2, r0, #0
    7202:	1ab6      	subs	r6, r6, r2
    7204:	419f      	sbcs	r7, r3
    7206:	e003      	b.n	7210 <__divdi3+0x120>
    7208:	42b0      	cmp	r0, r6
    720a:	d98c      	bls.n	7126 <__divdi3+0x36>
    720c:	2600      	movs	r6, #0
    720e:	2700      	movs	r7, #0
    7210:	4641      	mov	r1, r8
    7212:	1e4b      	subs	r3, r1, #1
    7214:	4199      	sbcs	r1, r3
    7216:	2300      	movs	r3, #0
    7218:	9100      	str	r1, [sp, #0]
    721a:	9301      	str	r3, [sp, #4]
    721c:	9a00      	ldr	r2, [sp, #0]
    721e:	9b01      	ldr	r3, [sp, #4]
    7220:	2500      	movs	r5, #0
    7222:	4254      	negs	r4, r2
    7224:	419d      	sbcs	r5, r3
    7226:	1c33      	adds	r3, r6, #0
    7228:	4063      	eors	r3, r4
    722a:	1c18      	adds	r0, r3, #0
    722c:	1c3b      	adds	r3, r7, #0
    722e:	406b      	eors	r3, r5
    7230:	1c19      	adds	r1, r3, #0
    7232:	9b00      	ldr	r3, [sp, #0]
    7234:	9c01      	ldr	r4, [sp, #4]
    7236:	18c0      	adds	r0, r0, r3
    7238:	4161      	adcs	r1, r4
    723a:	b005      	add	sp, #20
    723c:	bc3c      	pop	{r2, r3, r4, r5}
    723e:	4690      	mov	r8, r2
    7240:	4699      	mov	r9, r3
    7242:	46a2      	mov	sl, r4
    7244:	46ab      	mov	fp, r5
    7246:	bdf0      	pop	{r4, r5, r6, r7, pc}
    7248:	4643      	mov	r3, r8
    724a:	43db      	mvns	r3, r3
    724c:	1c0c      	adds	r4, r1, #0
    724e:	4698      	mov	r8, r3
    7250:	1c13      	adds	r3, r2, #0
    7252:	2100      	movs	r1, #0
    7254:	4258      	negs	r0, r3
    7256:	41a1      	sbcs	r1, r4
    7258:	e75e      	b.n	7118 <__divdi3+0x28>
    725a:	2700      	movs	r7, #0
    725c:	4246      	negs	r6, r0
    725e:	418f      	sbcs	r7, r1
    7260:	2101      	movs	r1, #1
    7262:	4249      	negs	r1, r1
    7264:	4688      	mov	r8, r1
    7266:	e752      	b.n	710e <__divdi3+0x1e>
    7268:	42b1      	cmp	r1, r6
    726a:	d800      	bhi.n	726e <__divdi3+0x17e>
    726c:	e77d      	b.n	716a <__divdi3+0x7a>
    726e:	2600      	movs	r6, #0
    7270:	2700      	movs	r7, #0
    7272:	9602      	str	r6, [sp, #8]
    7274:	9703      	str	r7, [sp, #12]
    7276:	2800      	cmp	r0, #0
    7278:	d000      	beq.n	727c <__divdi3+0x18c>
    727a:	e78d      	b.n	7198 <__divdi3+0xa8>
    727c:	9e02      	ldr	r6, [sp, #8]
    727e:	9f03      	ldr	r7, [sp, #12]
    7280:	e7c6      	b.n	7210 <__divdi3+0x120>
    7282:	2120      	movs	r1, #32
    7284:	4653      	mov	r3, sl
    7286:	1a09      	subs	r1, r1, r0
    7288:	40cb      	lsrs	r3, r1
    728a:	2200      	movs	r2, #0
    728c:	1c19      	adds	r1, r3, #0
    728e:	2300      	movs	r3, #0
    7290:	9200      	str	r2, [sp, #0]
    7292:	9301      	str	r3, [sp, #4]
    7294:	464b      	mov	r3, r9
    7296:	4083      	lsls	r3, r0
    7298:	430b      	orrs	r3, r1
    729a:	9301      	str	r3, [sp, #4]
    729c:	e75c      	b.n	7158 <__divdi3+0x68>
    729e:	465a      	mov	r2, fp
    72a0:	2320      	movs	r3, #32
    72a2:	1a9b      	subs	r3, r3, r2
    72a4:	1c2a      	adds	r2, r5, #0
    72a6:	409a      	lsls	r2, r3
    72a8:	1c20      	adds	r0, r4, #0
    72aa:	1c13      	adds	r3, r2, #0
    72ac:	465a      	mov	r2, fp
    72ae:	40d0      	lsrs	r0, r2
    72b0:	4318      	orrs	r0, r3
    72b2:	e79b      	b.n	71ec <__divdi3+0xfc>
    72b4:	2620      	movs	r6, #32
    72b6:	2700      	movs	r7, #0
    72b8:	1a33      	subs	r3, r6, r0
    72ba:	2600      	movs	r6, #0
    72bc:	9602      	str	r6, [sp, #8]
    72be:	9703      	str	r7, [sp, #12]
    72c0:	2701      	movs	r7, #1
    72c2:	40df      	lsrs	r7, r3
    72c4:	9703      	str	r7, [sp, #12]
    72c6:	e761      	b.n	718c <__divdi3+0x9c>
    72c8:	465b      	mov	r3, fp
    72ca:	2120      	movs	r1, #32
    72cc:	465d      	mov	r5, fp
    72ce:	1ac9      	subs	r1, r1, r3
    72d0:	1c03      	adds	r3, r0, #0
    72d2:	40ac      	lsls	r4, r5
    72d4:	40cb      	lsrs	r3, r1
    72d6:	1c19      	adds	r1, r3, #0
    72d8:	1c23      	adds	r3, r4, #0
    72da:	430b      	orrs	r3, r1
    72dc:	e78e      	b.n	71fc <__divdi3+0x10c>
    72de:	46c0      	nop			; (mov r8, r8)

000072e0 <__udivdi3>:
    72e0:	b5f0      	push	{r4, r5, r6, r7, lr}
    72e2:	4645      	mov	r5, r8
    72e4:	464e      	mov	r6, r9
    72e6:	4657      	mov	r7, sl
    72e8:	b4e0      	push	{r5, r6, r7}
    72ea:	1c04      	adds	r4, r0, #0
    72ec:	b082      	sub	sp, #8
    72ee:	1c0d      	adds	r5, r1, #0
    72f0:	4691      	mov	r9, r2
    72f2:	4698      	mov	r8, r3
    72f4:	428b      	cmp	r3, r1
    72f6:	d862      	bhi.n	73be <__udivdi3+0xde>
    72f8:	d05f      	beq.n	73ba <__udivdi3+0xda>
    72fa:	4641      	mov	r1, r8
    72fc:	4648      	mov	r0, r9
    72fe:	f000 f955 	bl	75ac <__clzdi2>
    7302:	1c29      	adds	r1, r5, #0
    7304:	1c06      	adds	r6, r0, #0
    7306:	1c20      	adds	r0, r4, #0
    7308:	f000 f950 	bl	75ac <__clzdi2>
    730c:	2320      	movs	r3, #32
    730e:	1a31      	subs	r1, r6, r0
    7310:	425b      	negs	r3, r3
    7312:	468a      	mov	sl, r1
    7314:	18c8      	adds	r0, r1, r3
    7316:	d465      	bmi.n	73e4 <__udivdi3+0x104>
    7318:	464b      	mov	r3, r9
    731a:	4083      	lsls	r3, r0
    731c:	1c1f      	adds	r7, r3, #0
    731e:	464b      	mov	r3, r9
    7320:	408b      	lsls	r3, r1
    7322:	1c1e      	adds	r6, r3, #0
    7324:	42af      	cmp	r7, r5
    7326:	d858      	bhi.n	73da <__udivdi3+0xfa>
    7328:	d055      	beq.n	73d6 <__udivdi3+0xf6>
    732a:	1ba4      	subs	r4, r4, r6
    732c:	41bd      	sbcs	r5, r7
    732e:	2800      	cmp	r0, #0
    7330:	da00      	bge.n	7334 <__udivdi3+0x54>
    7332:	e077      	b.n	7424 <__udivdi3+0x144>
    7334:	2200      	movs	r2, #0
    7336:	2300      	movs	r3, #0
    7338:	9200      	str	r2, [sp, #0]
    733a:	9301      	str	r3, [sp, #4]
    733c:	3201      	adds	r2, #1
    733e:	4082      	lsls	r2, r0
    7340:	9201      	str	r2, [sp, #4]
    7342:	2301      	movs	r3, #1
    7344:	408b      	lsls	r3, r1
    7346:	9300      	str	r3, [sp, #0]
    7348:	2900      	cmp	r1, #0
    734a:	d03c      	beq.n	73c6 <__udivdi3+0xe6>
    734c:	07fb      	lsls	r3, r7, #31
    734e:	4698      	mov	r8, r3
    7350:	4640      	mov	r0, r8
    7352:	0872      	lsrs	r2, r6, #1
    7354:	087b      	lsrs	r3, r7, #1
    7356:	4302      	orrs	r2, r0
    7358:	2601      	movs	r6, #1
    735a:	2700      	movs	r7, #0
    735c:	e00c      	b.n	7378 <__udivdi3+0x98>
    735e:	42ab      	cmp	r3, r5
    7360:	d101      	bne.n	7366 <__udivdi3+0x86>
    7362:	42a2      	cmp	r2, r4
    7364:	d80a      	bhi.n	737c <__udivdi3+0x9c>
    7366:	1aa4      	subs	r4, r4, r2
    7368:	419d      	sbcs	r5, r3
    736a:	1924      	adds	r4, r4, r4
    736c:	416d      	adcs	r5, r5
    736e:	3901      	subs	r1, #1
    7370:	19a4      	adds	r4, r4, r6
    7372:	417d      	adcs	r5, r7
    7374:	2900      	cmp	r1, #0
    7376:	d006      	beq.n	7386 <__udivdi3+0xa6>
    7378:	42ab      	cmp	r3, r5
    737a:	d9f0      	bls.n	735e <__udivdi3+0x7e>
    737c:	3901      	subs	r1, #1
    737e:	1924      	adds	r4, r4, r4
    7380:	416d      	adcs	r5, r5
    7382:	2900      	cmp	r1, #0
    7384:	d1f8      	bne.n	7378 <__udivdi3+0x98>
    7386:	2220      	movs	r2, #32
    7388:	9800      	ldr	r0, [sp, #0]
    738a:	9901      	ldr	r1, [sp, #4]
    738c:	4653      	mov	r3, sl
    738e:	4252      	negs	r2, r2
    7390:	1900      	adds	r0, r0, r4
    7392:	4169      	adcs	r1, r5
    7394:	189e      	adds	r6, r3, r2
    7396:	d43a      	bmi.n	740e <__udivdi3+0x12e>
    7398:	1c2f      	adds	r7, r5, #0
    739a:	40f7      	lsrs	r7, r6
    739c:	4653      	mov	r3, sl
    739e:	40dd      	lsrs	r5, r3
    73a0:	2e00      	cmp	r6, #0
    73a2:	db29      	blt.n	73f8 <__udivdi3+0x118>
    73a4:	1c3c      	adds	r4, r7, #0
    73a6:	40b4      	lsls	r4, r6
    73a8:	1c23      	adds	r3, r4, #0
    73aa:	4654      	mov	r4, sl
    73ac:	40a7      	lsls	r7, r4
    73ae:	1c3a      	adds	r2, r7, #0
    73b0:	1a80      	subs	r0, r0, r2
    73b2:	4199      	sbcs	r1, r3
    73b4:	9000      	str	r0, [sp, #0]
    73b6:	9101      	str	r1, [sp, #4]
    73b8:	e005      	b.n	73c6 <__udivdi3+0xe6>
    73ba:	4282      	cmp	r2, r0
    73bc:	d99d      	bls.n	72fa <__udivdi3+0x1a>
    73be:	2300      	movs	r3, #0
    73c0:	2400      	movs	r4, #0
    73c2:	9300      	str	r3, [sp, #0]
    73c4:	9401      	str	r4, [sp, #4]
    73c6:	9800      	ldr	r0, [sp, #0]
    73c8:	9901      	ldr	r1, [sp, #4]
    73ca:	b002      	add	sp, #8
    73cc:	bc1c      	pop	{r2, r3, r4}
    73ce:	4690      	mov	r8, r2
    73d0:	4699      	mov	r9, r3
    73d2:	46a2      	mov	sl, r4
    73d4:	bdf0      	pop	{r4, r5, r6, r7, pc}
    73d6:	42a3      	cmp	r3, r4
    73d8:	d9a7      	bls.n	732a <__udivdi3+0x4a>
    73da:	2200      	movs	r2, #0
    73dc:	2300      	movs	r3, #0
    73de:	9200      	str	r2, [sp, #0]
    73e0:	9301      	str	r3, [sp, #4]
    73e2:	e7b1      	b.n	7348 <__udivdi3+0x68>
    73e4:	2220      	movs	r2, #32
    73e6:	464b      	mov	r3, r9
    73e8:	1a52      	subs	r2, r2, r1
    73ea:	40d3      	lsrs	r3, r2
    73ec:	1c1a      	adds	r2, r3, #0
    73ee:	4643      	mov	r3, r8
    73f0:	408b      	lsls	r3, r1
    73f2:	1c1f      	adds	r7, r3, #0
    73f4:	4317      	orrs	r7, r2
    73f6:	e792      	b.n	731e <__udivdi3+0x3e>
    73f8:	4653      	mov	r3, sl
    73fa:	2420      	movs	r4, #32
    73fc:	4656      	mov	r6, sl
    73fe:	1ae4      	subs	r4, r4, r3
    7400:	1c3b      	adds	r3, r7, #0
    7402:	40b5      	lsls	r5, r6
    7404:	40e3      	lsrs	r3, r4
    7406:	1c1c      	adds	r4, r3, #0
    7408:	1c2b      	adds	r3, r5, #0
    740a:	4323      	orrs	r3, r4
    740c:	e7cd      	b.n	73aa <__udivdi3+0xca>
    740e:	4652      	mov	r2, sl
    7410:	2320      	movs	r3, #32
    7412:	1a9b      	subs	r3, r3, r2
    7414:	1c2a      	adds	r2, r5, #0
    7416:	409a      	lsls	r2, r3
    7418:	1c27      	adds	r7, r4, #0
    741a:	1c13      	adds	r3, r2, #0
    741c:	4652      	mov	r2, sl
    741e:	40d7      	lsrs	r7, r2
    7420:	431f      	orrs	r7, r3
    7422:	e7bb      	b.n	739c <__udivdi3+0xbc>
    7424:	2320      	movs	r3, #32
    7426:	2200      	movs	r2, #0
    7428:	1a58      	subs	r0, r3, r1
    742a:	2300      	movs	r3, #0
    742c:	9200      	str	r2, [sp, #0]
    742e:	9301      	str	r3, [sp, #4]
    7430:	3201      	adds	r2, #1
    7432:	40c2      	lsrs	r2, r0
    7434:	9201      	str	r2, [sp, #4]
    7436:	e784      	b.n	7342 <__udivdi3+0x62>

00007438 <__eqsf2>:
    7438:	0243      	lsls	r3, r0, #9
    743a:	b570      	push	{r4, r5, r6, lr}
    743c:	0042      	lsls	r2, r0, #1
    743e:	004c      	lsls	r4, r1, #1
    7440:	0a5d      	lsrs	r5, r3, #9
    7442:	0fc3      	lsrs	r3, r0, #31
    7444:	0248      	lsls	r0, r1, #9
    7446:	0e12      	lsrs	r2, r2, #24
    7448:	0a46      	lsrs	r6, r0, #9
    744a:	0e24      	lsrs	r4, r4, #24
    744c:	0fc9      	lsrs	r1, r1, #31
    744e:	2aff      	cmp	r2, #255	; 0xff
    7450:	d005      	beq.n	745e <__eqsf2+0x26>
    7452:	2cff      	cmp	r4, #255	; 0xff
    7454:	d008      	beq.n	7468 <__eqsf2+0x30>
    7456:	2001      	movs	r0, #1
    7458:	42a2      	cmp	r2, r4
    745a:	d00b      	beq.n	7474 <__eqsf2+0x3c>
    745c:	bd70      	pop	{r4, r5, r6, pc}
    745e:	2001      	movs	r0, #1
    7460:	2d00      	cmp	r5, #0
    7462:	d1fb      	bne.n	745c <__eqsf2+0x24>
    7464:	2cff      	cmp	r4, #255	; 0xff
    7466:	d1f6      	bne.n	7456 <__eqsf2+0x1e>
    7468:	2001      	movs	r0, #1
    746a:	2e00      	cmp	r6, #0
    746c:	d1f6      	bne.n	745c <__eqsf2+0x24>
    746e:	2001      	movs	r0, #1
    7470:	42a2      	cmp	r2, r4
    7472:	d1f3      	bne.n	745c <__eqsf2+0x24>
    7474:	42b5      	cmp	r5, r6
    7476:	d1f1      	bne.n	745c <__eqsf2+0x24>
    7478:	428b      	cmp	r3, r1
    747a:	d005      	beq.n	7488 <__eqsf2+0x50>
    747c:	2a00      	cmp	r2, #0
    747e:	d1ed      	bne.n	745c <__eqsf2+0x24>
    7480:	1c28      	adds	r0, r5, #0
    7482:	1e43      	subs	r3, r0, #1
    7484:	4198      	sbcs	r0, r3
    7486:	e7e9      	b.n	745c <__eqsf2+0x24>
    7488:	2000      	movs	r0, #0
    748a:	e7e7      	b.n	745c <__eqsf2+0x24>

0000748c <__gesf2>:
    748c:	b5f0      	push	{r4, r5, r6, r7, lr}
    748e:	0243      	lsls	r3, r0, #9
    7490:	024d      	lsls	r5, r1, #9
    7492:	004a      	lsls	r2, r1, #1
    7494:	0044      	lsls	r4, r0, #1
    7496:	0a5e      	lsrs	r6, r3, #9
    7498:	0e24      	lsrs	r4, r4, #24
    749a:	0fc3      	lsrs	r3, r0, #31
    749c:	0a6d      	lsrs	r5, r5, #9
    749e:	0e12      	lsrs	r2, r2, #24
    74a0:	0fc9      	lsrs	r1, r1, #31
    74a2:	2cff      	cmp	r4, #255	; 0xff
    74a4:	d00d      	beq.n	74c2 <__gesf2+0x36>
    74a6:	2aff      	cmp	r2, #255	; 0xff
    74a8:	d031      	beq.n	750e <__gesf2+0x82>
    74aa:	2c00      	cmp	r4, #0
    74ac:	d10d      	bne.n	74ca <__gesf2+0x3e>
    74ae:	4277      	negs	r7, r6
    74b0:	4177      	adcs	r7, r6
    74b2:	2a00      	cmp	r2, #0
    74b4:	d123      	bne.n	74fe <__gesf2+0x72>
    74b6:	2d00      	cmp	r5, #0
    74b8:	d121      	bne.n	74fe <__gesf2+0x72>
    74ba:	2000      	movs	r0, #0
    74bc:	2f00      	cmp	r7, #0
    74be:	d10b      	bne.n	74d8 <__gesf2+0x4c>
    74c0:	e007      	b.n	74d2 <__gesf2+0x46>
    74c2:	2e00      	cmp	r6, #0
    74c4:	d128      	bne.n	7518 <__gesf2+0x8c>
    74c6:	2aff      	cmp	r2, #255	; 0xff
    74c8:	d021      	beq.n	750e <__gesf2+0x82>
    74ca:	2a00      	cmp	r2, #0
    74cc:	d005      	beq.n	74da <__gesf2+0x4e>
    74ce:	428b      	cmp	r3, r1
    74d0:	d007      	beq.n	74e2 <__gesf2+0x56>
    74d2:	4258      	negs	r0, r3
    74d4:	2301      	movs	r3, #1
    74d6:	4318      	orrs	r0, r3
    74d8:	bdf0      	pop	{r4, r5, r6, r7, pc}
    74da:	2d00      	cmp	r5, #0
    74dc:	d0f9      	beq.n	74d2 <__gesf2+0x46>
    74de:	428b      	cmp	r3, r1
    74e0:	d1f7      	bne.n	74d2 <__gesf2+0x46>
    74e2:	4294      	cmp	r4, r2
    74e4:	dcf5      	bgt.n	74d2 <__gesf2+0x46>
    74e6:	db04      	blt.n	74f2 <__gesf2+0x66>
    74e8:	42ae      	cmp	r6, r5
    74ea:	d8f2      	bhi.n	74d2 <__gesf2+0x46>
    74ec:	2000      	movs	r0, #0
    74ee:	42ae      	cmp	r6, r5
    74f0:	d2f2      	bcs.n	74d8 <__gesf2+0x4c>
    74f2:	4258      	negs	r0, r3
    74f4:	4143      	adcs	r3, r0
    74f6:	2001      	movs	r0, #1
    74f8:	425b      	negs	r3, r3
    74fa:	4318      	orrs	r0, r3
    74fc:	e7ec      	b.n	74d8 <__gesf2+0x4c>
    74fe:	2f00      	cmp	r7, #0
    7500:	d0e5      	beq.n	74ce <__gesf2+0x42>
    7502:	4248      	negs	r0, r1
    7504:	4141      	adcs	r1, r0
    7506:	2001      	movs	r0, #1
    7508:	4249      	negs	r1, r1
    750a:	4308      	orrs	r0, r1
    750c:	e7e4      	b.n	74d8 <__gesf2+0x4c>
    750e:	2d00      	cmp	r5, #0
    7510:	d102      	bne.n	7518 <__gesf2+0x8c>
    7512:	2c00      	cmp	r4, #0
    7514:	d0cb      	beq.n	74ae <__gesf2+0x22>
    7516:	e7da      	b.n	74ce <__gesf2+0x42>
    7518:	2002      	movs	r0, #2
    751a:	4240      	negs	r0, r0
    751c:	e7dc      	b.n	74d8 <__gesf2+0x4c>
    751e:	46c0      	nop			; (mov r8, r8)

00007520 <__lesf2>:
    7520:	0243      	lsls	r3, r0, #9
    7522:	b5f0      	push	{r4, r5, r6, r7, lr}
    7524:	0042      	lsls	r2, r0, #1
    7526:	004c      	lsls	r4, r1, #1
    7528:	0a5e      	lsrs	r6, r3, #9
    752a:	0fc3      	lsrs	r3, r0, #31
    752c:	0248      	lsls	r0, r1, #9
    752e:	0e12      	lsrs	r2, r2, #24
    7530:	0a45      	lsrs	r5, r0, #9
    7532:	0e24      	lsrs	r4, r4, #24
    7534:	0fc9      	lsrs	r1, r1, #31
    7536:	2aff      	cmp	r2, #255	; 0xff
    7538:	d00f      	beq.n	755a <__lesf2+0x3a>
    753a:	2cff      	cmp	r4, #255	; 0xff
    753c:	d01a      	beq.n	7574 <__lesf2+0x54>
    753e:	2a00      	cmp	r2, #0
    7540:	d110      	bne.n	7564 <__lesf2+0x44>
    7542:	4277      	negs	r7, r6
    7544:	4177      	adcs	r7, r6
    7546:	2c00      	cmp	r4, #0
    7548:	d029      	beq.n	759e <__lesf2+0x7e>
    754a:	2f00      	cmp	r7, #0
    754c:	d017      	beq.n	757e <__lesf2+0x5e>
    754e:	4248      	negs	r0, r1
    7550:	4141      	adcs	r1, r0
    7552:	2001      	movs	r0, #1
    7554:	4249      	negs	r1, r1
    7556:	4308      	orrs	r0, r1
    7558:	e00b      	b.n	7572 <__lesf2+0x52>
    755a:	2002      	movs	r0, #2
    755c:	2e00      	cmp	r6, #0
    755e:	d108      	bne.n	7572 <__lesf2+0x52>
    7560:	2cff      	cmp	r4, #255	; 0xff
    7562:	d007      	beq.n	7574 <__lesf2+0x54>
    7564:	2c00      	cmp	r4, #0
    7566:	d10a      	bne.n	757e <__lesf2+0x5e>
    7568:	2d00      	cmp	r5, #0
    756a:	d108      	bne.n	757e <__lesf2+0x5e>
    756c:	4258      	negs	r0, r3
    756e:	2301      	movs	r3, #1
    7570:	4318      	orrs	r0, r3
    7572:	bdf0      	pop	{r4, r5, r6, r7, pc}
    7574:	2002      	movs	r0, #2
    7576:	2d00      	cmp	r5, #0
    7578:	d1fb      	bne.n	7572 <__lesf2+0x52>
    757a:	2a00      	cmp	r2, #0
    757c:	d0e1      	beq.n	7542 <__lesf2+0x22>
    757e:	428b      	cmp	r3, r1
    7580:	d1f4      	bne.n	756c <__lesf2+0x4c>
    7582:	42a2      	cmp	r2, r4
    7584:	dcf2      	bgt.n	756c <__lesf2+0x4c>
    7586:	db04      	blt.n	7592 <__lesf2+0x72>
    7588:	42ae      	cmp	r6, r5
    758a:	d8ef      	bhi.n	756c <__lesf2+0x4c>
    758c:	2000      	movs	r0, #0
    758e:	42ae      	cmp	r6, r5
    7590:	d2ef      	bcs.n	7572 <__lesf2+0x52>
    7592:	4258      	negs	r0, r3
    7594:	4143      	adcs	r3, r0
    7596:	2001      	movs	r0, #1
    7598:	425b      	negs	r3, r3
    759a:	4318      	orrs	r0, r3
    759c:	e7e9      	b.n	7572 <__lesf2+0x52>
    759e:	2d00      	cmp	r5, #0
    75a0:	d1d3      	bne.n	754a <__lesf2+0x2a>
    75a2:	2000      	movs	r0, #0
    75a4:	2f00      	cmp	r7, #0
    75a6:	d1e4      	bne.n	7572 <__lesf2+0x52>
    75a8:	e7e0      	b.n	756c <__lesf2+0x4c>
    75aa:	46c0      	nop			; (mov r8, r8)

000075ac <__clzdi2>:
    75ac:	b510      	push	{r4, lr}
    75ae:	2900      	cmp	r1, #0
    75b0:	d103      	bne.n	75ba <__clzdi2+0xe>
    75b2:	f7ff fd7f 	bl	70b4 <__clzsi2>
    75b6:	3020      	adds	r0, #32
    75b8:	e002      	b.n	75c0 <__clzdi2+0x14>
    75ba:	1c08      	adds	r0, r1, #0
    75bc:	f7ff fd7a 	bl	70b4 <__clzsi2>
    75c0:	bd10      	pop	{r4, pc}
    75c2:	46c0      	nop			; (mov r8, r8)
    75c4:	00776f70 	.word	0x00776f70

000075c8 <dp_h>:
	...
    75d0:	40000000 3fe2b803                       ...@...?

000075d8 <dp_l>:
	...
    75e0:	43cfd006 3e4cfdeb                       ...C..L>

000075e8 <bp>:
    75e8:	00000000 3ff00000 00000000 3ff80000     .......?.......?
	...

00007600 <TWO52>:
    7600:	00000000 43300000 00000000 c3300000     ......0C......0.
    7610:	666e0043 696e6900 61007974 0000006e     C.nf.inity.an...

00007620 <fpinan.5315>:
    7620:	00000034 fffffbce 000003cb 00000001     4...............
	...

00007638 <tinytens>:
    7638:	97d889bc 3c9cd2b2 d5a8a733 3949f623     .......<3...#.I9
    7648:	44f4a73d 32a50ffd cf8c979d 255bba08     =..D...2......[%
    7658:	64ac6f43 11680628                       Co.d(.h.

00007660 <fpi.5279>:
    7660:	00000035 fffffbce 000003cb 00000001     5...............
    7670:	00000000                                ....

00007674 <_ctype_>:
    7674:	20202000 20202020 28282020 20282828     .         ((((( 
    7684:	20202020 20202020 20202020 20202020                     
    7694:	10108820 10101010 10101010 10101010      ...............
    76a4:	04040410 04040404 10040404 10101010     ................
    76b4:	41411010 41414141 01010101 01010101     ..AAAAAA........
    76c4:	01010101 01010101 01010101 10101010     ................
    76d4:	42421010 42424242 02020202 02020202     ..BBBBBB........
    76e4:	02020202 02020202 02020202 10101010     ................
    76f4:	00000020 00000000 00000000 00000000      ...............
	...

00007778 <__sf_fake_stdin>:
	...

00007798 <__sf_fake_stdout>:
	...

000077b8 <__sf_fake_stderr>:
	...
    77d8:	49534f50 002e0058                       POSIX...

000077e0 <__mprec_tens>:
    77e0:	00000000 3ff00000 00000000 40240000     .......?......$@
    77f0:	00000000 40590000 00000000 408f4000     ......Y@.....@.@
    7800:	00000000 40c38800 00000000 40f86a00     .......@.....j.@
    7810:	00000000 412e8480 00000000 416312d0     .......A......cA
    7820:	00000000 4197d784 00000000 41cdcd65     .......A....e..A
    7830:	20000000 4202a05f e8000000 42374876     ... _..B....vH7B
    7840:	a2000000 426d1a94 e5400000 42a2309c     ......mB..@..0.B
    7850:	1e900000 42d6bcc4 26340000 430c6bf5     .......B..4&.k.C
    7860:	37e08000 4341c379 85d8a000 43763457     ...7y.AC....W4vC
    7870:	674ec800 43abc16d 60913d00 43e158e4     ..Ngm..C.=.`.X.C
    7880:	78b58c40 4415af1d d6e2ef50 444b1ae4     @..x...DP.....KD
    7890:	064dd592 4480f0cf c7e14af6 44b52d02     ..M....D.J...-.D
    78a0:	79d99db4 44ea7843                       ...yCx.D

000078a8 <__mprec_bigtens>:
    78a8:	37e08000 4341c379 b5056e17 4693b8b5     ...7y.AC.n.....F
    78b8:	e93ff9f5 4d384f03 f9301d32 5a827748     ..?..O8M2.0.Hw.Z
    78c8:	7f73bf3c 75154fdd                       <.s..O.u

000078d0 <p05.5314>:
    78d0:	00000005 00000019 0000007d 00004b0a     ........}....K..
    78e0:	00004ad2 00004aee 00004ac6 00004aee     .J...J...J...J..
    78f0:	00004a32 00004aee 00004ac6 00004ad2     2J...J...J...J..
    7900:	00004ad2 00004a32 00004ac6 00004b70     .J..2J...J..pK..
    7910:	00004b70 00004b70 00004af4 00004ad2     pK..pK...J...J..
    7920:	00004ad2 00004bba 00004ac4 00004bba     .J...K...J...K..
    7930:	00004a32 00004bba 00004ac4 00004ad2     2J...K...J...J..
    7940:	00004ad2 00004a32 00004ac4 00004b70     .J..2J...J..pK..
    7950:	00004b70 00004b70 00004b9e 00004d5e     pK..pK...K..^M..
    7960:	00004d56 00004d56 00004d4e 00004ca0     VM..VM..NM...L..
    7970:	00004ca0 00004d44 00004d4e 00004ca0     .L..DM..NM...L..
    7980:	00004d44 00004ca0 00004d4e 00004ca2     DM...L..NM...L..
    7990:	00004ca2 00004ca2 00004de8 00005b08     .L...L...M...[..
    79a0:	000059f6 00005adc 000059e2 00005adc     .Y...Z...Y...Z..
    79b0:	00005ae6 00005adc 000059e2 000059f6     .Z...Z...Y...Y..
    79c0:	000059f6 00005ae6 000059e2 000059ec     .Y...Z...Y...Y..
    79d0:	000059ec 000059ec 00005d4e 0000639c     .Y...Y..N]...c..
    79e0:	0000637a 0000637a 0000636e 00006262     zc..zc..nc..bb..
    79f0:	00006262 00006362 0000636e 00006262     bb..bc..nc..bb..
    7a00:	00006362 00006262 0000636e 00006266     bc..bb..nc..fb..
    7a10:	00006266 00006266 0000657c              fb..fb..|e..

00007a1c <_init>:
    7a1c:	b5f8      	push	{r3, r4, r5, r6, r7, lr}
    7a1e:	46c0      	nop			; (mov r8, r8)
    7a20:	bcf8      	pop	{r3, r4, r5, r6, r7}
    7a22:	bc08      	pop	{r3}
    7a24:	469e      	mov	lr, r3
    7a26:	4770      	bx	lr

00007a28 <__init_array_start>:
    7a28:	000000dd 	.word	0x000000dd

00007a2c <_fini>:
    7a2c:	b5f8      	push	{r3, r4, r5, r6, r7, lr}
    7a2e:	46c0      	nop			; (mov r8, r8)
    7a30:	bcf8      	pop	{r3, r4, r5, r6, r7}
    7a32:	bc08      	pop	{r3}
    7a34:	469e      	mov	lr, r3
    7a36:	4770      	bx	lr

00007a38 <__fini_array_start>:
    7a38:	000000b5 	.word	0x000000b5
