
SaLAltimeter-1.0.elf:     file format elf32-littlearm

Sections:
Idx Name          Size      VMA       LMA       File off  Algn
  0 .text         00002044  00000000  00000000  00008000  2**2
                  CONTENTS, ALLOC, LOAD, READONLY, CODE
  1 .ARM.exidx    00000008  00002044  00002044  0000a044  2**2
                  CONTENTS, ALLOC, LOAD, READONLY, DATA
  2 .relocate     0000000c  20000000  0000204c  00010000  2**2
                  CONTENTS, ALLOC, LOAD, DATA
  3 .bss          0000012c  2000000c  00002058  0001000c  2**2
                  ALLOC
  4 .stack        00002000  20000138  00002184  0001000c  2**0
                  ALLOC
  5 .ARM.attributes 00000028  00000000  00000000  0001000c  2**0
                  CONTENTS, READONLY
  6 .comment      0000005b  00000000  00000000  00010034  2**0
                  CONTENTS, READONLY
  7 .debug_info   00014680  00000000  00000000  0001008f  2**0
                  CONTENTS, READONLY, DEBUGGING
  8 .debug_abbrev 00001fe6  00000000  00000000  0002470f  2**0
                  CONTENTS, READONLY, DEBUGGING
  9 .debug_loc    00001aa9  00000000  00000000  000266f5  2**0
                  CONTENTS, READONLY, DEBUGGING
 10 .debug_aranges 00000328  00000000  00000000  0002819e  2**0
                  CONTENTS, READONLY, DEBUGGING
 11 .debug_ranges 00000358  00000000  00000000  000284c6  2**0
                  CONTENTS, READONLY, DEBUGGING
 12 .debug_macro  00015702  00000000  00000000  0002881e  2**0
                  CONTENTS, READONLY, DEBUGGING
 13 .debug_line   00007d89  00000000  00000000  0003df20  2**0
                  CONTENTS, READONLY, DEBUGGING
 14 .debug_str    0006fdf7  00000000  00000000  00045ca9  2**0
                  CONTENTS, READONLY, DEBUGGING
 15 .debug_frame  00000930  00000000  00000000  000b5aa0  2**2
                  CONTENTS, READONLY, DEBUGGING

Disassembly of section .text:

00000000 <_sfixed>:
       0:	20002138 	.word	0x20002138
       4:	00000d51 	.word	0x00000d51
       8:	00000d49 	.word	0x00000d49
       c:	00000d49 	.word	0x00000d49
	...
      2c:	00000d49 	.word	0x00000d49
	...
      38:	00000d49 	.word	0x00000d49
      3c:	00000d49 	.word	0x00000d49
      40:	00000d49 	.word	0x00000d49
      44:	00000d49 	.word	0x00000d49
      48:	00000d49 	.word	0x00000d49
      4c:	00000951 	.word	0x00000951
      50:	00000d49 	.word	0x00000d49
      54:	00000d49 	.word	0x00000d49
      58:	00000d49 	.word	0x00000d49
      5c:	00000d49 	.word	0x00000d49
      60:	00000d49 	.word	0x00000d49
      64:	00000d49 	.word	0x00000d49
      68:	00000d49 	.word	0x00000d49
      6c:	00000d49 	.word	0x00000d49
      70:	00000d49 	.word	0x00000d49
      74:	00000d49 	.word	0x00000d49
      78:	00000d49 	.word	0x00000d49
      7c:	00000d49 	.word	0x00000d49
      80:	00000d49 	.word	0x00000d49
      84:	00000d49 	.word	0x00000d49
      88:	00000d49 	.word	0x00000d49
      8c:	00000e99 	.word	0x00000e99
      90:	00000d49 	.word	0x00000d49
	...
      9c:	00000d49 	.word	0x00000d49
      a0:	00000d49 	.word	0x00000d49
      a4:	00000d49 	.word	0x00000d49
      a8:	00000d49 	.word	0x00000d49
      ac:	00000d49 	.word	0x00000d49
      b0:	00000000 	.word	0x00000000

000000b4 <__do_global_dtors_aux>:
      b4:	b510      	push	{r4, lr}
      b6:	4c06      	ldr	r4, [pc, #24]	; (d0 <__do_global_dtors_aux+0x1c>)
      b8:	7823      	ldrb	r3, [r4, #0]
      ba:	2b00      	cmp	r3, #0
      bc:	d107      	bne.n	ce <__do_global_dtors_aux+0x1a>
      be:	4b05      	ldr	r3, [pc, #20]	; (d4 <__do_global_dtors_aux+0x20>)
      c0:	2b00      	cmp	r3, #0
      c2:	d002      	beq.n	ca <__do_global_dtors_aux+0x16>
      c4:	4804      	ldr	r0, [pc, #16]	; (d8 <__do_global_dtors_aux+0x24>)
      c6:	e000      	b.n	ca <__do_global_dtors_aux+0x16>
      c8:	bf00      	nop
      ca:	2301      	movs	r3, #1
      cc:	7023      	strb	r3, [r4, #0]
      ce:	bd10      	pop	{r4, pc}
      d0:	2000000c 	.word	0x2000000c
      d4:	00000000 	.word	0x00000000
      d8:	0000204c 	.word	0x0000204c

000000dc <frame_dummy>:
      dc:	b508      	push	{r3, lr}
      de:	4b08      	ldr	r3, [pc, #32]	; (100 <frame_dummy+0x24>)
      e0:	2b00      	cmp	r3, #0
      e2:	d003      	beq.n	ec <frame_dummy+0x10>
      e4:	4807      	ldr	r0, [pc, #28]	; (104 <frame_dummy+0x28>)
      e6:	4908      	ldr	r1, [pc, #32]	; (108 <frame_dummy+0x2c>)
      e8:	e000      	b.n	ec <frame_dummy+0x10>
      ea:	bf00      	nop
      ec:	4807      	ldr	r0, [pc, #28]	; (10c <frame_dummy+0x30>)
      ee:	6803      	ldr	r3, [r0, #0]
      f0:	2b00      	cmp	r3, #0
      f2:	d100      	bne.n	f6 <frame_dummy+0x1a>
      f4:	bd08      	pop	{r3, pc}
      f6:	4b06      	ldr	r3, [pc, #24]	; (110 <frame_dummy+0x34>)
      f8:	2b00      	cmp	r3, #0
      fa:	d0fb      	beq.n	f4 <frame_dummy+0x18>
      fc:	4798      	blx	r3
      fe:	e7f9      	b.n	f4 <frame_dummy+0x18>
     100:	00000000 	.word	0x00000000
     104:	0000204c 	.word	0x0000204c
     108:	20000010 	.word	0x20000010
     10c:	0000204c 	.word	0x0000204c
     110:	00000000 	.word	0x00000000

00000114 <getADXL345Event>:
    byteOut(ADXL345_SCK_PIN,ADXL345_MOSI_PIN,ADXL345_REG_DATA_FORMAT);
    byteOut(ADXL345_SCK_PIN,ADXL345_MOSI_PIN,_cmd);
    SaLDigitalOut(ADXL345_SLAVE_SELECT_PIN,true);
}

void getADXL345Event(uint8_t *values) {
     114:	b570      	push	{r4, r5, r6, lr}
     116:	1c05      	adds	r5, r0, #0


    if (level) {
        port->OUTSET.reg = pin_mask;
    } else {
        port->OUTCLR.reg = pin_mask;
     118:	2280      	movs	r2, #128	; 0x80
     11a:	0252      	lsls	r2, r2, #9
     11c:	4b0a      	ldr	r3, [pc, #40]	; (148 <getADXL345Event+0x34>)
     11e:	615a      	str	r2, [r3, #20]

    SaLDigitalOut(ADXL345_SLAVE_SELECT_PIN,false);
    byteOut(ADXL345_SCK_PIN,ADXL345_MOSI_PIN,ADXL345_REG_DATAX0 | 0x80 | 0x40);
     120:	200f      	movs	r0, #15
     122:	210d      	movs	r1, #13
     124:	22f2      	movs	r2, #242	; 0xf2
     126:	4b09      	ldr	r3, [pc, #36]	; (14c <getADXL345Event+0x38>)
     128:	4798      	blx	r3
     12a:	1c2c      	adds	r4, r5, #0
     12c:	3506      	adds	r5, #6
    for (uint8_t i = 0; i < 6; i++) {
        *(values+i) = getByte(ADXL345_SCK_PIN,ADXL345_MISO_PIN);
     12e:	4e08      	ldr	r6, [pc, #32]	; (150 <getADXL345Event+0x3c>)
     130:	200f      	movs	r0, #15
     132:	210e      	movs	r1, #14
     134:	47b0      	blx	r6
     136:	7020      	strb	r0, [r4, #0]
     138:	3401      	adds	r4, #1

void getADXL345Event(uint8_t *values) {

    SaLDigitalOut(ADXL345_SLAVE_SELECT_PIN,false);
    byteOut(ADXL345_SCK_PIN,ADXL345_MOSI_PIN,ADXL345_REG_DATAX0 | 0x80 | 0x40);
    for (uint8_t i = 0; i < 6; i++) {
     13a:	42ac      	cmp	r4, r5
     13c:	d1f8      	bne.n	130 <getADXL345Event+0x1c>
    PortGroup *const port = SaLGetPort(pin);
    uint32_t pin_mask = (1UL << (pin % 32));


    if (level) {
        port->OUTSET.reg = pin_mask;
     13e:	2280      	movs	r2, #128	; 0x80
     140:	0252      	lsls	r2, r2, #9
     142:	4b01      	ldr	r3, [pc, #4]	; (148 <getADXL345Event+0x34>)
     144:	619a      	str	r2, [r3, #24]
        *(values+i) = getByte(ADXL345_SCK_PIN,ADXL345_MISO_PIN);
    }
    SaLDigitalOut(ADXL345_SLAVE_SELECT_PIN,true);
}
     146:	bd70      	pop	{r4, r5, r6, pc}
     148:	41004400 	.word	0x41004400
     14c:	000006e1 	.word	0x000006e1
     150:	00000741 	.word	0x00000741

00000154 <readMS5607AdcResults>:

    return _receive;

}

uint32_t readMS5607AdcResults(){
     154:	b5f0      	push	{r4, r5, r6, r7, lr}
     156:	4647      	mov	r7, r8
     158:	b480      	push	{r7}
    } else {
        port->OUTCLR.reg = pin_mask;
     15a:	4f0f      	ldr	r7, [pc, #60]	; (198 <readMS5607AdcResults+0x44>)
     15c:	2480      	movs	r4, #128	; 0x80
     15e:	00a4      	lsls	r4, r4, #2
     160:	617c      	str	r4, [r7, #20]
	
	 SaLDigitalOut(MS5607_SLAVE_SELECT_PIN,false);
	 byteOut(MS5607_SCK_PIN,MS5607_MOSI_PIN,cmdAdcRead_);
     162:	200f      	movs	r0, #15
     164:	210d      	movs	r1, #13
     166:	2200      	movs	r2, #0
     168:	4b0c      	ldr	r3, [pc, #48]	; (19c <readMS5607AdcResults+0x48>)
     16a:	4798      	blx	r3
	  uint8_t _byte1 = getByte(MS5607_SCK_PIN,MS5607_MISO_PIN);
     16c:	200f      	movs	r0, #15
     16e:	210e      	movs	r1, #14
     170:	4e0b      	ldr	r6, [pc, #44]	; (1a0 <readMS5607AdcResults+0x4c>)
     172:	47b0      	blx	r6
     174:	1c05      	adds	r5, r0, #0
	  uint8_t _byte2 = getByte(MS5607_SCK_PIN,MS5607_MISO_PIN);
     176:	200f      	movs	r0, #15
     178:	210e      	movs	r1, #14
     17a:	47b0      	blx	r6
     17c:	4680      	mov	r8, r0
	  uint8_t _byte3 = getByte(MS5607_SCK_PIN,MS5607_MISO_PIN);
     17e:	200f      	movs	r0, #15
     180:	210e      	movs	r1, #14
     182:	47b0      	blx	r6
    PortGroup *const port = SaLGetPort(pin);
    uint32_t pin_mask = (1UL << (pin % 32));


    if (level) {
        port->OUTSET.reg = pin_mask;
     184:	61bc      	str	r4, [r7, #24]
	 SaLDigitalOut(MS5607_SLAVE_SELECT_PIN,true);
	 
	 uint32_t _receive = (_byte1 << 16) | (_byte2 << 8) | (_byte3);
     186:	042d      	lsls	r5, r5, #16
     188:	4643      	mov	r3, r8
     18a:	021c      	lsls	r4, r3, #8
     18c:	432c      	orrs	r4, r5
     18e:	4320      	orrs	r0, r4
	 return _receive;
}
     190:	bc04      	pop	{r2}
     192:	4690      	mov	r8, r2
     194:	bdf0      	pop	{r4, r5, r6, r7, pc}
     196:	46c0      	nop			; (mov r8, r8)
     198:	41004400 	.word	0x41004400
     19c:	000006e1 	.word	0x000006e1
     1a0:	00000741 	.word	0x00000741

000001a4 <getMS5607Coeff>:

void getMS5607Coeff(uint16_t *coefficients) {
     1a4:	b5f8      	push	{r3, r4, r5, r6, r7, lr}
     1a6:	465f      	mov	r7, fp
     1a8:	4656      	mov	r6, sl
     1aa:	464d      	mov	r5, r9
     1ac:	4644      	mov	r4, r8
     1ae:	b4f0      	push	{r4, r5, r6, r7}
     1b0:	4681      	mov	r9, r0
     1b2:	2400      	movs	r4, #0

    for (uint8_t coeff_num = 0; coeff_num < 6 ; ++coeff_num ) {
        delay_us(600);
     1b4:	4f15      	ldr	r7, [pc, #84]	; (20c <getMS5607Coeff+0x68>)
        uint8_t _cmd = MS5607_CMD_PROM_READ + ((coeff_num+1)*2);
        delay_us(600);
        SaLDigitalOut(MS5607_SLAVE_SELECT_PIN,false);
        byteOut(MS5607_SCK_PIN,MS5607_MOSI_PIN,_cmd);
     1b6:	4b16      	ldr	r3, [pc, #88]	; (210 <getMS5607Coeff+0x6c>)
     1b8:	4698      	mov	r8, r3
        uint8_t _byte1 = getByte(MS5607_SCK_PIN,MS5607_MISO_PIN);
     1ba:	4e16      	ldr	r6, [pc, #88]	; (214 <getMS5607Coeff+0x70>)
}

void getMS5607Coeff(uint16_t *coefficients) {

    for (uint8_t coeff_num = 0; coeff_num < 6 ; ++coeff_num ) {
        delay_us(600);
     1bc:	2596      	movs	r5, #150	; 0x96
     1be:	00ad      	lsls	r5, r5, #2
     1c0:	1c28      	adds	r0, r5, #0
     1c2:	47b8      	blx	r7
        uint8_t _cmd = MS5607_CMD_PROM_READ + ((coeff_num+1)*2);
        delay_us(600);
     1c4:	1c28      	adds	r0, r5, #0
     1c6:	47b8      	blx	r7
    } else {
        port->OUTCLR.reg = pin_mask;
     1c8:	4d13      	ldr	r5, [pc, #76]	; (218 <getMS5607Coeff+0x74>)
     1ca:	2380      	movs	r3, #128	; 0x80
     1cc:	009b      	lsls	r3, r3, #2
     1ce:	469b      	mov	fp, r3
     1d0:	616b      	str	r3, [r5, #20]
     1d2:	1c22      	adds	r2, r4, #0
     1d4:	3a5e      	subs	r2, #94	; 0x5e
        SaLDigitalOut(MS5607_SLAVE_SELECT_PIN,false);
        byteOut(MS5607_SCK_PIN,MS5607_MOSI_PIN,_cmd);
     1d6:	b2d2      	uxtb	r2, r2
     1d8:	200f      	movs	r0, #15
     1da:	210d      	movs	r1, #13
     1dc:	47c0      	blx	r8
        uint8_t _byte1 = getByte(MS5607_SCK_PIN,MS5607_MISO_PIN);
     1de:	200f      	movs	r0, #15
     1e0:	210e      	movs	r1, #14
     1e2:	47b0      	blx	r6
     1e4:	4682      	mov	sl, r0
        uint8_t _byte2 = getByte(MS5607_SCK_PIN,MS5607_MISO_PIN);
     1e6:	200f      	movs	r0, #15
     1e8:	210e      	movs	r1, #14
     1ea:	47b0      	blx	r6
    PortGroup *const port = SaLGetPort(pin);
    uint32_t pin_mask = (1UL << (pin % 32));


    if (level) {
        port->OUTSET.reg = pin_mask;
     1ec:	465b      	mov	r3, fp
     1ee:	61ab      	str	r3, [r5, #24]
        SaLDigitalOut(MS5607_SLAVE_SELECT_PIN,true);
        *(coefficients+coeff_num) = (_byte1 << 8) | _byte2;
     1f0:	4653      	mov	r3, sl
     1f2:	021d      	lsls	r5, r3, #8
     1f4:	4328      	orrs	r0, r5
     1f6:	464b      	mov	r3, r9
     1f8:	5318      	strh	r0, [r3, r4]
     1fa:	3402      	adds	r4, #2
	 return _receive;
}

void getMS5607Coeff(uint16_t *coefficients) {

    for (uint8_t coeff_num = 0; coeff_num < 6 ; ++coeff_num ) {
     1fc:	2c0c      	cmp	r4, #12
     1fe:	d1dd      	bne.n	1bc <getMS5607Coeff+0x18>
        uint8_t _byte1 = getByte(MS5607_SCK_PIN,MS5607_MISO_PIN);
        uint8_t _byte2 = getByte(MS5607_SCK_PIN,MS5607_MISO_PIN);
        SaLDigitalOut(MS5607_SLAVE_SELECT_PIN,true);
        *(coefficients+coeff_num) = (_byte1 << 8) | _byte2;
    }
}
     200:	bc3c      	pop	{r2, r3, r4, r5}
     202:	4690      	mov	r8, r2
     204:	4699      	mov	r9, r3
     206:	46a2      	mov	sl, r4
     208:	46ab      	mov	fp, r5
     20a:	bdf8      	pop	{r3, r4, r5, r6, r7, pc}
     20c:	000009c9 	.word	0x000009c9
     210:	000006e1 	.word	0x000006e1
     214:	00000741 	.word	0x00000741
     218:	41004400 	.word	0x41004400

0000021c <ConvertPressureTemperature>:
uint32_t ConvertPressureTemperature(uint32_t *pressure, uint32_t *temperature, uint16_t *coefficients) {
     21c:	b5f0      	push	{r4, r5, r6, r7, lr}
     21e:	4647      	mov	r7, r8
     220:	b480      	push	{r7}
     222:	b082      	sub	sp, #8
     224:	4690      	mov	r8, r2
    const uint64_t C4 = (uint64_t)(*(coefficients + 3));
    const uint64_t C5 = (uint64_t)(*(coefficients + 4));
    const uint64_t C6 = (uint64_t)(*(coefficients + 5));

    // calculate 1st order pressure and temperature (MS5607 1st order algorithm)
    const  int32_t dT    = *temperature - (C5 * 256);
     226:	8917      	ldrh	r7, [r2, #8]
     228:	023f      	lsls	r7, r7, #8
     22a:	680b      	ldr	r3, [r1, #0]
     22c:	1bdf      	subs	r7, r3, r7
    const  int32_t temp  = 2000 + (dT * C6) / (8388608) ;

    const  int64_t OFF   = (C2 * (131072)) + ((C4 * dT) / (64));
     22e:	17fb      	asrs	r3, r7, #31
    const  int64_t SENS  = (C1 * (65536)) + ((C3 * dT) / (128));
    const  int32_t press = ((*pressure * SENS / (2097152) - OFF) / (32768));
     230:	6804      	ldr	r4, [r0, #0]
    }
}
uint32_t ConvertPressureTemperature(uint32_t *pressure, uint32_t *temperature, uint16_t *coefficients) {
    const uint64_t C1 = (uint64_t)(*coefficients);
    const uint64_t C2 = (uint64_t)(*(coefficients + 1));
    const uint64_t C3 = (uint64_t)(*(coefficients + 2));
     232:	8892      	ldrh	r2, [r2, #4]
    // calculate 1st order pressure and temperature (MS5607 1st order algorithm)
    const  int32_t dT    = *temperature - (C5 * 256);
    const  int32_t temp  = 2000 + (dT * C6) / (8388608) ;

    const  int64_t OFF   = (C2 * (131072)) + ((C4 * dT) / (64));
    const  int64_t SENS  = (C1 * (65536)) + ((C3 * dT) / (128));
     234:	4e1c      	ldr	r6, [pc, #112]	; (2a8 <ConvertPressureTemperature+0x8c>)
     236:	1c38      	adds	r0, r7, #0
     238:	9301      	str	r3, [sp, #4]
     23a:	1c19      	adds	r1, r3, #0
     23c:	2300      	movs	r3, #0
     23e:	47b0      	blx	r6
     240:	064d      	lsls	r5, r1, #25
     242:	09c2      	lsrs	r2, r0, #7
     244:	432a      	orrs	r2, r5
     246:	09cb      	lsrs	r3, r1, #7
        SaLDigitalOut(MS5607_SLAVE_SELECT_PIN,true);
        *(coefficients+coeff_num) = (_byte1 << 8) | _byte2;
    }
}
uint32_t ConvertPressureTemperature(uint32_t *pressure, uint32_t *temperature, uint16_t *coefficients) {
    const uint64_t C1 = (uint64_t)(*coefficients);
     248:	4640      	mov	r0, r8
     24a:	8805      	ldrh	r5, [r0, #0]
    // calculate 1st order pressure and temperature (MS5607 1st order algorithm)
    const  int32_t dT    = *temperature - (C5 * 256);
    const  int32_t temp  = 2000 + (dT * C6) / (8388608) ;

    const  int64_t OFF   = (C2 * (131072)) + ((C4 * dT) / (64));
    const  int64_t SENS  = (C1 * (65536)) + ((C3 * dT) / (128));
     24c:	2100      	movs	r1, #0
     24e:	0428      	lsls	r0, r5, #16
     250:	1812      	adds	r2, r2, r0
     252:	414b      	adcs	r3, r1
    const  int32_t press = ((*pressure * SENS / (2097152) - OFF) / (32768));
     254:	1c20      	adds	r0, r4, #0
     256:	2100      	movs	r1, #0
     258:	47b0      	blx	r6
     25a:	17cc      	asrs	r4, r1, #31
     25c:	0ae2      	lsrs	r2, r4, #11
     25e:	2300      	movs	r3, #0
     260:	1880      	adds	r0, r0, r2
     262:	4159      	adcs	r1, r3
     264:	02cb      	lsls	r3, r1, #11
     266:	0d44      	lsrs	r4, r0, #21
     268:	431c      	orrs	r4, r3
     26a:	154d      	asrs	r5, r1, #21
}
uint32_t ConvertPressureTemperature(uint32_t *pressure, uint32_t *temperature, uint16_t *coefficients) {
    const uint64_t C1 = (uint64_t)(*coefficients);
    const uint64_t C2 = (uint64_t)(*(coefficients + 1));
    const uint64_t C3 = (uint64_t)(*(coefficients + 2));
    const uint64_t C4 = (uint64_t)(*(coefficients + 3));
     26c:	4642      	mov	r2, r8
     26e:	88d2      	ldrh	r2, [r2, #6]

    // calculate 1st order pressure and temperature (MS5607 1st order algorithm)
    const  int32_t dT    = *temperature - (C5 * 256);
    const  int32_t temp  = 2000 + (dT * C6) / (8388608) ;

    const  int64_t OFF   = (C2 * (131072)) + ((C4 * dT) / (64));
     270:	1c38      	adds	r0, r7, #0
     272:	9901      	ldr	r1, [sp, #4]
     274:	2300      	movs	r3, #0
     276:	47b0      	blx	r6
     278:	068b      	lsls	r3, r1, #26
     27a:	0986      	lsrs	r6, r0, #6
     27c:	431e      	orrs	r6, r3
     27e:	098f      	lsrs	r7, r1, #6
        *(coefficients+coeff_num) = (_byte1 << 8) | _byte2;
    }
}
uint32_t ConvertPressureTemperature(uint32_t *pressure, uint32_t *temperature, uint16_t *coefficients) {
    const uint64_t C1 = (uint64_t)(*coefficients);
    const uint64_t C2 = (uint64_t)(*(coefficients + 1));
     280:	4643      	mov	r3, r8
     282:	8859      	ldrh	r1, [r3, #2]

    // calculate 1st order pressure and temperature (MS5607 1st order algorithm)
    const  int32_t dT    = *temperature - (C5 * 256);
    const  int32_t temp  = 2000 + (dT * C6) / (8388608) ;

    const  int64_t OFF   = (C2 * (131072)) + ((C4 * dT) / (64));
     284:	0bcb      	lsrs	r3, r1, #15
     286:	044a      	lsls	r2, r1, #17
     288:	1992      	adds	r2, r2, r6
     28a:	417b      	adcs	r3, r7
    const  int64_t SENS  = (C1 * (65536)) + ((C3 * dT) / (128));
    const  int32_t press = ((*pressure * SENS / (2097152) - OFF) / (32768));
     28c:	1aa4      	subs	r4, r4, r2
     28e:	419d      	sbcs	r5, r3
     290:	17eb      	asrs	r3, r5, #31
     292:	0c58      	lsrs	r0, r3, #17
     294:	2100      	movs	r1, #0
     296:	1824      	adds	r4, r4, r0
     298:	414d      	adcs	r5, r1
     29a:	046b      	lsls	r3, r5, #17
     29c:	0be0      	lsrs	r0, r4, #15
     29e:	4318      	orrs	r0, r3
    return press;
}
     2a0:	b002      	add	sp, #8
     2a2:	bc04      	pop	{r2}
     2a4:	4690      	mov	r8, r2
     2a6:	bdf0      	pop	{r4, r5, r6, r7, pc}
     2a8:	000010ad 	.word	0x000010ad

000002ac <pascalToCent>:

    double altFeet = (1-pow((pressMillibar/1013.25),(0.190284)))*145366.45;
    return (float)altFeet;
}

uint32_t pascalToCent(const int32_t pressurePa) {
     2ac:	b530      	push	{r4, r5, lr}
        748275, 767202, 786555, 806356, 826627,
        847395, 868688, 890537, 912974, 936037,
        959766, 984206
    };

    if (pressurePa > PA_INIT)
     2ae:	4b0d      	ldr	r3, [pc, #52]	; (2e4 <pascalToCent+0x38>)
     2b0:	4298      	cmp	r0, r3
     2b2:	dc12      	bgt.n	2da <pascalToCent+0x2e>
        return lookupTable[0];
    else {
        const int32_t inx = (PA_INIT - pressurePa) >> 10;
     2b4:	1a1b      	subs	r3, r3, r0
     2b6:	129b      	asrs	r3, r3, #10
        if (inx >= PZLUT_ENTRIES - 1)
     2b8:	2b4b      	cmp	r3, #75	; 0x4b
     2ba:	dc10      	bgt.n	2de <pascalToCent+0x32>
            return lookupTable[PZLUT_ENTRIES - 1];
        else {
            const int32_t pa1 = PA_INIT - (inx << 10);
            const int32_t z1 = lookupTable[inx];
     2bc:	4c0a      	ldr	r4, [pc, #40]	; (2e8 <pascalToCent+0x3c>)
     2be:	009a      	lsls	r2, r3, #2
     2c0:	5912      	ldr	r2, [r2, r4]
    else {
        const int32_t inx = (PA_INIT - pressurePa) >> 10;
        if (inx >= PZLUT_ENTRIES - 1)
            return lookupTable[PZLUT_ENTRIES - 1];
        else {
            const int32_t pa1 = PA_INIT - (inx << 10);
     2c2:	029d      	lsls	r5, r3, #10
     2c4:	4907      	ldr	r1, [pc, #28]	; (2e4 <pascalToCent+0x38>)
     2c6:	1b49      	subs	r1, r1, r5
            const int32_t z1 = lookupTable[inx];
            const int32_t z2 = lookupTable[inx + 1];
            return (z1 + (((pa1 - pressurePa) * (z2 - z1)) >> 10));
     2c8:	1a08      	subs	r0, r1, r0
        if (inx >= PZLUT_ENTRIES - 1)
            return lookupTable[PZLUT_ENTRIES - 1];
        else {
            const int32_t pa1 = PA_INIT - (inx << 10);
            const int32_t z1 = lookupTable[inx];
            const int32_t z2 = lookupTable[inx + 1];
     2ca:	3301      	adds	r3, #1
     2cc:	009b      	lsls	r3, r3, #2
            return (z1 + (((pa1 - pressurePa) * (z2 - z1)) >> 10));
     2ce:	591b      	ldr	r3, [r3, r4]
     2d0:	1a9b      	subs	r3, r3, r2
     2d2:	4358      	muls	r0, r3
     2d4:	1280      	asrs	r0, r0, #10
     2d6:	1880      	adds	r0, r0, r2
     2d8:	e002      	b.n	2e0 <pascalToCent+0x34>
        847395, 868688, 890537, 912974, 936037,
        959766, 984206
    };

    if (pressurePa > PA_INIT)
        return lookupTable[0];
     2da:	4804      	ldr	r0, [pc, #16]	; (2ec <pascalToCent+0x40>)
     2dc:	e000      	b.n	2e0 <pascalToCent+0x34>
    else {
        const int32_t inx = (PA_INIT - pressurePa) >> 10;
        if (inx >= PZLUT_ENTRIES - 1)
            return lookupTable[PZLUT_ENTRIES - 1];
     2de:	4804      	ldr	r0, [pc, #16]	; (2f0 <pascalToCent+0x44>)
            const int32_t z1 = lookupTable[inx];
            const int32_t z2 = lookupTable[inx + 1];
            return (z1 + (((pa1 - pressurePa) * (z2 - z1)) >> 10));
        }
    }
     2e0:	bd30      	pop	{r4, r5, pc}
     2e2:	46c0      	nop			; (mov r8, r8)
     2e4:	000199cc 	.word	0x000199cc
     2e8:	00001e6c 	.word	0x00001e6c
     2ec:	ffff8d20 	.word	0xffff8d20
     2f0:	000f048e 	.word	0x000f048e

000002f4 <accelSample>:
int16_t Z;
float Xf;
float Yf;
float Zf;

bool accelSample() {
     2f4:	b510      	push	{r4, lr}

    switch(accelSampleState) {
     2f6:	4b4b      	ldr	r3, [pc, #300]	; (424 <accelSample+0x130>)
     2f8:	781a      	ldrb	r2, [r3, #0]
     2fa:	2a07      	cmp	r2, #7
     2fc:	d803      	bhi.n	306 <accelSample+0x12>
     2fe:	0093      	lsls	r3, r2, #2
     300:	4a49      	ldr	r2, [pc, #292]	; (428 <accelSample+0x134>)
     302:	58d3      	ldr	r3, [r2, r3]
     304:	469f      	mov	pc, r3

        return true;
        break;
		
    default:
        return false;
     306:	2000      	movs	r0, #0
     308:	e08a      	b.n	420 <accelSample+0x12c>

bool accelSample() {

    switch(accelSampleState) {
    case accelSampleEmpty:
        getADXL345Event(&regAccelData[0]);
     30a:	4848      	ldr	r0, [pc, #288]	; (42c <accelSample+0x138>)
     30c:	4b48      	ldr	r3, [pc, #288]	; (430 <accelSample+0x13c>)
     30e:	4798      	blx	r3
        accelSampleState++;
     310:	4a44      	ldr	r2, [pc, #272]	; (424 <accelSample+0x130>)
     312:	7813      	ldrb	r3, [r2, #0]
     314:	3301      	adds	r3, #1
     316:	7013      	strb	r3, [r2, #0]
        return false;
     318:	2000      	movs	r0, #0
     31a:	e081      	b.n	420 <accelSample+0x12c>
#define SALCONV2C_H_

static inline int16_t Convert2C(uint8_t *values) {
    int16_t result = 0;

    int16_t negative = (*(values + 1) & (1 <<7)) != 0;
     31c:	4b43      	ldr	r3, [pc, #268]	; (42c <accelSample+0x138>)
     31e:	785b      	ldrb	r3, [r3, #1]
    if (negative) {
     320:	b25a      	sxtb	r2, r3
     322:	2a00      	cmp	r2, #0
     324:	da07      	bge.n	336 <accelSample+0x42>
        // if negative then preform 2's complement to int conversion
        result = ((*(values + 1) | ~((1 << 8) - 1)) << 8 ) | *values;
     326:	4a43      	ldr	r2, [pc, #268]	; (434 <accelSample+0x140>)
     328:	4313      	orrs	r3, r2
     32a:	021b      	lsls	r3, r3, #8
     32c:	4a3f      	ldr	r2, [pc, #252]	; (42c <accelSample+0x138>)
     32e:	7812      	ldrb	r2, [r2, #0]
     330:	4313      	orrs	r3, r2
     332:	b29b      	uxth	r3, r3
     334:	e004      	b.n	340 <accelSample+0x4c>
    } else {
        result = (*(values + 1) << 8) + *values;
     336:	021b      	lsls	r3, r3, #8
     338:	4a3c      	ldr	r2, [pc, #240]	; (42c <accelSample+0x138>)
     33a:	7812      	ldrb	r2, [r2, #0]
     33c:	18d3      	adds	r3, r2, r3
     33e:	b29b      	uxth	r3, r3
        break;
    case accelSampleretreaved:
        X = Convert2C(&regAccelData[0]);
     340:	4a3d      	ldr	r2, [pc, #244]	; (438 <accelSample+0x144>)
     342:	8013      	strh	r3, [r2, #0]
        accelSampleState++;
     344:	2202      	movs	r2, #2
     346:	4b37      	ldr	r3, [pc, #220]	; (424 <accelSample+0x130>)
     348:	701a      	strb	r2, [r3, #0]
        return false;
     34a:	2000      	movs	r0, #0
     34c:	e068      	b.n	420 <accelSample+0x12c>
#define SALCONV2C_H_

static inline int16_t Convert2C(uint8_t *values) {
    int16_t result = 0;

    int16_t negative = (*(values + 1) & (1 <<7)) != 0;
     34e:	4b37      	ldr	r3, [pc, #220]	; (42c <accelSample+0x138>)
     350:	78db      	ldrb	r3, [r3, #3]
    if (negative) {
     352:	b25a      	sxtb	r2, r3
     354:	2a00      	cmp	r2, #0
     356:	da07      	bge.n	368 <accelSample+0x74>
        // if negative then preform 2's complement to int conversion
        result = ((*(values + 1) | ~((1 << 8) - 1)) << 8 ) | *values;
     358:	4a36      	ldr	r2, [pc, #216]	; (434 <accelSample+0x140>)
     35a:	4313      	orrs	r3, r2
     35c:	021b      	lsls	r3, r3, #8
     35e:	4a33      	ldr	r2, [pc, #204]	; (42c <accelSample+0x138>)
     360:	7892      	ldrb	r2, [r2, #2]
     362:	4313      	orrs	r3, r2
     364:	b29b      	uxth	r3, r3
     366:	e004      	b.n	372 <accelSample+0x7e>
    } else {
        result = (*(values + 1) << 8) + *values;
     368:	021b      	lsls	r3, r3, #8
     36a:	4a30      	ldr	r2, [pc, #192]	; (42c <accelSample+0x138>)
     36c:	7892      	ldrb	r2, [r2, #2]
     36e:	18d3      	adds	r3, r2, r3
     370:	b29b      	uxth	r3, r3
        break;
    case accelSampleXIntConverted:
        Y = Convert2C(&regAccelData[2]);
     372:	4a32      	ldr	r2, [pc, #200]	; (43c <accelSample+0x148>)
     374:	8013      	strh	r3, [r2, #0]
        accelSampleState++;
     376:	2203      	movs	r2, #3
     378:	4b2a      	ldr	r3, [pc, #168]	; (424 <accelSample+0x130>)
     37a:	701a      	strb	r2, [r3, #0]
        return false;
     37c:	2000      	movs	r0, #0
     37e:	e04f      	b.n	420 <accelSample+0x12c>
#define SALCONV2C_H_

static inline int16_t Convert2C(uint8_t *values) {
    int16_t result = 0;

    int16_t negative = (*(values + 1) & (1 <<7)) != 0;
     380:	4b2a      	ldr	r3, [pc, #168]	; (42c <accelSample+0x138>)
     382:	795b      	ldrb	r3, [r3, #5]
    if (negative) {
     384:	b25a      	sxtb	r2, r3
     386:	2a00      	cmp	r2, #0
     388:	da07      	bge.n	39a <accelSample+0xa6>
        // if negative then preform 2's complement to int conversion
        result = ((*(values + 1) | ~((1 << 8) - 1)) << 8 ) | *values;
     38a:	4a2a      	ldr	r2, [pc, #168]	; (434 <accelSample+0x140>)
     38c:	4313      	orrs	r3, r2
     38e:	021b      	lsls	r3, r3, #8
     390:	4a26      	ldr	r2, [pc, #152]	; (42c <accelSample+0x138>)
     392:	7912      	ldrb	r2, [r2, #4]
     394:	4313      	orrs	r3, r2
     396:	b29b      	uxth	r3, r3
     398:	e004      	b.n	3a4 <accelSample+0xb0>
    } else {
        result = (*(values + 1) << 8) + *values;
     39a:	021b      	lsls	r3, r3, #8
     39c:	4a23      	ldr	r2, [pc, #140]	; (42c <accelSample+0x138>)
     39e:	7912      	ldrb	r2, [r2, #4]
     3a0:	18d3      	adds	r3, r2, r3
     3a2:	b29b      	uxth	r3, r3
        break;
    case accelSampleYIntConverted:
        Z = Convert2C(&regAccelData[4]);
     3a4:	4a26      	ldr	r2, [pc, #152]	; (440 <accelSample+0x14c>)
     3a6:	8013      	strh	r3, [r2, #0]
        accelSampleState++;
     3a8:	2204      	movs	r2, #4
     3aa:	4b1e      	ldr	r3, [pc, #120]	; (424 <accelSample+0x130>)
     3ac:	701a      	strb	r2, [r3, #0]
        return false;
     3ae:	2000      	movs	r0, #0
     3b0:	e036      	b.n	420 <accelSample+0x12c>
        break;
    case accelSampleZIntConverted:
        Xf = X * ADXL345_MG2G_MULTIPLIER;
     3b2:	4b21      	ldr	r3, [pc, #132]	; (438 <accelSample+0x144>)
     3b4:	2000      	movs	r0, #0
     3b6:	5e18      	ldrsh	r0, [r3, r0]
     3b8:	4b22      	ldr	r3, [pc, #136]	; (444 <accelSample+0x150>)
     3ba:	4798      	blx	r3
     3bc:	4a22      	ldr	r2, [pc, #136]	; (448 <accelSample+0x154>)
     3be:	4b23      	ldr	r3, [pc, #140]	; (44c <accelSample+0x158>)
     3c0:	4c23      	ldr	r4, [pc, #140]	; (450 <accelSample+0x15c>)
     3c2:	47a0      	blx	r4
     3c4:	4b23      	ldr	r3, [pc, #140]	; (454 <accelSample+0x160>)
     3c6:	4798      	blx	r3
     3c8:	4b23      	ldr	r3, [pc, #140]	; (458 <accelSample+0x164>)
     3ca:	6018      	str	r0, [r3, #0]
        accelSampleState++;
     3cc:	2205      	movs	r2, #5
     3ce:	4b15      	ldr	r3, [pc, #84]	; (424 <accelSample+0x130>)
     3d0:	701a      	strb	r2, [r3, #0]
        return false;
     3d2:	2000      	movs	r0, #0
     3d4:	e024      	b.n	420 <accelSample+0x12c>
        break;
    case accelSampleXFloatConverted:
        Yf = Y * ADXL345_MG2G_MULTIPLIER;
     3d6:	4b19      	ldr	r3, [pc, #100]	; (43c <accelSample+0x148>)
     3d8:	2000      	movs	r0, #0
     3da:	5e18      	ldrsh	r0, [r3, r0]
     3dc:	4b19      	ldr	r3, [pc, #100]	; (444 <accelSample+0x150>)
     3de:	4798      	blx	r3
     3e0:	4a19      	ldr	r2, [pc, #100]	; (448 <accelSample+0x154>)
     3e2:	4b1a      	ldr	r3, [pc, #104]	; (44c <accelSample+0x158>)
     3e4:	4c1a      	ldr	r4, [pc, #104]	; (450 <accelSample+0x15c>)
     3e6:	47a0      	blx	r4
     3e8:	4b1a      	ldr	r3, [pc, #104]	; (454 <accelSample+0x160>)
     3ea:	4798      	blx	r3
     3ec:	4b1b      	ldr	r3, [pc, #108]	; (45c <accelSample+0x168>)
     3ee:	6018      	str	r0, [r3, #0]
        accelSampleState++;
     3f0:	2206      	movs	r2, #6
     3f2:	4b0c      	ldr	r3, [pc, #48]	; (424 <accelSample+0x130>)
     3f4:	701a      	strb	r2, [r3, #0]
        return false;
     3f6:	2000      	movs	r0, #0
     3f8:	e012      	b.n	420 <accelSample+0x12c>
        break;
    case accelSampleYFloatConverted:
        Zf = Z * ADXL345_MG2G_MULTIPLIER;
     3fa:	4b11      	ldr	r3, [pc, #68]	; (440 <accelSample+0x14c>)
     3fc:	2000      	movs	r0, #0
     3fe:	5e18      	ldrsh	r0, [r3, r0]
     400:	4b10      	ldr	r3, [pc, #64]	; (444 <accelSample+0x150>)
     402:	4798      	blx	r3
     404:	4a10      	ldr	r2, [pc, #64]	; (448 <accelSample+0x154>)
     406:	4b11      	ldr	r3, [pc, #68]	; (44c <accelSample+0x158>)
     408:	4c11      	ldr	r4, [pc, #68]	; (450 <accelSample+0x15c>)
     40a:	47a0      	blx	r4
     40c:	4b11      	ldr	r3, [pc, #68]	; (454 <accelSample+0x160>)
     40e:	4798      	blx	r3
     410:	4b13      	ldr	r3, [pc, #76]	; (460 <accelSample+0x16c>)
     412:	6018      	str	r0, [r3, #0]
        accelSampleState++;
     414:	2207      	movs	r2, #7
     416:	4b03      	ldr	r3, [pc, #12]	; (424 <accelSample+0x130>)
     418:	701a      	strb	r2, [r3, #0]
        return false;
     41a:	2000      	movs	r0, #0
     41c:	e000      	b.n	420 <accelSample+0x12c>
        break;
    case accelSapleCooked:

        return true;
     41e:	2001      	movs	r0, #1
        return false;
        break;

    }

}
     420:	bd10      	pop	{r4, pc}
     422:	46c0      	nop			; (mov r8, r8)
     424:	20000062 	.word	0x20000062
     428:	00001fa0 	.word	0x00001fa0
     42c:	2000005c 	.word	0x2000005c
     430:	00000115 	.word	0x00000115
     434:	ffffff00 	.word	0xffffff00
     438:	20000064 	.word	0x20000064
     43c:	20000048 	.word	0x20000048
     440:	20000058 	.word	0x20000058
     444:	000018d5 	.word	0x000018d5
     448:	8e8a71de 	.word	0x8e8a71de
     44c:	3f6ff2e4 	.word	0x3f6ff2e4
     450:	000013a1 	.word	0x000013a1
     454:	000019b1 	.word	0x000019b1
     458:	20000050 	.word	0x20000050
     45c:	20000054 	.word	0x20000054
     460:	2000004c 	.word	0x2000004c

00000464 <initAccelerometer>:





void initAccelerometer(struct AccelerometerModule *myAccelerometer) {
     464:	b5f8      	push	{r3, r4, r5, r6, r7, lr}
     466:	1c07      	adds	r7, r0, #0

    accelSampleState = accelSampleEmpty;
     468:	2200      	movs	r2, #0
     46a:	4b20      	ldr	r3, [pc, #128]	; (4ec <initAccelerometer+0x88>)
     46c:	701a      	strb	r2, [r3, #0]



#ifdef HAS_ADXL345

    SaLPinMode(ADXL345_SLAVE_SELECT_PIN,OUTPUT);
     46e:	2010      	movs	r0, #16
     470:	2101      	movs	r1, #1
     472:	4e1f      	ldr	r6, [pc, #124]	; (4f0 <initAccelerometer+0x8c>)
     474:	47b0      	blx	r6
     476:	4c1f      	ldr	r4, [pc, #124]	; (4f4 <initAccelerometer+0x90>)
     478:	2580      	movs	r5, #128	; 0x80
     47a:	026d      	lsls	r5, r5, #9
     47c:	61a5      	str	r5, [r4, #24]
    SaLDigitalOut(ADXL345_SLAVE_SELECT_PIN,true);
    SaLPinMode(ADXL345_MOSI_PIN,OUTPUT);
     47e:	200d      	movs	r0, #13
     480:	2101      	movs	r1, #1
     482:	47b0      	blx	r6
    SaLPinMode(ADXL345_SCK_PIN,OUTPUT);
     484:	200f      	movs	r0, #15
     486:	2101      	movs	r1, #1
     488:	47b0      	blx	r6
    SaLPinMode(ADXL345_MISO_PIN,INPUT);
     48a:	200e      	movs	r0, #14
     48c:	2100      	movs	r1, #0
     48e:	47b0      	blx	r6

    myAccelerometer->rate_ = MY_ADXL345_DATA_RATE;
     490:	230e      	movs	r3, #14
     492:	707b      	strb	r3, [r7, #1]
    myAccelerometer->range_ = MY_ADXL345_RANGE;
     494:	3b06      	subs	r3, #6
     496:	703b      	strb	r3, [r7, #0]
    } else {
        port->OUTCLR.reg = pin_mask;
     498:	6165      	str	r5, [r4, #20]

    SaLDigitalOut(ADXL345_SLAVE_SELECT_PIN,false);
    byteOut(ADXL345_SCK_PIN,ADXL345_MOSI_PIN,ADXL345_REG_POWER_CTL);
     49a:	200f      	movs	r0, #15
     49c:	210d      	movs	r1, #13
     49e:	222d      	movs	r2, #45	; 0x2d
     4a0:	4e15      	ldr	r6, [pc, #84]	; (4f8 <initAccelerometer+0x94>)
     4a2:	47b0      	blx	r6
    byteOut(ADXL345_SCK_PIN,ADXL345_MOSI_PIN,0x00); // disable
     4a4:	200f      	movs	r0, #15
     4a6:	210d      	movs	r1, #13
     4a8:	2200      	movs	r2, #0
     4aa:	47b0      	blx	r6
    PortGroup *const port = SaLGetPort(pin);
    uint32_t pin_mask = (1UL << (pin % 32));


    if (level) {
        port->OUTSET.reg = pin_mask;
     4ac:	61a5      	str	r5, [r4, #24]
    } else {
        port->OUTCLR.reg = pin_mask;
     4ae:	6165      	str	r5, [r4, #20]
    SaLDigitalOut(ADXL345_SLAVE_SELECT_PIN,true);

    SaLDigitalOut(ADXL345_SLAVE_SELECT_PIN,false);
    byteOut(ADXL345_SCK_PIN,ADXL345_MOSI_PIN,ADXL345_REG_BW_RATE);
     4b0:	200f      	movs	r0, #15
     4b2:	210d      	movs	r1, #13
     4b4:	222c      	movs	r2, #44	; 0x2c
     4b6:	47b0      	blx	r6
    byteOut(ADXL345_SCK_PIN,ADXL345_MOSI_PIN,myAccelerometer->rate_);
     4b8:	787a      	ldrb	r2, [r7, #1]
     4ba:	200f      	movs	r0, #15
     4bc:	210d      	movs	r1, #13
     4be:	47b0      	blx	r6
    PortGroup *const port = SaLGetPort(pin);
    uint32_t pin_mask = (1UL << (pin % 32));


    if (level) {
        port->OUTSET.reg = pin_mask;
     4c0:	61a5      	str	r5, [r4, #24]
    } else {
        port->OUTCLR.reg = pin_mask;
     4c2:	6165      	str	r5, [r4, #20]
    SaLDigitalOut(ADXL345_SLAVE_SELECT_PIN,true);

    SaLDigitalOut(ADXL345_SLAVE_SELECT_PIN,false);
    byteOut(ADXL345_SCK_PIN,ADXL345_MOSI_PIN,ADXL345_REG_BW_RATE);
     4c4:	200f      	movs	r0, #15
     4c6:	210d      	movs	r1, #13
     4c8:	222c      	movs	r2, #44	; 0x2c
     4ca:	47b0      	blx	r6
    byteOut(ADXL345_SCK_PIN,ADXL345_MOSI_PIN,myAccelerometer->range_);
     4cc:	783a      	ldrb	r2, [r7, #0]
     4ce:	200f      	movs	r0, #15
     4d0:	210d      	movs	r1, #13
     4d2:	47b0      	blx	r6
    PortGroup *const port = SaLGetPort(pin);
    uint32_t pin_mask = (1UL << (pin % 32));


    if (level) {
        port->OUTSET.reg = pin_mask;
     4d4:	61a5      	str	r5, [r4, #24]
    } else {
        port->OUTCLR.reg = pin_mask;
     4d6:	6165      	str	r5, [r4, #20]
    SaLDigitalOut(ADXL345_SLAVE_SELECT_PIN,true);

    SaLDigitalOut(ADXL345_SLAVE_SELECT_PIN,false);
    byteOut(ADXL345_SCK_PIN,ADXL345_MOSI_PIN,ADXL345_REG_POWER_CTL);
     4d8:	200f      	movs	r0, #15
     4da:	210d      	movs	r1, #13
     4dc:	222d      	movs	r2, #45	; 0x2d
     4de:	47b0      	blx	r6
    byteOut(ADXL345_SCK_PIN,ADXL345_MOSI_PIN,0x08); // enable
     4e0:	200f      	movs	r0, #15
     4e2:	210d      	movs	r1, #13
     4e4:	2208      	movs	r2, #8
     4e6:	47b0      	blx	r6
    PortGroup *const port = SaLGetPort(pin);
    uint32_t pin_mask = (1UL << (pin % 32));


    if (level) {
        port->OUTSET.reg = pin_mask;
     4e8:	61a5      	str	r5, [r4, #24]
    SaLDigitalOut(ADXL345_SLAVE_SELECT_PIN,true);

#endif

}
     4ea:	bdf8      	pop	{r3, r4, r5, r6, r7, pc}
     4ec:	20000062 	.word	0x20000062
     4f0:	000009f9 	.word	0x000009f9
     4f4:	41004400 	.word	0x41004400
     4f8:	000006e1 	.word	0x000006e1

000004fc <SaLGetAccelX>:


float SaLGetAccelX(){
	return Xf;
     4fc:	4b01      	ldr	r3, [pc, #4]	; (504 <SaLGetAccelX+0x8>)
     4fe:	6818      	ldr	r0, [r3, #0]
}
     500:	4770      	bx	lr
     502:	46c0      	nop			; (mov r8, r8)
     504:	20000050 	.word	0x20000050

00000508 <SaLGetAccelY>:
float SaLGetAccelY(){
	return Yf;
     508:	4b01      	ldr	r3, [pc, #4]	; (510 <SaLGetAccelY+0x8>)
     50a:	6818      	ldr	r0, [r3, #0]
}
     50c:	4770      	bx	lr
     50e:	46c0      	nop			; (mov r8, r8)
     510:	20000054 	.word	0x20000054

00000514 <SaLGetAccelZ>:
float SaLGetAccelZ(){
	return Zf;
     514:	4b01      	ldr	r3, [pc, #4]	; (51c <SaLGetAccelZ+0x8>)
     516:	6818      	ldr	r0, [r3, #0]
     518:	4770      	bx	lr
     51a:	46c0      	nop			; (mov r8, r8)
     51c:	2000004c 	.word	0x2000004c

00000520 <initBarometer>:
        break;
    };
};


void initBarometer() {
     520:	b538      	push	{r3, r4, r5, lr}

    baroSampleState = baroSampleEmpty;
     522:	2200      	movs	r2, #0
     524:	4b11      	ldr	r3, [pc, #68]	; (56c <initBarometer+0x4c>)
     526:	701a      	strb	r2, [r3, #0]

#ifdef HAS_MS5607
    SaLPinMode(MS5607_SLAVE_SELECT_PIN,OUTPUT);
     528:	2009      	movs	r0, #9
     52a:	2101      	movs	r1, #1
     52c:	4c10      	ldr	r4, [pc, #64]	; (570 <initBarometer+0x50>)
     52e:	47a0      	blx	r4
    SaLPinMode(MS5607_SLAVE_SELECT_PIN,TRUE);
     530:	2009      	movs	r0, #9
     532:	2101      	movs	r1, #1
     534:	47a0      	blx	r4
    SaLPinMode(MS5607_MOSI_PIN,OUTPUT);
     536:	200d      	movs	r0, #13
     538:	2101      	movs	r1, #1
     53a:	47a0      	blx	r4
    SaLPinMode(MS5607_SCK_PIN,OUTPUT);
     53c:	200f      	movs	r0, #15
     53e:	2101      	movs	r1, #1
     540:	47a0      	blx	r4
    SaLPinMode(MS5607_MISO_PIN,INPUT);
     542:	200e      	movs	r0, #14
     544:	2100      	movs	r1, #0
     546:	47a0      	blx	r4
    } else {
        port->OUTCLR.reg = pin_mask;
     548:	4c0a      	ldr	r4, [pc, #40]	; (574 <initBarometer+0x54>)
     54a:	2580      	movs	r5, #128	; 0x80
     54c:	00ad      	lsls	r5, r5, #2
     54e:	6165      	str	r5, [r4, #20]

    SaLDigitalOut(MS5607_SLAVE_SELECT_PIN,FALSE);
    byteOut(MS5607_SCK_PIN,MS5607_MOSI_PIN,MS5607_CMD_RES);
     550:	200f      	movs	r0, #15
     552:	210d      	movs	r1, #13
     554:	221e      	movs	r2, #30
     556:	4b08      	ldr	r3, [pc, #32]	; (578 <initBarometer+0x58>)
     558:	4798      	blx	r3
    PortGroup *const port = SaLGetPort(pin);
    uint32_t pin_mask = (1UL << (pin % 32));


    if (level) {
        port->OUTSET.reg = pin_mask;
     55a:	61a5      	str	r5, [r4, #24]
    SaLDigitalOut(MS5607_SLAVE_SELECT_PIN,TRUE);
    delay_us(600);
     55c:	2096      	movs	r0, #150	; 0x96
     55e:	0080      	lsls	r0, r0, #2
     560:	4b06      	ldr	r3, [pc, #24]	; (57c <initBarometer+0x5c>)
     562:	4798      	blx	r3
    getMS5607Coeff(&coefficients_[0]);
     564:	4806      	ldr	r0, [pc, #24]	; (580 <initBarometer+0x60>)
     566:	4b07      	ldr	r3, [pc, #28]	; (584 <initBarometer+0x64>)
     568:	4798      	blx	r3
#endif

}
     56a:	bd38      	pop	{r3, r4, r5, pc}
     56c:	20000078 	.word	0x20000078
     570:	000009f9 	.word	0x000009f9
     574:	41004400 	.word	0x41004400
     578:	000006e1 	.word	0x000006e1
     57c:	000009c9 	.word	0x000009c9
     580:	2000003c 	.word	0x2000003c
     584:	000001a5 	.word	0x000001a5

00000588 <sendMS5607D2ReadReq>:

void sendMS5607D2ReadReq(uint8_t _cmd) {
     588:	b538      	push	{r3, r4, r5, lr}
     58a:	1c02      	adds	r2, r0, #0
    } else {
        port->OUTCLR.reg = pin_mask;
     58c:	4c04      	ldr	r4, [pc, #16]	; (5a0 <sendMS5607D2ReadReq+0x18>)
     58e:	2580      	movs	r5, #128	; 0x80
     590:	00ad      	lsls	r5, r5, #2
     592:	6165      	str	r5, [r4, #20]

    SaLDigitalOut(MS5607_SLAVE_SELECT_PIN,FALSE);
    byteOut(MS5607_SCK_PIN,MS5607_MOSI_PIN,_cmd);
     594:	200f      	movs	r0, #15
     596:	210d      	movs	r1, #13
     598:	4b02      	ldr	r3, [pc, #8]	; (5a4 <sendMS5607D2ReadReq+0x1c>)
     59a:	4798      	blx	r3
    PortGroup *const port = SaLGetPort(pin);
    uint32_t pin_mask = (1UL << (pin % 32));


    if (level) {
        port->OUTSET.reg = pin_mask;
     59c:	61a5      	str	r5, [r4, #24]
    SaLDigitalOut(MS5607_SLAVE_SELECT_PIN,TRUE);
}
     59e:	bd38      	pop	{r3, r4, r5, pc}
     5a0:	41004400 	.word	0x41004400
     5a4:	000006e1 	.word	0x000006e1

000005a8 <baroSample>:
uint32_t mills;
enum baroSampleState baroSampleState;

uint16_t hits;

bool baroSample(void) {
     5a8:	b508      	push	{r3, lr}

    switch (baroSampleState) {
     5aa:	4b3c      	ldr	r3, [pc, #240]	; (69c <baroSample+0xf4>)
     5ac:	781a      	ldrb	r2, [r3, #0]
     5ae:	2a08      	cmp	r2, #8
     5b0:	d803      	bhi.n	5ba <baroSample+0x12>
     5b2:	0093      	lsls	r3, r2, #2
     5b4:	4a3a      	ldr	r2, [pc, #232]	; (6a0 <baroSample+0xf8>)
     5b6:	58d3      	ldr	r3, [r2, r3]
     5b8:	469f      	mov	pc, r3
    case baroSampleHeightCalculated:
        //some kind of baroSamplePut(currentAltinCm);
        return true;
        break;
    default:
        return false;
     5ba:	2000      	movs	r0, #0
     5bc:	e06d      	b.n	69a <baroSample+0xf2>

bool baroSample(void) {

    switch (baroSampleState) {
    case baroSampleEmpty:
        sendMS5607D2ReadReq(cmdAdcD1_);
     5be:	2040      	movs	r0, #64	; 0x40
     5c0:	4b38      	ldr	r3, [pc, #224]	; (6a4 <baroSample+0xfc>)
     5c2:	4798      	blx	r3
        baroSampleState++;
     5c4:	4a35      	ldr	r2, [pc, #212]	; (69c <baroSample+0xf4>)
     5c6:	7813      	ldrb	r3, [r2, #0]
     5c8:	3301      	adds	r3, #1
     5ca:	7013      	strb	r3, [r2, #0]
        mills = millis();
     5cc:	4b36      	ldr	r3, [pc, #216]	; (6a8 <baroSample+0x100>)
     5ce:	4798      	blx	r3
     5d0:	4b36      	ldr	r3, [pc, #216]	; (6ac <baroSample+0x104>)
     5d2:	6018      	str	r0, [r3, #0]
        return false;
     5d4:	2000      	movs	r0, #0
     5d6:	e060      	b.n	69a <baroSample+0xf2>
        break;
    case baroSamplePressureRequested:
        //timer interrupt will send baroSampleState++
        if (millis() - mills > 22) {
     5d8:	4b33      	ldr	r3, [pc, #204]	; (6a8 <baroSample+0x100>)
     5da:	4798      	blx	r3
     5dc:	4b33      	ldr	r3, [pc, #204]	; (6ac <baroSample+0x104>)
     5de:	681b      	ldr	r3, [r3, #0]
     5e0:	1ac0      	subs	r0, r0, r3
     5e2:	2816      	cmp	r0, #22
     5e4:	d905      	bls.n	5f2 <baroSample+0x4a>
            baroSampleState++;
     5e6:	4a2d      	ldr	r2, [pc, #180]	; (69c <baroSample+0xf4>)
     5e8:	7813      	ldrb	r3, [r2, #0]
     5ea:	3301      	adds	r3, #1
     5ec:	7013      	strb	r3, [r2, #0]
        } else {
            hits++;
        }
        return false;
     5ee:	2000      	movs	r0, #0
     5f0:	e053      	b.n	69a <baroSample+0xf2>
    case baroSamplePressureRequested:
        //timer interrupt will send baroSampleState++
        if (millis() - mills > 22) {
            baroSampleState++;
        } else {
            hits++;
     5f2:	4a2f      	ldr	r2, [pc, #188]	; (6b0 <baroSample+0x108>)
     5f4:	8813      	ldrh	r3, [r2, #0]
     5f6:	3301      	adds	r3, #1
     5f8:	8013      	strh	r3, [r2, #0]
        }
        return false;
     5fa:	2000      	movs	r0, #0
     5fc:	e04d      	b.n	69a <baroSample+0xf2>
        break;
    case baroSamplePressureReady:
        pressure = readMS5607AdcResults();
     5fe:	4b2d      	ldr	r3, [pc, #180]	; (6b4 <baroSample+0x10c>)
     600:	4798      	blx	r3
     602:	4b2d      	ldr	r3, [pc, #180]	; (6b8 <baroSample+0x110>)
     604:	6018      	str	r0, [r3, #0]
        baroSampleState++;
     606:	4a25      	ldr	r2, [pc, #148]	; (69c <baroSample+0xf4>)
     608:	7813      	ldrb	r3, [r2, #0]
     60a:	3301      	adds	r3, #1
     60c:	7013      	strb	r3, [r2, #0]
        return false;
     60e:	2000      	movs	r0, #0
     610:	e043      	b.n	69a <baroSample+0xf2>
        break;
    case baroSamplePressureRetreaved:
        sendMS5607D2ReadReq(cmdAdcD2_);
     612:	2050      	movs	r0, #80	; 0x50
     614:	4b23      	ldr	r3, [pc, #140]	; (6a4 <baroSample+0xfc>)
     616:	4798      	blx	r3
        baroSampleState++;
     618:	4a20      	ldr	r2, [pc, #128]	; (69c <baroSample+0xf4>)
     61a:	7813      	ldrb	r3, [r2, #0]
     61c:	3301      	adds	r3, #1
     61e:	7013      	strb	r3, [r2, #0]
        mills = millis();
     620:	4b21      	ldr	r3, [pc, #132]	; (6a8 <baroSample+0x100>)
     622:	4798      	blx	r3
     624:	4b21      	ldr	r3, [pc, #132]	; (6ac <baroSample+0x104>)
     626:	6018      	str	r0, [r3, #0]
        return false;
     628:	2000      	movs	r0, #0
     62a:	e036      	b.n	69a <baroSample+0xf2>
        break;
    case baroSampleTemperatureRequested:
        if (millis() - mills > 22) {
     62c:	4b1e      	ldr	r3, [pc, #120]	; (6a8 <baroSample+0x100>)
     62e:	4798      	blx	r3
     630:	4b1e      	ldr	r3, [pc, #120]	; (6ac <baroSample+0x104>)
     632:	681b      	ldr	r3, [r3, #0]
     634:	1ac0      	subs	r0, r0, r3
     636:	2816      	cmp	r0, #22
     638:	d905      	bls.n	646 <baroSample+0x9e>
            baroSampleState++;
     63a:	4a18      	ldr	r2, [pc, #96]	; (69c <baroSample+0xf4>)
     63c:	7813      	ldrb	r3, [r2, #0]
     63e:	3301      	adds	r3, #1
     640:	7013      	strb	r3, [r2, #0]
        } else {
            hits++;
        }
        return false;
     642:	2000      	movs	r0, #0
     644:	e029      	b.n	69a <baroSample+0xf2>
        break;
    case baroSampleTemperatureRequested:
        if (millis() - mills > 22) {
            baroSampleState++;
        } else {
            hits++;
     646:	4a1a      	ldr	r2, [pc, #104]	; (6b0 <baroSample+0x108>)
     648:	8813      	ldrh	r3, [r2, #0]
     64a:	3301      	adds	r3, #1
     64c:	8013      	strh	r3, [r2, #0]
        }
        return false;
     64e:	2000      	movs	r0, #0
     650:	e023      	b.n	69a <baroSample+0xf2>
        break;
    case baroSampleTemperatureReady:
        temperature = readMS5607AdcResults();
     652:	4b18      	ldr	r3, [pc, #96]	; (6b4 <baroSample+0x10c>)
     654:	4798      	blx	r3
     656:	4b19      	ldr	r3, [pc, #100]	; (6bc <baroSample+0x114>)
     658:	6018      	str	r0, [r3, #0]
        baroSampleState++;
     65a:	4a10      	ldr	r2, [pc, #64]	; (69c <baroSample+0xf4>)
     65c:	7813      	ldrb	r3, [r2, #0]
     65e:	3301      	adds	r3, #1
     660:	7013      	strb	r3, [r2, #0]
        return false;
     662:	2000      	movs	r0, #0
     664:	e019      	b.n	69a <baroSample+0xf2>
        break;
    case baroSampleTemperatureRetreaved:
        pascelFromPresTempConv = ConvertPressureTemperature(&pressure, &temperature,&coefficients_[0]);
     666:	4814      	ldr	r0, [pc, #80]	; (6b8 <baroSample+0x110>)
     668:	4914      	ldr	r1, [pc, #80]	; (6bc <baroSample+0x114>)
     66a:	4a15      	ldr	r2, [pc, #84]	; (6c0 <baroSample+0x118>)
     66c:	4b15      	ldr	r3, [pc, #84]	; (6c4 <baroSample+0x11c>)
     66e:	4798      	blx	r3
     670:	4b15      	ldr	r3, [pc, #84]	; (6c8 <baroSample+0x120>)
     672:	6018      	str	r0, [r3, #0]
        baroSampleState++;
     674:	4a09      	ldr	r2, [pc, #36]	; (69c <baroSample+0xf4>)
     676:	7813      	ldrb	r3, [r2, #0]
     678:	3301      	adds	r3, #1
     67a:	7013      	strb	r3, [r2, #0]
        return false;
     67c:	2000      	movs	r0, #0
     67e:	e00c      	b.n	69a <baroSample+0xf2>
        break;
    case baroSamplePascelCalculated:
        currentAltinCm = pascalToCent(pascelFromPresTempConv);
     680:	4b11      	ldr	r3, [pc, #68]	; (6c8 <baroSample+0x120>)
     682:	6818      	ldr	r0, [r3, #0]
     684:	4b11      	ldr	r3, [pc, #68]	; (6cc <baroSample+0x124>)
     686:	4798      	blx	r3
     688:	4b11      	ldr	r3, [pc, #68]	; (6d0 <baroSample+0x128>)
     68a:	6018      	str	r0, [r3, #0]
        baroSampleState++;
     68c:	4a03      	ldr	r2, [pc, #12]	; (69c <baroSample+0xf4>)
     68e:	7813      	ldrb	r3, [r2, #0]
     690:	3301      	adds	r3, #1
     692:	7013      	strb	r3, [r2, #0]
        return false;
     694:	2000      	movs	r0, #0
     696:	e000      	b.n	69a <baroSample+0xf2>
        break;
    case baroSampleHeightCalculated:
        //some kind of baroSamplePut(currentAltinCm);
        return true;
     698:	2001      	movs	r0, #1
        break;
    default:
        return false;
        break;
    };
};
     69a:	bd08      	pop	{r3, pc}
     69c:	20000078 	.word	0x20000078
     6a0:	00001fc0 	.word	0x00001fc0
     6a4:	00000589 	.word	0x00000589
     6a8:	00000971 	.word	0x00000971
     6ac:	20000074 	.word	0x20000074
     6b0:	20000070 	.word	0x20000070
     6b4:	00000155 	.word	0x00000155
     6b8:	2000006c 	.word	0x2000006c
     6bc:	20000068 	.word	0x20000068
     6c0:	2000003c 	.word	0x2000003c
     6c4:	0000021d 	.word	0x0000021d
     6c8:	20000080 	.word	0x20000080
     6cc:	000002ad 	.word	0x000002ad
     6d0:	2000007c 	.word	0x2000007c

000006d4 <SaLBaroGetHeight>:
    SaLDigitalOut(MS5607_SLAVE_SELECT_PIN,TRUE);
}


uint32_t SaLBaroGetHeight() {
    return currentAltinCm;
     6d4:	4b01      	ldr	r3, [pc, #4]	; (6dc <SaLBaroGetHeight+0x8>)
     6d6:	6818      	ldr	r0, [r3, #0]
     6d8:	4770      	bx	lr
     6da:	46c0      	nop			; (mov r8, r8)
     6dc:	2000007c 	.word	0x2000007c

000006e0 <byteOut>:



void byteOut(uint8_t SCK_PIN,
             uint8_t MOSI_PIN,
             uint8_t byte) {
     6e0:	b570      	push	{r4, r5, r6, lr}
     6e2:	09c3      	lsrs	r3, r0, #7
     6e4:	2400      	movs	r4, #0
     6e6:	2b00      	cmp	r3, #0
     6e8:	d104      	bne.n	6f4 <byteOut+0x14>
    uint8_t group_index = (gpio_pin / 32);
    /* Array of available ports */
    Port *const ports[PORT_INST_NUM] = PORT_INSTS;

    if (port_index < PORT_INST_NUM) {
        return &(ports[port_index]->Group[group_index]);
     6ea:	0944      	lsrs	r4, r0, #5
     6ec:	01e4      	lsls	r4, r4, #7
     6ee:	4b13      	ldr	r3, [pc, #76]	; (73c <byteOut+0x5c>)
     6f0:	469c      	mov	ip, r3
     6f2:	4464      	add	r4, ip

void SaLPinMode(uint8_t pin,uint8_t DIR);

static inline void SaLDigitalOut(uint8_t pin, bool level) {
    PortGroup *const port = SaLGetPort(pin);
    uint32_t pin_mask = (1UL << (pin % 32));
     6f4:	231f      	movs	r3, #31
     6f6:	4018      	ands	r0, r3
     6f8:	3b1e      	subs	r3, #30
     6fa:	4083      	lsls	r3, r0
     6fc:	1c18      	adds	r0, r3, #0
     6fe:	09cb      	lsrs	r3, r1, #7
     700:	2600      	movs	r6, #0
     702:	2b00      	cmp	r3, #0
     704:	d104      	bne.n	710 <byteOut+0x30>
    uint8_t group_index = (gpio_pin / 32);
    /* Array of available ports */
    Port *const ports[PORT_INST_NUM] = PORT_INSTS;

    if (port_index < PORT_INST_NUM) {
        return &(ports[port_index]->Group[group_index]);
     706:	094e      	lsrs	r6, r1, #5
     708:	01f6      	lsls	r6, r6, #7
     70a:	4b0c      	ldr	r3, [pc, #48]	; (73c <byteOut+0x5c>)
     70c:	469c      	mov	ip, r3
     70e:	4466      	add	r6, ip

void SaLPinMode(uint8_t pin,uint8_t DIR);

static inline void SaLDigitalOut(uint8_t pin, bool level) {
    PortGroup *const port = SaLGetPort(pin);
    uint32_t pin_mask = (1UL << (pin % 32));
     710:	231f      	movs	r3, #31
     712:	4019      	ands	r1, r3
     714:	3b1e      	subs	r3, #30
     716:	408b      	lsls	r3, r1
     718:	1c19      	adds	r1, r3, #0
     71a:	2308      	movs	r3, #8


    if (level) {
        port->OUTSET.reg = pin_mask;
    } else {
        port->OUTCLR.reg = pin_mask;
     71c:	6160      	str	r0, [r4, #20]

    for (uint8_t i = 0; i<8; ++i) {
        SaLDigitalOut(SCK_PIN,FALSE);
        if (byte & 0x80) {
     71e:	b255      	sxtb	r5, r2
     720:	2d00      	cmp	r5, #0
     722:	da01      	bge.n	728 <byteOut+0x48>
    PortGroup *const port = SaLGetPort(pin);
    uint32_t pin_mask = (1UL << (pin % 32));


    if (level) {
        port->OUTSET.reg = pin_mask;
     724:	61b1      	str	r1, [r6, #24]
     726:	e000      	b.n	72a <byteOut+0x4a>
    } else {
        port->OUTCLR.reg = pin_mask;
     728:	6171      	str	r1, [r6, #20]
    PortGroup *const port = SaLGetPort(pin);
    uint32_t pin_mask = (1UL << (pin % 32));


    if (level) {
        port->OUTSET.reg = pin_mask;
     72a:	61a0      	str	r0, [r4, #24]
            SaLDigitalOut(MOSI_PIN,true);
        } else {
            SaLDigitalOut(MOSI_PIN,false);
        }
        SaLDigitalOut(SCK_PIN,TRUE);
        byte <<= 1;
     72c:	0052      	lsls	r2, r2, #1
     72e:	b2d2      	uxtb	r2, r2
     730:	3b01      	subs	r3, #1
     732:	b2db      	uxtb	r3, r3

void byteOut(uint8_t SCK_PIN,
             uint8_t MOSI_PIN,
             uint8_t byte) {

    for (uint8_t i = 0; i<8; ++i) {
     734:	2b00      	cmp	r3, #0
     736:	d1f1      	bne.n	71c <byteOut+0x3c>
        }
        SaLDigitalOut(SCK_PIN,TRUE);
        byte <<= 1;
    }

}
     738:	bd70      	pop	{r4, r5, r6, pc}
     73a:	46c0      	nop			; (mov r8, r8)
     73c:	41004400 	.word	0x41004400

00000740 <getByte>:
    }

}

uint8_t getByte(uint8_t SCK_PIN,
                uint8_t MISO_PIN) {
     740:	b5f0      	push	{r4, r5, r6, r7, lr}
     742:	09c3      	lsrs	r3, r0, #7
     744:	2400      	movs	r4, #0
     746:	2b00      	cmp	r3, #0
     748:	d104      	bne.n	754 <getByte+0x14>
    uint8_t group_index = (gpio_pin / 32);
    /* Array of available ports */
    Port *const ports[PORT_INST_NUM] = PORT_INSTS;

    if (port_index < PORT_INST_NUM) {
        return &(ports[port_index]->Group[group_index]);
     74a:	0944      	lsrs	r4, r0, #5
     74c:	01e4      	lsls	r4, r4, #7
     74e:	4b12      	ldr	r3, [pc, #72]	; (798 <getByte+0x58>)
     750:	469c      	mov	ip, r3
     752:	4464      	add	r4, ip

void SaLPinMode(uint8_t pin,uint8_t DIR);

static inline void SaLDigitalOut(uint8_t pin, bool level) {
    PortGroup *const port = SaLGetPort(pin);
    uint32_t pin_mask = (1UL << (pin % 32));
     754:	251f      	movs	r5, #31
     756:	4028      	ands	r0, r5
     758:	3d1e      	subs	r5, #30
     75a:	4085      	lsls	r5, r0
     75c:	09cb      	lsrs	r3, r1, #7
     75e:	2600      	movs	r6, #0
     760:	2b00      	cmp	r3, #0
     762:	d104      	bne.n	76e <getByte+0x2e>
    uint8_t group_index = (gpio_pin / 32);
    /* Array of available ports */
    Port *const ports[PORT_INST_NUM] = PORT_INSTS;

    if (port_index < PORT_INST_NUM) {
        return &(ports[port_index]->Group[group_index]);
     764:	094e      	lsrs	r6, r1, #5
     766:	01f6      	lsls	r6, r6, #7
     768:	4b0b      	ldr	r3, [pc, #44]	; (798 <getByte+0x58>)
     76a:	469c      	mov	ip, r3
     76c:	4466      	add	r6, ip
    }
}

static inline bool SaLDigitalIn(uint8_t pin) {
    PortGroup *const port = SaLGetPort(pin);
    uint32_t pin_mask = (1UL << (pin % 32));
     76e:	231f      	movs	r3, #31
     770:	4019      	ands	r1, r3
     772:	3b1e      	subs	r3, #30
     774:	408b      	lsls	r3, r1
     776:	1c19      	adds	r1, r3, #0
     778:	2208      	movs	r2, #8
    uint8_t byte = 0x00;
     77a:	2000      	movs	r0, #0


    if (level) {
        port->OUTSET.reg = pin_mask;
    } else {
        port->OUTCLR.reg = pin_mask;
     77c:	6165      	str	r5, [r4, #20]
}

static inline bool SaLDigitalIn(uint8_t pin) {
    PortGroup *const port = SaLGetPort(pin);
    uint32_t pin_mask = (1UL << (pin % 32));
    bool level = (port->IN.reg & pin_mask);
     77e:	6a33      	ldr	r3, [r6, #32]
     780:	400b      	ands	r3, r1
     782:	1e5f      	subs	r7, r3, #1
     784:	41bb      	sbcs	r3, r7

    for (uint8_t i = 0; i<8; ++i) {
        SaLDigitalOut(SCK_PIN,FALSE);
        byte = (byte << 1 ) | SaLDigitalIn(MISO_PIN);
     786:	0040      	lsls	r0, r0, #1
     788:	4318      	orrs	r0, r3
     78a:	b2c0      	uxtb	r0, r0
    PortGroup *const port = SaLGetPort(pin);
    uint32_t pin_mask = (1UL << (pin % 32));


    if (level) {
        port->OUTSET.reg = pin_mask;
     78c:	61a5      	str	r5, [r4, #24]
     78e:	3a01      	subs	r2, #1
     790:	b2d2      	uxtb	r2, r2

uint8_t getByte(uint8_t SCK_PIN,
                uint8_t MISO_PIN) {
    uint8_t byte = 0x00;

    for (uint8_t i = 0; i<8; ++i) {
     792:	2a00      	cmp	r2, #0
     794:	d1f2      	bne.n	77c <getByte+0x3c>
        SaLDigitalOut(SCK_PIN,FALSE);
        byte = (byte << 1 ) | SaLDigitalIn(MISO_PIN);
        SaLDigitalOut(SCK_PIN,TRUE);
    }
    return byte;
}
     796:	bdf0      	pop	{r4, r5, r6, r7, pc}
     798:	41004400 	.word	0x41004400

0000079c <SaLPlayTone>:

#include <SaLBuzzer.h>


void SaLPlayTone(int16_t tone_) {
     79c:	b5f0      	push	{r4, r5, r6, r7, lr}
     79e:	464f      	mov	r7, r9
     7a0:	4646      	mov	r6, r8
     7a2:	b4c0      	push	{r6, r7}
     7a4:	b083      	sub	sp, #12
     7a6:	4680      	mov	r8, r0
    int32_t duration = 100000;

    while (elapsed_time < duration) {

        SaLDigitalOut(BUZZER,true);
        delay_us(tone_/2);
     7a8:	0fc6      	lsrs	r6, r0, #31
     7aa:	4446      	add	r6, r8
     7ac:	1073      	asrs	r3, r6, #1
     7ae:	9301      	str	r3, [sp, #4]


void SaLPlayTone(int16_t tone_) {


    int32_t elapsed_time = 0;
     7b0:	2400      	movs	r4, #0
     7b2:	4f0b      	ldr	r7, [pc, #44]	; (7e0 <SaLPlayTone+0x44>)
     7b4:	2380      	movs	r3, #128	; 0x80
     7b6:	015b      	lsls	r3, r3, #5
     7b8:	4699      	mov	r9, r3
     7ba:	1c1e      	adds	r6, r3, #0
     7bc:	61be      	str	r6, [r7, #24]
    int32_t duration = 100000;

    while (elapsed_time < duration) {

        SaLDigitalOut(BUZZER,true);
        delay_us(tone_/2);
     7be:	9801      	ldr	r0, [sp, #4]
     7c0:	4d08      	ldr	r5, [pc, #32]	; (7e4 <SaLPlayTone+0x48>)
     7c2:	47a8      	blx	r5
    } else {
        port->OUTCLR.reg = pin_mask;
     7c4:	464b      	mov	r3, r9
     7c6:	617b      	str	r3, [r7, #20]

        SaLDigitalOut(BUZZER, false);
        delay_us(tone_/2);
     7c8:	9801      	ldr	r0, [sp, #4]
     7ca:	47a8      	blx	r5
     7cc:	4444      	add	r4, r8


    int32_t elapsed_time = 0;
    int32_t duration = 100000;

    while (elapsed_time < duration) {
     7ce:	4b06      	ldr	r3, [pc, #24]	; (7e8 <SaLPlayTone+0x4c>)
     7d0:	429c      	cmp	r4, r3
     7d2:	ddf3      	ble.n	7bc <SaLPlayTone+0x20>


    }


     7d4:	b003      	add	sp, #12
     7d6:	bc0c      	pop	{r2, r3}
     7d8:	4690      	mov	r8, r2
     7da:	4699      	mov	r9, r3
     7dc:	bdf0      	pop	{r4, r5, r6, r7, pc}
     7de:	46c0      	nop			; (mov r8, r8)
     7e0:	41004400 	.word	0x41004400
     7e4:	000009c9 	.word	0x000009c9
     7e8:	0001869f 	.word	0x0001869f

000007ec <SalGclkInit>:
#include <SaLClocks.h>


void SalGclkInit() {

    SYSCTRL->INTFLAG.reg = SYSCTRL_INTFLAG_BOD33RDY | SYSCTRL_INTFLAG_BOD33DET |
     7ec:	4a1e      	ldr	r2, [pc, #120]	; (868 <SalGclkInit+0x7c>)
     7ee:	23c2      	movs	r3, #194	; 0xc2
     7f0:	00db      	lsls	r3, r3, #3
     7f2:	6093      	str	r3, [r2, #8]
                           SYSCTRL_INTFLAG_DFLLRDY;
    NVMCTRL->CTRLB.reg |= NVMCTRL_CTRLB_RWS_HALF;
     7f4:	491d      	ldr	r1, [pc, #116]	; (86c <SalGclkInit+0x80>)
     7f6:	6848      	ldr	r0, [r1, #4]
     7f8:	2302      	movs	r3, #2
     7fa:	4303      	orrs	r3, r0
     7fc:	604b      	str	r3, [r1, #4]

// start and enable external 32k crystal
    SYSCTRL->XOSC32K.reg = SYSCTRL_XOSC32K_ENABLE |
     7fe:	4b1c      	ldr	r3, [pc, #112]	; (870 <SalGclkInit+0x84>)
     800:	8293      	strh	r3, [r2, #20]
                           SYSCTRL_XOSC32K_XTALEN |
                           SYSCTRL_XOSC32K_EN32K |
                           ( 6 << SYSCTRL_XOSC32K_STARTUP_Pos);

//wait for crystal to warm up
    while((SYSCTRL->PCLKSR.reg & (SYSCTRL_PCLKSR_XOSC32KRDY)) == 0);
     802:	1c11      	adds	r1, r2, #0
     804:	2202      	movs	r2, #2
     806:	68cb      	ldr	r3, [r1, #12]
     808:	421a      	tst	r2, r3
     80a:	d0fc      	beq.n	806 <SalGclkInit+0x1a>

//config xosc32k for the dfll via gen1
    GCLK->GENDIV.reg =  GCLK_GENDIV_ID(1) |
     80c:	4b19      	ldr	r3, [pc, #100]	; (874 <SalGclkInit+0x88>)
     80e:	2202      	movs	r2, #2
     810:	32ff      	adds	r2, #255	; 0xff
     812:	609a      	str	r2, [r3, #8]
                        GCLK_GENDIV_DIV(1);
    GCLK->GENCTRL.reg = GCLK_GENCTRL_ID(1) |
     814:	4918      	ldr	r1, [pc, #96]	; (878 <SalGclkInit+0x8c>)
     816:	6059      	str	r1, [r3, #4]
                        GCLK_GENCTRL_SRC_XOSC32K |
                        GCLK_GENCTRL_GENEN;
    GCLK->CLKCTRL.reg = GCLK_CLKCTRL_GEN(1) |
     818:	2182      	movs	r1, #130	; 0x82
     81a:	01c9      	lsls	r1, r1, #7
     81c:	8059      	strh	r1, [r3, #2]
                        GCLK_CLKCTRL_CLKEN |
                        GCLK_CLKCTRL_ID_DFLL48;

    GCLK->GENDIV.reg =  GCLK_GENDIV_ID(2) |
     81e:	2181      	movs	r1, #129	; 0x81
     820:	0049      	lsls	r1, r1, #1
     822:	6099      	str	r1, [r3, #8]
                        GCLK_GENDIV_DIV(1);
    GCLK->GENCTRL.reg = GCLK_GENCTRL_ID(2) |
     824:	4915      	ldr	r1, [pc, #84]	; (87c <SalGclkInit+0x90>)
     826:	6059      	str	r1, [r3, #4]
                        GCLK_GENCTRL_SRC_OSC32K |
                        GCLK_GENCTRL_GENEN;
    GCLK->CLKCTRL.reg = GCLK_CLKCTRL_GEN(2) |
     828:	4915      	ldr	r1, [pc, #84]	; (880 <SalGclkInit+0x94>)
     82a:	8059      	strh	r1, [r3, #2]
                   & ((1 << NVM_DFLL_FINE_SIZE) - 1);
    if (fine == 0x3ff) {
        fine = 0x1ff;
    }
//For generic clock generator 0, select the DFLL48 Clock as input
    GCLK->GENDIV.reg  = (GCLK_GENDIV_DIV(1)  | GCLK_GENDIV_ID(1));
     82c:	609a      	str	r2, [r3, #8]
    GCLK->GENCTRL.reg = (GCLK_GENCTRL_ID(0)  | (GCLK_GENCTRL_SRC_DFLL48M) | (GCLK_GENCTRL_GENEN));
     82e:	4a15      	ldr	r2, [pc, #84]	; (884 <SalGclkInit+0x98>)
     830:	605a      	str	r2, [r3, #4]
    GCLK->CLKCTRL.reg = (GCLK_CLKCTRL_GEN(0) | GCLK_CLKCTRL_CLKEN ) ;
     832:	2280      	movs	r2, #128	; 0x80
     834:	01d2      	lsls	r2, r2, #7
     836:	805a      	strh	r2, [r3, #2]

    SYSCTRL->DFLLCTRL.reg = (SYSCTRL_DFLLCTRL_MODE) |
     838:	4b0b      	ldr	r3, [pc, #44]	; (868 <SalGclkInit+0x7c>)
     83a:	2226      	movs	r2, #38	; 0x26
     83c:	849a      	strh	r2, [r3, #36]	; 0x24
                             SYSCTRL_DFLLCTRL_USBCRM |
                             SYSCTRL_DFLLCTRL_ENABLE;

    SYSCTRL->DFLLMUL.reg = (SYSCTRL_DFLLMUL_CSTEP(1) | SYSCTRL_DFLLMUL_FSTEP(1));
     83e:	4a12      	ldr	r2, [pc, #72]	; (888 <SalGclkInit+0x9c>)
     840:	62da      	str	r2, [r3, #44]	; 0x2c
    SYSCTRL->DFLLMUL.reg |= (SYSCTRL_DFLLMUL_MUL(48000000/32768));
     842:	6ada      	ldr	r2, [r3, #44]	; 0x2c
     844:	21b7      	movs	r1, #183	; 0xb7
     846:	00c9      	lsls	r1, r1, #3
     848:	430a      	orrs	r2, r1
     84a:	62da      	str	r2, [r3, #44]	; 0x2c

//Wait and see if the DFLL output is good . . .
    while((SYSCTRL->PCLKSR.reg & (SYSCTRL_PCLKSR_DFLLRDY)) == 0);
     84c:	1c19      	adds	r1, r3, #0
     84e:	2210      	movs	r2, #16
     850:	68cb      	ldr	r3, [r1, #12]
     852:	421a      	tst	r2, r3
     854:	d0fc      	beq.n	850 <SalGclkInit+0x64>


    GCLK->GENDIV.reg =  GCLK_GENDIV_ID(4) |
     856:	4b07      	ldr	r3, [pc, #28]	; (874 <SalGclkInit+0x88>)
     858:	2282      	movs	r2, #130	; 0x82
     85a:	0052      	lsls	r2, r2, #1
     85c:	609a      	str	r2, [r3, #8]
                        GCLK_GENDIV_DIV(1);
    GCLK->GENCTRL.reg = GCLK_GENCTRL_ID(4) |
     85e:	4a0b      	ldr	r2, [pc, #44]	; (88c <SalGclkInit+0xa0>)
     860:	605a      	str	r2, [r3, #4]
                        GCLK_GENCTRL_SRC_OSC8M |
                        GCLK_GENCTRL_IDC |
                        GCLK_GENCTRL_RUNSTDBY |
                        GCLK_GENCTRL_GENEN;
    GCLK->CLKCTRL.reg = GCLK_CLKCTRL_ID_TC4_TC5 |
     862:	4a0b      	ldr	r2, [pc, #44]	; (890 <SalGclkInit+0xa4>)
     864:	805a      	strh	r2, [r3, #2]
                        GCLK_CLKCTRL_GEN_GCLK4 |
                        GCLK_CLKCTRL_CLKEN;

}
     866:	4770      	bx	lr
     868:	40000800 	.word	0x40000800
     86c:	41004000 	.word	0x41004000
     870:	0000060e 	.word	0x0000060e
     874:	40000c00 	.word	0x40000c00
     878:	00010501 	.word	0x00010501
     87c:	00010402 	.word	0x00010402
     880:	0000421b 	.word	0x0000421b
     884:	00010700 	.word	0x00010700
     888:	04010000 	.word	0x04010000
     88c:	00230604 	.word	0x00230604
     890:	0000441c 	.word	0x0000441c

00000894 <SaLTC4Init>:

void SaLTC4Init() {

    PM->APBCMASK.reg |= PM_APBCMASK_TC4;
     894:	4a0a      	ldr	r2, [pc, #40]	; (8c0 <SaLTC4Init+0x2c>)
     896:	6a13      	ldr	r3, [r2, #32]
     898:	2180      	movs	r1, #128	; 0x80
     89a:	0149      	lsls	r1, r1, #5
     89c:	430b      	orrs	r3, r1
     89e:	6213      	str	r3, [r2, #32]

    TC4->COUNT16.CTRLA.reg = TC_CTRLA_MODE_COUNT16 |
     8a0:	4b08      	ldr	r3, [pc, #32]	; (8c4 <SaLTC4Init+0x30>)
     8a2:	22b0      	movs	r2, #176	; 0xb0
     8a4:	0112      	lsls	r2, r2, #4
     8a6:	801a      	strh	r2, [r3, #0]
                             TC_CTRLA_RUNSTDBY |
                             TC_CTRLA_PRESCALER_DIV8;
    //  TC3->COUNT16.PER.reg = 0xFE;

    TC4->COUNT16.INTENSET.reg = TC_INTENSET_OVF;
     8a8:	2201      	movs	r2, #1
     8aa:	735a      	strb	r2, [r3, #13]

    TC4->COUNT16.CTRLA.reg |= TC_CTRLA_ENABLE;
     8ac:	8819      	ldrh	r1, [r3, #0]
     8ae:	3201      	adds	r2, #1
     8b0:	430a      	orrs	r2, r1
     8b2:	801a      	strh	r2, [r3, #0]

    \param [in]      IRQn  External interrupt number. Value cannot be negative.
 */
__STATIC_INLINE void NVIC_EnableIRQ(IRQn_Type IRQn)
{
  NVIC->ISER[0] = (1 << ((uint32_t)(IRQn) & 0x1F));
     8b4:	2280      	movs	r2, #128	; 0x80
     8b6:	0312      	lsls	r2, r2, #12
     8b8:	4b03      	ldr	r3, [pc, #12]	; (8c8 <SaLTC4Init+0x34>)
     8ba:	601a      	str	r2, [r3, #0]

    NVIC_EnableIRQ(TC4_IRQn);
}
     8bc:	4770      	bx	lr
     8be:	46c0      	nop			; (mov r8, r8)
     8c0:	40000400 	.word	0x40000400
     8c4:	42003000 	.word	0x42003000
     8c8:	e000e100 	.word	0xe000e100

000008cc <SaLRtcInit>:
// }



void SaLRtcInit() {
    GCLK->GENDIV.reg = GCLK_GENDIV_ID(2) | GCLK_GENDIV_DIV(1);
     8cc:	4b19      	ldr	r3, [pc, #100]	; (934 <SaLRtcInit+0x68>)
     8ce:	2281      	movs	r2, #129	; 0x81
     8d0:	0052      	lsls	r2, r2, #1
     8d2:	609a      	str	r2, [r3, #8]

    GCLK->GENCTRL.reg = GCLK_GENCTRL_ID(2) |
     8d4:	4a18      	ldr	r2, [pc, #96]	; (938 <SaLRtcInit+0x6c>)
     8d6:	605a      	str	r2, [r3, #4]
                        GCLK_GENCTRL_SRC(GCLK_GENCTRL_SRC_XOSC32K) |
                        GCLK_GENCTRL_IDC |
                        GCLK_GENCTRL_RUNSTDBY |
                        GCLK_GENCTRL_GENEN;
    while (GCLK->STATUS.reg & GCLK_STATUS_SYNCBUSY);
     8d8:	1c1a      	adds	r2, r3, #0
     8da:	7853      	ldrb	r3, [r2, #1]
     8dc:	b25b      	sxtb	r3, r3
     8de:	2b00      	cmp	r3, #0
     8e0:	dbfb      	blt.n	8da <SaLRtcInit+0xe>

// Configure RTC
    GCLK->CLKCTRL.reg = GCLK_CLKCTRL_ID(RTC_GCLK_ID) |
     8e2:	4a16      	ldr	r2, [pc, #88]	; (93c <SaLRtcInit+0x70>)
     8e4:	4b13      	ldr	r3, [pc, #76]	; (934 <SaLRtcInit+0x68>)
     8e6:	805a      	strh	r2, [r3, #2]
                        GCLK_CLKCTRL_CLKEN |
                        GCLK_CLKCTRL_GEN(2);

    RTC->MODE1.CTRL.reg = RTC_MODE1_CTRL_MODE_COUNT16 |
     8e8:	2204      	movs	r2, #4
     8ea:	4b15      	ldr	r3, [pc, #84]	; (940 <SaLRtcInit+0x74>)
     8ec:	801a      	strh	r2, [r3, #0]
                          RTC_MODE1_CTRL_PRESCALER_DIV1;
    while (RTC->MODE1.STATUS.bit.SYNCBUSY);
     8ee:	1c1a      	adds	r2, r3, #0
     8f0:	7a93      	ldrb	r3, [r2, #10]
     8f2:	09db      	lsrs	r3, r3, #7
     8f4:	d1fc      	bne.n	8f0 <SaLRtcInit+0x24>

// Prescaler needs to be enabled separately from the mode for some reason
//  RTC->MODE1.CTRL.reg |= RTC_MODE1_CTRL_PRESCALER_DIV1;
    while (RTC->MODE1.STATUS.bit.SYNCBUSY);
     8f6:	4a12      	ldr	r2, [pc, #72]	; (940 <SaLRtcInit+0x74>)
     8f8:	7a93      	ldrb	r3, [r2, #10]
     8fa:	09db      	lsrs	r3, r3, #7
     8fc:	d1fc      	bne.n	8f8 <SaLRtcInit+0x2c>

    RTC->MODE1.PER.reg = 998;
     8fe:	4a11      	ldr	r2, [pc, #68]	; (944 <SaLRtcInit+0x78>)
     900:	4b0f      	ldr	r3, [pc, #60]	; (940 <SaLRtcInit+0x74>)
     902:	829a      	strh	r2, [r3, #20]
    while (RTC->MODE1.STATUS.bit.SYNCBUSY);
     904:	1c1a      	adds	r2, r3, #0
     906:	7a93      	ldrb	r3, [r2, #10]
     908:	09db      	lsrs	r3, r3, #7
     90a:	d1fc      	bne.n	906 <SaLRtcInit+0x3a>

    RTC->MODE1.READREQ.reg |= RTC_READREQ_RCONT | RTC_READREQ_ADDR(0x10);
     90c:	4b0c      	ldr	r3, [pc, #48]	; (940 <SaLRtcInit+0x74>)
     90e:	8859      	ldrh	r1, [r3, #2]
     910:	4a0d      	ldr	r2, [pc, #52]	; (948 <SaLRtcInit+0x7c>)
     912:	430a      	orrs	r2, r1
     914:	805a      	strh	r2, [r3, #2]

    RTC->MODE1.INTENSET.reg = RTC_MODE1_INTENSET_OVF;
     916:	2280      	movs	r2, #128	; 0x80
     918:	71da      	strb	r2, [r3, #7]

    RTC->MODE1.CTRL.bit.ENABLE = 1;
     91a:	8819      	ldrh	r1, [r3, #0]
     91c:	2202      	movs	r2, #2
     91e:	430a      	orrs	r2, r1
     920:	801a      	strh	r2, [r3, #0]
    while (RTC->MODE1.STATUS.bit.SYNCBUSY);
     922:	1c1a      	adds	r2, r3, #0
     924:	7a93      	ldrb	r3, [r2, #10]
     926:	09db      	lsrs	r3, r3, #7
     928:	d1fc      	bne.n	924 <SaLRtcInit+0x58>
     92a:	2208      	movs	r2, #8
     92c:	4b07      	ldr	r3, [pc, #28]	; (94c <SaLRtcInit+0x80>)
     92e:	601a      	str	r2, [r3, #0]

    NVIC_EnableIRQ(RTC_IRQn);
}
     930:	4770      	bx	lr
     932:	46c0      	nop			; (mov r8, r8)
     934:	40000c00 	.word	0x40000c00
     938:	00230002 	.word	0x00230002
     93c:	00004204 	.word	0x00004204
     940:	40001400 	.word	0x40001400
     944:	000003e6 	.word	0x000003e6
     948:	00004010 	.word	0x00004010
     94c:	e000e100 	.word	0xe000e100

00000950 <RTC_Handler>:

volatile uint32_t time_ms = 0;

void RTC_Handler(void) {
    time_ms += 1000;
     950:	4a05      	ldr	r2, [pc, #20]	; (968 <RTC_Handler+0x18>)
     952:	6813      	ldr	r3, [r2, #0]
     954:	21fa      	movs	r1, #250	; 0xfa
     956:	0089      	lsls	r1, r1, #2
     958:	468c      	mov	ip, r1
     95a:	4463      	add	r3, ip
     95c:	6013      	str	r3, [r2, #0]
    RTC->MODE1.INTFLAG.reg = 0xFF;
     95e:	22ff      	movs	r2, #255	; 0xff
     960:	4b02      	ldr	r3, [pc, #8]	; (96c <RTC_Handler+0x1c>)
     962:	721a      	strb	r2, [r3, #8]
}
     964:	4770      	bx	lr
     966:	46c0      	nop			; (mov r8, r8)
     968:	20000028 	.word	0x20000028
     96c:	40001400 	.word	0x40001400

00000970 <millis>:

uint32_t millis(void) {
    uint32_t ms;
    ATOMIC_SECTION_ENTER
     970:	f3ef 8110 	mrs	r1, PRIMASK
     974:	b672      	cpsid	i
    ms = time_ms + RTC->MODE1.COUNT.reg;
     976:	4a0b      	ldr	r2, [pc, #44]	; (9a4 <millis+0x34>)
     978:	8a10      	ldrh	r0, [r2, #16]
     97a:	b280      	uxth	r0, r0
     97c:	4b0a      	ldr	r3, [pc, #40]	; (9a8 <millis+0x38>)
     97e:	681b      	ldr	r3, [r3, #0]
    if (RTC->MODE1.INTFLAG.bit.OVF)
     980:	7a12      	ldrb	r2, [r2, #8]
     982:	09d2      	lsrs	r2, r2, #7
}

uint32_t millis(void) {
    uint32_t ms;
    ATOMIC_SECTION_ENTER
    ms = time_ms + RTC->MODE1.COUNT.reg;
     984:	18c0      	adds	r0, r0, r3
    if (RTC->MODE1.INTFLAG.bit.OVF)
     986:	2a00      	cmp	r2, #0
     988:	d008      	beq.n	99c <millis+0x2c>
        ms = time_ms + RTC->MODE1.COUNT.reg + 1000;
     98a:	4b06      	ldr	r3, [pc, #24]	; (9a4 <millis+0x34>)
     98c:	8a1b      	ldrh	r3, [r3, #16]
     98e:	4a06      	ldr	r2, [pc, #24]	; (9a8 <millis+0x38>)
     990:	6810      	ldr	r0, [r2, #0]
     992:	22fa      	movs	r2, #250	; 0xfa
     994:	0092      	lsls	r2, r2, #2
     996:	4694      	mov	ip, r2
     998:	4460      	add	r0, ip
     99a:	1818      	adds	r0, r3, r0
    ATOMIC_SECTION_LEAVE
     99c:	f381 8810 	msr	PRIMASK, r1
    return ms;
}
     9a0:	4770      	bx	lr
     9a2:	46c0      	nop			; (mov r8, r8)
     9a4:	40001400 	.word	0x40001400
     9a8:	20000028 	.word	0x20000028

000009ac <SaLDelayInit>:
static uint32_t cycles_per_ms = 48000000UL / 1000;
static uint32_t cycles_per_us = 48000000UL / 1000000;

void SaLDelayInit(void) {
    cycles_per_ms = 32000000UL;
    cycles_per_ms /= 1000;
     9ac:	4b04      	ldr	r3, [pc, #16]	; (9c0 <SaLDelayInit+0x14>)
     9ae:	22fa      	movs	r2, #250	; 0xfa
     9b0:	01d2      	lsls	r2, r2, #7
     9b2:	601a      	str	r2, [r3, #0]
    cycles_per_us = cycles_per_ms / 1000;
     9b4:	2220      	movs	r2, #32
     9b6:	605a      	str	r2, [r3, #4]

    SysTick->CTRL = SysTick_CTRL_CLKSOURCE_Msk | SysTick_CTRL_ENABLE_Msk;
     9b8:	3a1b      	subs	r2, #27
     9ba:	4b02      	ldr	r3, [pc, #8]	; (9c4 <SaLDelayInit+0x18>)
     9bc:	601a      	str	r2, [r3, #0]
}
     9be:	4770      	bx	lr
     9c0:	20000000 	.word	0x20000000
     9c4:	e000e010 	.word	0xe000e010

000009c8 <delay_us>:
 * \brief Delay loop to delay at least n number of microseconds
 *
 * \param n  Number of microseconds to wait
 */
void delay_us(
    uint32_t n) {
     9c8:	b530      	push	{r4, r5, lr}
    while (n--) {
        /* Devide up to blocks of 10u */
        delay_cycles(cycles_per_us);
     9ca:	4b08      	ldr	r3, [pc, #32]	; (9ec <delay_us+0x24>)
     9cc:	685c      	ldr	r4, [r3, #4]
void SaLDelayInit(void);

static inline void delay_cycles(
    const uint32_t n) {
    if (n > 0) {
        SysTick->LOAD = n;
     9ce:	4a08      	ldr	r2, [pc, #32]	; (9f0 <delay_us+0x28>)
        SysTick->VAL = 0;
     9d0:	2500      	movs	r5, #0

        while (!(SysTick->CTRL & SysTick_CTRL_COUNTFLAG_Msk)) {
     9d2:	2180      	movs	r1, #128	; 0x80
     9d4:	0249      	lsls	r1, r1, #9
 *
 * \param n  Number of microseconds to wait
 */
void delay_us(
    uint32_t n) {
    while (n--) {
     9d6:	e006      	b.n	9e6 <delay_us+0x1e>

void SaLDelayInit(void);

static inline void delay_cycles(
    const uint32_t n) {
    if (n > 0) {
     9d8:	2c00      	cmp	r4, #0
     9da:	d004      	beq.n	9e6 <delay_us+0x1e>
        SysTick->LOAD = n;
     9dc:	6054      	str	r4, [r2, #4]
        SysTick->VAL = 0;
     9de:	6095      	str	r5, [r2, #8]

        while (!(SysTick->CTRL & SysTick_CTRL_COUNTFLAG_Msk)) {
     9e0:	6813      	ldr	r3, [r2, #0]
     9e2:	420b      	tst	r3, r1
     9e4:	d0fc      	beq.n	9e0 <delay_us+0x18>
     9e6:	3801      	subs	r0, #1
     9e8:	d2f6      	bcs.n	9d8 <delay_us+0x10>
        /* Devide up to blocks of 10u */
        delay_cycles(cycles_per_us);
    }
}
     9ea:	bd30      	pop	{r4, r5, pc}
     9ec:	20000000 	.word	0x20000000
     9f0:	e000e010 	.word	0xe000e010

000009f4 <SaLFlashMemInit>:

#endif



     9f4:	4770      	bx	lr
     9f6:	46c0      	nop			; (mov r8, r8)

000009f8 <SaLPinMode>:


#include <SaLPort.h>

void SaLPinMode(uint8_t pin,uint8_t DIR) {
     9f8:	b510      	push	{r4, lr}
    uint8_t port_index  = (gpio_pin / 128);
    uint8_t group_index = (gpio_pin / 32);
    /* Array of available ports */
    Port *const ports[PORT_INST_NUM] = PORT_INSTS;

    if (port_index < PORT_INST_NUM) {
     9fa:	09c2      	lsrs	r2, r0, #7
        return &(ports[port_index]->Group[group_index]);
    } else {
        return NULL;
     9fc:	2300      	movs	r3, #0
    uint8_t port_index  = (gpio_pin / 128);
    uint8_t group_index = (gpio_pin / 32);
    /* Array of available ports */
    Port *const ports[PORT_INST_NUM] = PORT_INSTS;

    if (port_index < PORT_INST_NUM) {
     9fe:	2a00      	cmp	r2, #0
     a00:	d104      	bne.n	a0c <SaLPinMode+0x14>
        return &(ports[port_index]->Group[group_index]);
     a02:	0943      	lsrs	r3, r0, #5
     a04:	01db      	lsls	r3, r3, #7
     a06:	4a11      	ldr	r2, [pc, #68]	; (a4c <SaLPinMode+0x54>)
     a08:	4694      	mov	ip, r2
     a0a:	4463      	add	r3, ip
    PortGroup *const port = SaLGetPort(pin);
    uint32_t pin_mask = (1UL << (pin % 32));
     a0c:	221f      	movs	r2, #31
     a0e:	4002      	ands	r2, r0
     a10:	2401      	movs	r4, #1
     a12:	4094      	lsls	r4, r2

    if ( DIR == OUTPUT) {
     a14:	2901      	cmp	r1, #1
     a16:	d105      	bne.n	a24 <SaLPinMode+0x2c>
        port->DIRSET.reg = pin_mask;
     a18:	609c      	str	r4, [r3, #8]
        port->PINCFG[pin].reg = 0;
     a1a:	1818      	adds	r0, r3, r0
     a1c:	3040      	adds	r0, #64	; 0x40
     a1e:	2300      	movs	r3, #0
     a20:	7003      	strb	r3, [r0, #0]
     a22:	e012      	b.n	a4a <SaLPinMode+0x52>

    } else if(DIR == INPUT) {
     a24:	2900      	cmp	r1, #0
     a26:	d109      	bne.n	a3c <SaLPinMode+0x44>
        port->DIRCLR.reg = pin_mask;
     a28:	605c      	str	r4, [r3, #4]
        port->PINCFG[pin].reg = PORT_PINCFG_INEN;
     a2a:	1818      	adds	r0, r3, r0
     a2c:	3040      	adds	r0, #64	; 0x40
     a2e:	2302      	movs	r3, #2
     a30:	7003      	strb	r3, [r0, #0]
        port->PINCFG[pin].reg |= PORT_PINCFG_PULLEN;
     a32:	7802      	ldrb	r2, [r0, #0]
     a34:	3302      	adds	r3, #2
     a36:	4313      	orrs	r3, r2
     a38:	7003      	strb	r3, [r0, #0]
     a3a:	e006      	b.n	a4a <SaLPinMode+0x52>
    } else if (DIR == OUTSTRONG) {
     a3c:	2903      	cmp	r1, #3
     a3e:	d104      	bne.n	a4a <SaLPinMode+0x52>
        port->DIRSET.reg = pin_mask;
     a40:	609c      	str	r4, [r3, #8]
        port->PINCFG[pin].reg = 0x40;
     a42:	1818      	adds	r0, r3, r0
     a44:	3040      	adds	r0, #64	; 0x40
     a46:	2340      	movs	r3, #64	; 0x40
     a48:	7003      	strb	r3, [r0, #0]

    }
     a4a:	bd10      	pop	{r4, pc}
     a4c:	41004400 	.word	0x41004400

00000a50 <sampleTick>:
int16_t index222 = 0;
uint16_t thisTime;
uint16_t lastTime;
uint16_t deltatt;

void sampleTick() {
     a50:	b570      	push	{r4, r5, r6, lr}

    if (!baroSampleReady) baroSampleReady = baroSample();
     a52:	4b31      	ldr	r3, [pc, #196]	; (b18 <sampleTick+0xc8>)
     a54:	781b      	ldrb	r3, [r3, #0]
     a56:	2b00      	cmp	r3, #0
     a58:	d157      	bne.n	b0a <sampleTick+0xba>
     a5a:	4b30      	ldr	r3, [pc, #192]	; (b1c <sampleTick+0xcc>)
     a5c:	4798      	blx	r3
     a5e:	4b2e      	ldr	r3, [pc, #184]	; (b18 <sampleTick+0xc8>)
     a60:	7018      	strb	r0, [r3, #0]
    if (!accelSampleReady) accelSampleReady = accelSample();
     a62:	4b2f      	ldr	r3, [pc, #188]	; (b20 <sampleTick+0xd0>)
     a64:	781b      	ldrb	r3, [r3, #0]
     a66:	2b00      	cmp	r3, #0
     a68:	d14a      	bne.n	b00 <sampleTick+0xb0>
     a6a:	4b2e      	ldr	r3, [pc, #184]	; (b24 <sampleTick+0xd4>)
     a6c:	4798      	blx	r3
     a6e:	4a2c      	ldr	r2, [pc, #176]	; (b20 <sampleTick+0xd0>)
     a70:	7010      	strb	r0, [r2, #0]


    if (baroSampleReady && accelSampleReady) {
     a72:	4a29      	ldr	r2, [pc, #164]	; (b18 <sampleTick+0xc8>)
     a74:	7812      	ldrb	r2, [r2, #0]
     a76:	2a00      	cmp	r2, #0
     a78:	d04c      	beq.n	b14 <sampleTick+0xc4>
     a7a:	2800      	cmp	r0, #0
     a7c:	d04a      	beq.n	b14 <sampleTick+0xc4>

        sampleBeingCooked.sampleMills = millis();
     a7e:	4b2a      	ldr	r3, [pc, #168]	; (b28 <sampleTick+0xd8>)
     a80:	4798      	blx	r3
     a82:	4d2a      	ldr	r5, [pc, #168]	; (b2c <sampleTick+0xdc>)
     a84:	62a8      	str	r0, [r5, #40]	; 0x28
        sampleBeingCooked.deltaT = sampleBeingCooked.sampleMills - cookedSample.sampleMills;
     a86:	4e2a      	ldr	r6, [pc, #168]	; (b30 <sampleTick+0xe0>)
     a88:	6ab3      	ldr	r3, [r6, #40]	; 0x28
     a8a:	1ac0      	subs	r0, r0, r3
     a8c:	62e8      	str	r0, [r5, #44]	; 0x2c
        sampleBeingCooked.altitude = SaLBaroGetHeight();
     a8e:	4c29      	ldr	r4, [pc, #164]	; (b34 <sampleTick+0xe4>)
     a90:	47a0      	blx	r4
     a92:	6068      	str	r0, [r5, #4]
        sampleBeingCooked.accelerationInX = SaLGetAccelX();
     a94:	4b28      	ldr	r3, [pc, #160]	; (b38 <sampleTick+0xe8>)
     a96:	4798      	blx	r3
     a98:	60e8      	str	r0, [r5, #12]
        sampleBeingCooked.accelerationInY = SaLGetAccelY();
     a9a:	4b28      	ldr	r3, [pc, #160]	; (b3c <sampleTick+0xec>)
     a9c:	4798      	blx	r3
     a9e:	6128      	str	r0, [r5, #16]
        sampleBeingCooked.accelerationInZ = SaLGetAccelZ();
     aa0:	4b27      	ldr	r3, [pc, #156]	; (b40 <sampleTick+0xf0>)
     aa2:	4798      	blx	r3
     aa4:	6168      	str	r0, [r5, #20]
        sampleBeingCooked.position = SaLBaroGetHeight();
     aa6:	47a0      	blx	r4
     aa8:	63a8      	str	r0, [r5, #56]	; 0x38

        //  sampleBeingCooked.velocityStar = cookedSample.positionStar + sampleBeingCooked.accelerationInX*sampleBeingCooked.deltaT;
        //  sampleBeingCooked.positionStar = cookedSample.position +
        //                                 cookedSample.velocityStar * sampleBeingCooked.deltaT +
        //                                   sampleBeingCooked.accelerationInZ *  (pow(sampleBeingCooked.deltaT,2)/2);
        index222++;
     aaa:	4b26      	ldr	r3, [pc, #152]	; (b44 <sampleTick+0xf4>)
     aac:	881c      	ldrh	r4, [r3, #0]
     aae:	3401      	adds	r4, #1
     ab0:	b2a4      	uxth	r4, r4
     ab2:	801c      	strh	r4, [r3, #0]

        baroSampleState = 0;
     ab4:	2300      	movs	r3, #0
     ab6:	4a24      	ldr	r2, [pc, #144]	; (b48 <sampleTick+0xf8>)
     ab8:	7013      	strb	r3, [r2, #0]
        accelSampleState = 0;
     aba:	4a24      	ldr	r2, [pc, #144]	; (b4c <sampleTick+0xfc>)
     abc:	7013      	strb	r3, [r2, #0]
        baroSampleReady = false;
     abe:	4a16      	ldr	r2, [pc, #88]	; (b18 <sampleTick+0xc8>)
     ac0:	7013      	strb	r3, [r2, #0]
        accelSampleReady = false;
     ac2:	4a17      	ldr	r2, [pc, #92]	; (b20 <sampleTick+0xd0>)
     ac4:	7013      	strb	r3, [r2, #0]
        cookedSample = sampleBeingCooked;
     ac6:	1c30      	adds	r0, r6, #0
     ac8:	1c29      	adds	r1, r5, #0
     aca:	2240      	movs	r2, #64	; 0x40
     acc:	4b20      	ldr	r3, [pc, #128]	; (b50 <sampleTick+0x100>)
     ace:	4798      	blx	r3


        if (index222 > 5000) {
     ad0:	b224      	sxth	r4, r4
     ad2:	4b20      	ldr	r3, [pc, #128]	; (b54 <sampleTick+0x104>)
     ad4:	429c      	cmp	r4, r3
     ad6:	dd1d      	ble.n	b14 <sampleTick+0xc4>
            index222 = 0;
     ad8:	2200      	movs	r2, #0
     ada:	4b1a      	ldr	r3, [pc, #104]	; (b44 <sampleTick+0xf4>)
     adc:	801a      	strh	r2, [r3, #0]
            thisTime = millis();
     ade:	4d12      	ldr	r5, [pc, #72]	; (b28 <sampleTick+0xd8>)
     ae0:	47a8      	blx	r5
     ae2:	b280      	uxth	r0, r0
     ae4:	4b1c      	ldr	r3, [pc, #112]	; (b58 <sampleTick+0x108>)
     ae6:	8018      	strh	r0, [r3, #0]
            deltatt = thisTime - lastTime;
     ae8:	4c1c      	ldr	r4, [pc, #112]	; (b5c <sampleTick+0x10c>)
     aea:	8823      	ldrh	r3, [r4, #0]
     aec:	1ac0      	subs	r0, r0, r3
     aee:	4b1c      	ldr	r3, [pc, #112]	; (b60 <sampleTick+0x110>)
     af0:	8018      	strh	r0, [r3, #0]
            lastTime = millis();
     af2:	47a8      	blx	r5
     af4:	8020      	strh	r0, [r4, #0]
			            SaLPlayTone(400);
     af6:	20c8      	movs	r0, #200	; 0xc8
     af8:	0040      	lsls	r0, r0, #1
     afa:	4b1a      	ldr	r3, [pc, #104]	; (b64 <sampleTick+0x114>)
     afc:	4798      	blx	r3
     afe:	e009      	b.n	b14 <sampleTick+0xc4>

    if (!baroSampleReady) baroSampleReady = baroSample();
    if (!accelSampleReady) accelSampleReady = accelSample();


    if (baroSampleReady && accelSampleReady) {
     b00:	4b05      	ldr	r3, [pc, #20]	; (b18 <sampleTick+0xc8>)
     b02:	781b      	ldrb	r3, [r3, #0]
     b04:	2b00      	cmp	r3, #0
     b06:	d1ba      	bne.n	a7e <sampleTick+0x2e>
     b08:	e004      	b.n	b14 <sampleTick+0xc4>
uint16_t deltatt;

void sampleTick() {

    if (!baroSampleReady) baroSampleReady = baroSample();
    if (!accelSampleReady) accelSampleReady = accelSample();
     b0a:	4b05      	ldr	r3, [pc, #20]	; (b20 <sampleTick+0xd0>)
     b0c:	781b      	ldrb	r3, [r3, #0]
     b0e:	2b00      	cmp	r3, #0
     b10:	d1b5      	bne.n	a7e <sampleTick+0x2e>
     b12:	e7aa      	b.n	a6a <sampleTick+0x1a>
            lastTime = millis();
			            SaLPlayTone(400);

        }
    }
}
     b14:	bd70      	pop	{r4, r5, r6, pc}
     b16:	46c0      	nop			; (mov r8, r8)
     b18:	200000ca 	.word	0x200000ca
     b1c:	000005a9 	.word	0x000005a9
     b20:	200000c9 	.word	0x200000c9
     b24:	000002f5 	.word	0x000002f5
     b28:	00000971 	.word	0x00000971
     b2c:	20000088 	.word	0x20000088
     b30:	200000d4 	.word	0x200000d4
     b34:	000006d5 	.word	0x000006d5
     b38:	000004fd 	.word	0x000004fd
     b3c:	00000509 	.word	0x00000509
     b40:	00000515 	.word	0x00000515
     b44:	2000002c 	.word	0x2000002c
     b48:	20000078 	.word	0x20000078
     b4c:	20000062 	.word	0x20000062
     b50:	00000fd9 	.word	0x00000fd9
     b54:	00001388 	.word	0x00001388
     b58:	200000d2 	.word	0x200000d2
     b5c:	200000d0 	.word	0x200000d0
     b60:	20000084 	.word	0x20000084
     b64:	0000079d 	.word	0x0000079d

00000b68 <sampleInit>:

void sampleInit() {
     b68:	b508      	push	{r3, lr}

    baroSampleReady = false;
     b6a:	2300      	movs	r3, #0
     b6c:	4a05      	ldr	r2, [pc, #20]	; (b84 <sampleInit+0x1c>)
     b6e:	7013      	strb	r3, [r2, #0]
    accelSampleReady = false;
     b70:	4a05      	ldr	r2, [pc, #20]	; (b88 <sampleInit+0x20>)
     b72:	7013      	strb	r3, [r2, #0]
    gpsSampleReady = false;
     b74:	4a05      	ldr	r2, [pc, #20]	; (b8c <sampleInit+0x24>)
     b76:	7013      	strb	r3, [r2, #0]
    cookedSample.sampleMills = millis();
     b78:	4b05      	ldr	r3, [pc, #20]	; (b90 <sampleInit+0x28>)
     b7a:	4798      	blx	r3
     b7c:	4b05      	ldr	r3, [pc, #20]	; (b94 <sampleInit+0x2c>)
     b7e:	6298      	str	r0, [r3, #40]	; 0x28
}
     b80:	bd08      	pop	{r3, pc}
     b82:	46c0      	nop			; (mov r8, r8)
     b84:	200000ca 	.word	0x200000ca
     b88:	200000c9 	.word	0x200000c9
     b8c:	200000c8 	.word	0x200000c8
     b90:	00000971 	.word	0x00000971
     b94:	200000d4 	.word	0x200000d4

00000b98 <uart_init>:


#include <SaLUSART.h>

void uart_init(uint32_t baud) {
     b98:	b510      	push	{r4, lr}

    uint32_t UART_CLKGEN_F = 8000000UL;
    uint64_t br = (uint64_t)65536 * (UART_CLKGEN_F - 16 * baud) / UART_CLKGEN_F;
     b9a:	0100      	lsls	r0, r0, #4
     b9c:	4b2d      	ldr	r3, [pc, #180]	; (c54 <uart_init+0xbc>)
     b9e:	1a18      	subs	r0, r3, r0
     ba0:	0c01      	lsrs	r1, r0, #16
     ba2:	0400      	lsls	r0, r0, #16
     ba4:	4a2b      	ldr	r2, [pc, #172]	; (c54 <uart_init+0xbc>)
     ba6:	2300      	movs	r3, #0
     ba8:	4c2b      	ldr	r4, [pc, #172]	; (c58 <uart_init+0xc0>)
     baa:	47a0      	blx	r4

    //enable GPS pins
    //  SaLPinMode(MTK3339_RX_PIN,INPUT);
    //  SaLPinMode(MTK3339_TX_PIN,OUTPUT);
    SYSCTRL->OSC8M.reg -= SYSCTRL_OSC8M_ENABLE;
     bac:	4b2b      	ldr	r3, [pc, #172]	; (c5c <uart_init+0xc4>)
     bae:	6a1a      	ldr	r2, [r3, #32]
     bb0:	3a02      	subs	r2, #2
     bb2:	621a      	str	r2, [r3, #32]
    SYSCTRL->OSC8M.reg -= SYSCTRL_OSC8M_PRESC_3;
     bb4:	6a1a      	ldr	r2, [r3, #32]
     bb6:	492a      	ldr	r1, [pc, #168]	; (c60 <uart_init+0xc8>)
     bb8:	468c      	mov	ip, r1
     bba:	4462      	add	r2, ip
     bbc:	621a      	str	r2, [r3, #32]
    SYSCTRL->OSC8M.reg |= SYSCTRL_OSC8M_ENABLE;
     bbe:	6a19      	ldr	r1, [r3, #32]
     bc0:	2202      	movs	r2, #2
     bc2:	430a      	orrs	r2, r1
     bc4:	621a      	str	r2, [r3, #32]

    //portB22->PINCFG->reg = 0x44;
    // portB23->PINCFG->reg = 0x44;

    // GPS pin configs
    ((Port *)PORT)->Group[1].PINCFG[22].reg = 0x41;
     bc6:	4b27      	ldr	r3, [pc, #156]	; (c64 <uart_init+0xcc>)
     bc8:	2241      	movs	r2, #65	; 0x41
     bca:	21d6      	movs	r1, #214	; 0xd6
     bcc:	545a      	strb	r2, [r3, r1]
    ((Port *)PORT)->Group[1].PINCFG[23].reg = 0x41;
     bce:	3101      	adds	r1, #1
     bd0:	545a      	strb	r2, [r3, r1]
    ((Port *)PORT)->Group[1].PMUX[11].reg = 0x32;
     bd2:	39a5      	subs	r1, #165	; 0xa5
     bd4:	327a      	adds	r2, #122	; 0x7a
     bd6:	5499      	strb	r1, [r3, r2]
   // ((Port *)PORT)->Group[0].PINCFG[25].reg = 0x41;
   // ((Port *)PORT)->Group[0].PMUX[12].reg = 0x24;


    //enable power to sercom 5 module
    PM->APBCMASK.reg |= PM_APBCMASK_SERCOM5;
     bd8:	4a23      	ldr	r2, [pc, #140]	; (c68 <uart_init+0xd0>)
     bda:	6a11      	ldr	r1, [r2, #32]
     bdc:	2380      	movs	r3, #128	; 0x80
     bde:	430b      	orrs	r3, r1
     be0:	6213      	str	r3, [r2, #32]
    //enable and configure the sercom clock
    GCLK->GENDIV.reg =  GCLK_GENDIV_ID(3) |
     be2:	4b22      	ldr	r3, [pc, #136]	; (c6c <uart_init+0xd4>)
     be4:	2204      	movs	r2, #4
     be6:	32ff      	adds	r2, #255	; 0xff
     be8:	609a      	str	r2, [r3, #8]
                        GCLK_GENDIV_DIV(1);
    GCLK->GENCTRL.reg = GCLK_GENCTRL_ID(3) |
     bea:	4a21      	ldr	r2, [pc, #132]	; (c70 <uart_init+0xd8>)
     bec:	605a      	str	r2, [r3, #4]
                        GCLK_GENCTRL_SRC_OSC8M |
                        GCLK_GENCTRL_IDC |
                        GCLK_GENCTRL_RUNSTDBY |
                        GCLK_GENCTRL_GENEN;
    GCLK->CLKCTRL.reg = GCLK_CLKCTRL_ID_SERCOM5_CORE |
     bee:	4a21      	ldr	r2, [pc, #132]	; (c74 <uart_init+0xdc>)
     bf0:	805a      	strh	r2, [r3, #2]
                        GCLK_CLKCTRL_GEN_GCLK3 |
                        GCLK_CLKCTRL_CLKEN;
    //     GCLK->CLKCTRL.reg = GCLK_CLKCTRL_ID_SERCOMX_SLOW |
    //                         GCLK_CLKCTRL_GEN_GCLK3 |
    //                         GCLK_CLKCTRL_CLKEN;
    GCLK->CLKCTRL.reg = GCLK_CLKCTRL_ID_SERCOM3_CORE |
     bf2:	4a21      	ldr	r2, [pc, #132]	; (c78 <uart_init+0xe0>)
     bf4:	805a      	strh	r2, [r3, #2]
                        GCLK_CLKCTRL_GEN_GCLK3 |
                        GCLK_CLKCTRL_CLKEN;

    //configure the sercom module for the gps (sercom 5)
    SERCOM5->USART.CTRLA.reg = SERCOM_USART_CTRLA_DORD |
     bf6:	4a21      	ldr	r2, [pc, #132]	; (c7c <uart_init+0xe4>)
     bf8:	4b21      	ldr	r3, [pc, #132]	; (c80 <uart_init+0xe8>)
     bfa:	601a      	str	r2, [r3, #0]
#include <SaLIo.h>

typedef uint16_t SaLSercomUsartDataReg_t;

static inline void uart_sync(const void *const hw) {
  while (((Sercom *)hw)->USART.SYNCBUSY.bit.CTRLB);
     bfc:	1c19      	adds	r1, r3, #0
     bfe:	2201      	movs	r2, #1
     c00:	69cb      	ldr	r3, [r1, #28]
     c02:	089b      	lsrs	r3, r3, #2
     c04:	421a      	tst	r2, r3
     c06:	d1fb      	bne.n	c00 <uart_init+0x68>
                               SERCOM_USART_CTRLA_MODE_USART_INT_CLK |
                               SERCOM_USART_CTRLA_RXPO(3) |
                               SERCOM_USART_CTRLA_TXPO(1);
    uart_sync(SERCOM5);
    SERCOM5->USART.CTRLB.reg = SERCOM_USART_CTRLB_RXEN | SERCOM_USART_CTRLB_TXEN |
     c08:	22c0      	movs	r2, #192	; 0xc0
     c0a:	0292      	lsls	r2, r2, #10
     c0c:	4b1c      	ldr	r3, [pc, #112]	; (c80 <uart_init+0xe8>)
     c0e:	605a      	str	r2, [r3, #4]
     c10:	1c19      	adds	r1, r3, #0
     c12:	2201      	movs	r2, #1
     c14:	69cb      	ldr	r3, [r1, #28]
     c16:	089b      	lsrs	r3, r3, #2
     c18:	421a      	tst	r2, r3
     c1a:	d1fb      	bne.n	c14 <uart_init+0x7c>
                               SERCOM_USART_CTRLB_CHSIZE(0/*8 bits*/);
    // SERCOM_USART_CTRLB_SFDE;
    uart_sync(SERCOM5);
    SERCOM5->USART.BAUD.reg = (uint16_t)br;
     c1c:	b280      	uxth	r0, r0
     c1e:	4b18      	ldr	r3, [pc, #96]	; (c80 <uart_init+0xe8>)
     c20:	8198      	strh	r0, [r3, #12]
     c22:	1c19      	adds	r1, r3, #0
     c24:	2201      	movs	r2, #1
     c26:	69cb      	ldr	r3, [r1, #28]
     c28:	089b      	lsrs	r3, r3, #2
     c2a:	421a      	tst	r2, r3
     c2c:	d1fb      	bne.n	c26 <uart_init+0x8e>
    uart_sync(SERCOM5);
    SERCOM5->USART.CTRLA.reg |= SERCOM_USART_CTRLA_ENABLE;
     c2e:	4a14      	ldr	r2, [pc, #80]	; (c80 <uart_init+0xe8>)
     c30:	6811      	ldr	r1, [r2, #0]
     c32:	2302      	movs	r3, #2
     c34:	430b      	orrs	r3, r1
     c36:	6013      	str	r3, [r2, #0]
     c38:	1c11      	adds	r1, r2, #0
     c3a:	2201      	movs	r2, #1
     c3c:	69cb      	ldr	r3, [r1, #28]
     c3e:	089b      	lsrs	r3, r3, #2
     c40:	421a      	tst	r2, r3
     c42:	d1fb      	bne.n	c3c <uart_init+0xa4>
                                 const uint16_t length);

int32_t SaLInitUsart(struct SaLUsartDescriptor *const descr,
                     void *const hw) {

    descr->device.hw = hw;
     c44:	4b0f      	ldr	r3, [pc, #60]	; (c84 <uart_init+0xec>)
     c46:	4a0e      	ldr	r2, [pc, #56]	; (c80 <uart_init+0xe8>)
     c48:	609a      	str	r2, [r3, #8]
    descr->io.read = SaLUsartDataRead;
     c4a:	4a0f      	ldr	r2, [pc, #60]	; (c88 <uart_init+0xf0>)
     c4c:	605a      	str	r2, [r3, #4]
    descr->io.write = SaLUsartDataWrite;
     c4e:	4a0f      	ldr	r2, [pc, #60]	; (c8c <uart_init+0xf4>)
     c50:	601a      	str	r2, [r3, #0]
    uart_sync(SERCOM5);

    SaLInitUsart(&USART_0,SERCOM5);


}
     c52:	bd10      	pop	{r4, pc}
     c54:	007a1200 	.word	0x007a1200
     c58:	0000106d 	.word	0x0000106d
     c5c:	40000800 	.word	0x40000800
     c60:	fffffd00 	.word	0xfffffd00
     c64:	41004400 	.word	0x41004400
     c68:	40000400 	.word	0x40000400
     c6c:	40000c00 	.word	0x40000c00
     c70:	00230603 	.word	0x00230603
     c74:	00004319 	.word	0x00004319
     c78:	00004317 	.word	0x00004317
     c7c:	40310004 	.word	0x40310004
     c80:	42001c00 	.word	0x42001c00
     c84:	20000114 	.word	0x20000114
     c88:	00000ca1 	.word	0x00000ca1
     c8c:	00000cf1 	.word	0x00000cf1

00000c90 <SaLSyncUsartIo>:
};


void SaLSyncUsartIo(struct SaLUsartDescriptor *const descr,
                    struct IoDescriptor **Io) {
    *Io = &descr->io;
     c90:	6008      	str	r0, [r1, #0]
};
     c92:	4770      	bx	lr

00000c94 <_usartByteRecieved>:

bool _usartByteRecieved(const struct _UsartDevice *const device) {
    return _usartGetInteruptRCX(device->hw);
     c94:	6803      	ldr	r3, [r0, #0]
static inline SaLSercomUsartDataReg_t _usartGetDataReg(const void *const hw) {
    return ((Sercom *)hw)->USART.DATA.reg;
}

static inline bool _usartGetInteruptRCX(const void *const hw) {
    return (((Sercom *)hw)->USART.INTFLAG.reg & SERCOM_USART_INTFLAG_RXC) >> SERCOM_USART_INTFLAG_RXC_Pos;
     c96:	7e18      	ldrb	r0, [r3, #24]
     c98:	0740      	lsls	r0, r0, #29
     c9a:	0fc0      	lsrs	r0, r0, #31
};
     c9c:	4770      	bx	lr
     c9e:	46c0      	nop			; (mov r8, r8)

00000ca0 <SaLUsartDataRead>:



static int32_t SaLUsartDataRead(struct IoDescriptor *const ioDescr,
                                uint8_t *const buf,
                                const uint16_t length) {
     ca0:	b5f8      	push	{r3, r4, r5, r6, r7, lr}
     ca2:	464f      	mov	r7, r9
     ca4:	4646      	mov	r6, r8
     ca6:	b4c0      	push	{r6, r7}
     ca8:	4680      	mov	r8, r0
     caa:	4689      	mov	r9, r1
     cac:	1c17      	adds	r7, r2, #0

    int32_t offset = 0;
     cae:	2600      	movs	r6, #0
    struct SaLUsartDescriptor *descr = CONTAINER_OF(ioDescr,struct SaLUsartDescriptor, io);

    do {
        while (!_usartByteRecieved(&descr->device));
     cb0:	1c05      	adds	r5, r0, #0
     cb2:	3508      	adds	r5, #8
     cb4:	4c0a      	ldr	r4, [pc, #40]	; (ce0 <SaLUsartDataRead+0x40>)
     cb6:	1c28      	adds	r0, r5, #0
     cb8:	47a0      	blx	r4
     cba:	2800      	cmp	r0, #0
     cbc:	d0fb      	beq.n	cb6 <SaLUsartDataRead+0x16>
    ((Sercom *)hw)->USART.DATA.reg = data;
    ATOMIC_SECTION_LEAVE
}

static inline SaLSercomUsartDataReg_t _usartGetDataReg(const void *const hw) {
    return ((Sercom *)hw)->USART.DATA.reg;
     cbe:	4643      	mov	r3, r8
     cc0:	689b      	ldr	r3, [r3, #8]
     cc2:	8d1b      	ldrh	r3, [r3, #40]	; 0x28
bool _usartByteRecieved(const struct _UsartDevice *const device) {
    return _usartGetInteruptRCX(device->hw);
};

uint8_t _usartGetData(const struct _UsartDevice *const device) {
    return _usartGetDataReg(device->hw);
     cc4:	464a      	mov	r2, r9
     cc6:	5593      	strb	r3, [r2, r6]
    struct SaLUsartDescriptor *descr = CONTAINER_OF(ioDescr,struct SaLUsartDescriptor, io);

    do {
        while (!_usartByteRecieved(&descr->device));
        buf[offset] = _usartGetData(&descr->device);
    } while (++offset < length);
     cc8:	3601      	adds	r6, #1
     cca:	1c38      	adds	r0, r7, #0
     ccc:	42be      	cmp	r6, r7
     cce:	dbf2      	blt.n	cb6 <SaLUsartDataRead+0x16>
     cd0:	2f00      	cmp	r7, #0
     cd2:	dc00      	bgt.n	cd6 <SaLUsartDataRead+0x36>
     cd4:	2001      	movs	r0, #1

    return (int32_t)offset;
}
     cd6:	bc0c      	pop	{r2, r3}
     cd8:	4690      	mov	r8, r2
     cda:	4699      	mov	r9, r3
     cdc:	bdf8      	pop	{r3, r4, r5, r6, r7, pc}
     cde:	46c0      	nop			; (mov r8, r8)
     ce0:	00000c95 	.word	0x00000c95

00000ce4 <_usartGetDreInterupt>:
uint8_t _usartGetData(const struct _UsartDevice *const device) {
    return _usartGetDataReg(device->hw);
}

bool _usartGetDreInterupt(const struct _UsartDevice *const device) {
    return _usartGetDreInteruptReg(device->hw);
     ce4:	6803      	ldr	r3, [r0, #0]
static inline bool _usartGetInteruptRCX(const void *const hw) {
    return (((Sercom *)hw)->USART.INTFLAG.reg & SERCOM_USART_INTFLAG_RXC) >> SERCOM_USART_INTFLAG_RXC_Pos;

};
static inline bool _usartGetDreInteruptReg(const void *const hw) {
    return (((Sercom *)hw)->USART.INTFLAG.reg & SERCOM_USART_INTFLAG_DRE) >> SERCOM_USART_INTFLAG_DRE_Pos;
     ce6:	7e18      	ldrb	r0, [r3, #24]
     ce8:	2301      	movs	r3, #1
     cea:	4018      	ands	r0, r3
}
     cec:	4770      	bx	lr
     cee:	46c0      	nop			; (mov r8, r8)

00000cf0 <SaLUsartDataWrite>:
    return (int32_t)offset;
}

static int32_t SaLUsartDataWrite(struct IoDescriptor *const ioDescr,
                                 const uint8_t *const buf,
                                 const uint16_t length) {
     cf0:	b5f8      	push	{r3, r4, r5, r6, r7, lr}
     cf2:	464f      	mov	r7, r9
     cf4:	4646      	mov	r6, r8
     cf6:	b4c0      	push	{r6, r7}
     cf8:	4680      	mov	r8, r0
     cfa:	4689      	mov	r9, r1
     cfc:	1c17      	adds	r7, r2, #0

    int32_t offset = 0;
    struct SaLUsartDescriptor *descr = CONTAINER_OF(ioDescr,struct SaLUsartDescriptor, io);

    while (!_usartGetDreInterupt(&descr->device));
     cfe:	1c05      	adds	r5, r0, #0
     d00:	3508      	adds	r5, #8
     d02:	4e10      	ldr	r6, [pc, #64]	; (d44 <SaLUsartDataWrite+0x54>)
     d04:	1c2c      	adds	r4, r5, #0
     d06:	1c28      	adds	r0, r5, #0
     d08:	47b0      	blx	r6
     d0a:	2800      	cmp	r0, #0
     d0c:	d0fa      	beq.n	d04 <SaLUsartDataWrite+0x14>
     d0e:	2600      	movs	r6, #0
    do {
        _usartSetDataReg(&descr->device,buf[offset]);
        while (!_usartGetDreInterupt(&descr->device));
     d10:	4d0c      	ldr	r5, [pc, #48]	; (d44 <SaLUsartDataWrite+0x54>)

void SaLSyncUsartIo(struct SaLUsartDescriptor *const descr,
                    struct IoDescriptor **Io);

static inline void _usartSetDataReg(const void *const hw, uint8_t data ) {
    ATOMIC_SECTION_ENTER
     d12:	f3ef 8310 	mrs	r3, PRIMASK
     d16:	b672      	cpsid	i
    ((Sercom *)hw)->USART.DATA.reg = data;
     d18:	464a      	mov	r2, r9
     d1a:	5d92      	ldrb	r2, [r2, r6]
     d1c:	4641      	mov	r1, r8
     d1e:	860a      	strh	r2, [r1, #48]	; 0x30
    ATOMIC_SECTION_LEAVE
     d20:	f383 8810 	msr	PRIMASK, r3
     d24:	1c20      	adds	r0, r4, #0
     d26:	47a8      	blx	r5
     d28:	2800      	cmp	r0, #0
     d2a:	d0fb      	beq.n	d24 <SaLUsartDataWrite+0x34>
    } while (++offset < length);
     d2c:	3601      	adds	r6, #1
     d2e:	1c38      	adds	r0, r7, #0
     d30:	42be      	cmp	r6, r7
     d32:	dbee      	blt.n	d12 <SaLUsartDataWrite+0x22>
     d34:	2f00      	cmp	r7, #0
     d36:	dc00      	bgt.n	d3a <SaLUsartDataWrite+0x4a>
     d38:	2001      	movs	r0, #1
    return offset;

}
     d3a:	bc0c      	pop	{r2, r3}
     d3c:	4690      	mov	r8, r2
     d3e:	4699      	mov	r9, r3
     d40:	bdf8      	pop	{r3, r4, r5, r6, r7, pc}
     d42:	46c0      	nop			; (mov r8, r8)
     d44:	00000ce5 	.word	0x00000ce5

00000d48 <Dummy_Handler>:
 */
__attribute__( ( always_inline ) ) __STATIC_INLINE uint32_t __get_IPSR(void)
{
  uint32_t result;

  __ASM volatile ("MRS %0, ipsr" : "=r" (result) );
     d48:	f3ef 8305 	mrs	r3, IPSR
     d4c:	e7fc      	b.n	d48 <Dummy_Handler>
     d4e:	46c0      	nop			; (mov r8, r8)

00000d50 <Reset_Handler>:
/**
 * \brief This is the code that gets called on processor reset.
 * To initialize the device, and call the main() routine.
 */
void Reset_Handler(void)
{
     d50:	b570      	push	{r4, r5, r6, lr}

        /* Initialize the relocate segment */
        pSrc = &_etext;
        pDest = &_srelocate;

        if (pSrc != pDest) {
     d52:	4b2e      	ldr	r3, [pc, #184]	; (e0c <Reset_Handler+0xbc>)
     d54:	4a2e      	ldr	r2, [pc, #184]	; (e10 <Reset_Handler+0xc0>)
     d56:	429a      	cmp	r2, r3
     d58:	d003      	beq.n	d62 <Reset_Handler+0x12>
                for (; pDest < &_erelocate;) {
     d5a:	4b2e      	ldr	r3, [pc, #184]	; (e14 <Reset_Handler+0xc4>)
     d5c:	4a2b      	ldr	r2, [pc, #172]	; (e0c <Reset_Handler+0xbc>)
     d5e:	429a      	cmp	r2, r3
     d60:	d304      	bcc.n	d6c <Reset_Handler+0x1c>
                        *pDest++ = *pSrc++;
                }
        }

        /* Clear the zero segment */
        for (pDest = &_szero; pDest < &_ezero;) {
     d62:	4b2d      	ldr	r3, [pc, #180]	; (e18 <Reset_Handler+0xc8>)
     d64:	4a2d      	ldr	r2, [pc, #180]	; (e1c <Reset_Handler+0xcc>)
     d66:	429a      	cmp	r2, r3
     d68:	d310      	bcc.n	d8c <Reset_Handler+0x3c>
     d6a:	e01e      	b.n	daa <Reset_Handler+0x5a>
     d6c:	4a2c      	ldr	r2, [pc, #176]	; (e20 <Reset_Handler+0xd0>)
     d6e:	4b29      	ldr	r3, [pc, #164]	; (e14 <Reset_Handler+0xc4>)
     d70:	3303      	adds	r3, #3
     d72:	1a9b      	subs	r3, r3, r2
     d74:	089b      	lsrs	r3, r3, #2
     d76:	3301      	adds	r3, #1
     d78:	009b      	lsls	r3, r3, #2
        /* Initialize the relocate segment */
        pSrc = &_etext;
        pDest = &_srelocate;

        if (pSrc != pDest) {
                for (; pDest < &_erelocate;) {
     d7a:	2200      	movs	r2, #0
                        *pDest++ = *pSrc++;
     d7c:	4823      	ldr	r0, [pc, #140]	; (e0c <Reset_Handler+0xbc>)
     d7e:	4924      	ldr	r1, [pc, #144]	; (e10 <Reset_Handler+0xc0>)
     d80:	588c      	ldr	r4, [r1, r2]
     d82:	5084      	str	r4, [r0, r2]
     d84:	3204      	adds	r2, #4
        /* Initialize the relocate segment */
        pSrc = &_etext;
        pDest = &_srelocate;

        if (pSrc != pDest) {
                for (; pDest < &_erelocate;) {
     d86:	429a      	cmp	r2, r3
     d88:	d1fa      	bne.n	d80 <Reset_Handler+0x30>
     d8a:	e7ea      	b.n	d62 <Reset_Handler+0x12>
     d8c:	4a25      	ldr	r2, [pc, #148]	; (e24 <Reset_Handler+0xd4>)
     d8e:	4b22      	ldr	r3, [pc, #136]	; (e18 <Reset_Handler+0xc8>)
     d90:	3303      	adds	r3, #3
     d92:	1a9b      	subs	r3, r3, r2
     d94:	089b      	lsrs	r3, r3, #2
     d96:	3301      	adds	r3, #1
     d98:	009b      	lsls	r3, r3, #2
                        *pDest++ = *pSrc++;
                }
        }

        /* Clear the zero segment */
        for (pDest = &_szero; pDest < &_ezero;) {
     d9a:	2200      	movs	r2, #0
                *pDest++ = 0;
     d9c:	481f      	ldr	r0, [pc, #124]	; (e1c <Reset_Handler+0xcc>)
     d9e:	2100      	movs	r1, #0
     da0:	1814      	adds	r4, r2, r0
     da2:	6021      	str	r1, [r4, #0]
     da4:	3204      	adds	r2, #4
                        *pDest++ = *pSrc++;
                }
        }

        /* Clear the zero segment */
        for (pDest = &_szero; pDest < &_ezero;) {
     da6:	429a      	cmp	r2, r3
     da8:	d1fa      	bne.n	da0 <Reset_Handler+0x50>
                *pDest++ = 0;
        }

        /* Set the vector table base address */
        pSrc = (uint32_t *) & _sfixed;
        SCB->VTOR = ((uint32_t) pSrc & SCB_VTOR_TBLOFF_Msk);
     daa:	4a1f      	ldr	r2, [pc, #124]	; (e28 <Reset_Handler+0xd8>)
     dac:	21ff      	movs	r1, #255	; 0xff
     dae:	4b1f      	ldr	r3, [pc, #124]	; (e2c <Reset_Handler+0xdc>)
     db0:	438b      	bics	r3, r1
     db2:	6093      	str	r3, [r2, #8]

        /* Change default QOS values to have the best performance and correct USB behaviour */
        SBMATRIX->SFR[SBMATRIX_SLAVE_HMCRAMC0].reg = 2;
     db4:	39fd      	subs	r1, #253	; 0xfd
     db6:	2390      	movs	r3, #144	; 0x90
     db8:	005b      	lsls	r3, r3, #1
     dba:	4a1d      	ldr	r2, [pc, #116]	; (e30 <Reset_Handler+0xe0>)
     dbc:	50d1      	str	r1, [r2, r3]
#if defined(ID_USB)
        USB->DEVICE.QOSCTRL.bit.CQOS = 2;
     dbe:	481d      	ldr	r0, [pc, #116]	; (e34 <Reset_Handler+0xe4>)
     dc0:	78c3      	ldrb	r3, [r0, #3]
     dc2:	2403      	movs	r4, #3
     dc4:	43a3      	bics	r3, r4
     dc6:	2202      	movs	r2, #2
     dc8:	4313      	orrs	r3, r2
     dca:	70c3      	strb	r3, [r0, #3]
        USB->DEVICE.QOSCTRL.bit.DQOS = 2;
     dcc:	78c3      	ldrb	r3, [r0, #3]
     dce:	260c      	movs	r6, #12
     dd0:	43b3      	bics	r3, r6
     dd2:	2108      	movs	r1, #8
     dd4:	430b      	orrs	r3, r1
     dd6:	70c3      	strb	r3, [r0, #3]
#endif
        DMAC->QOSCTRL.bit.DQOS = 2;
     dd8:	4b17      	ldr	r3, [pc, #92]	; (e38 <Reset_Handler+0xe8>)
     dda:	7b98      	ldrb	r0, [r3, #14]
     ddc:	2530      	movs	r5, #48	; 0x30
     dde:	43a8      	bics	r0, r5
     de0:	1c05      	adds	r5, r0, #0
     de2:	2020      	movs	r0, #32
     de4:	4328      	orrs	r0, r5
     de6:	7398      	strb	r0, [r3, #14]
        DMAC->QOSCTRL.bit.FQOS = 2;
     de8:	7b98      	ldrb	r0, [r3, #14]
     dea:	43b0      	bics	r0, r6
     dec:	4301      	orrs	r1, r0
     dee:	7399      	strb	r1, [r3, #14]
        DMAC->QOSCTRL.bit.WRBQOS = 2;
     df0:	7b99      	ldrb	r1, [r3, #14]
     df2:	43a1      	bics	r1, r4
     df4:	430a      	orrs	r2, r1
     df6:	739a      	strb	r2, [r3, #14]

        /* Overwriting the default value of the NVMCTRL.CTRLB.MANW bit (errata reference 13134) */
        NVMCTRL->CTRLB.bit.MANW = 1;
     df8:	4a10      	ldr	r2, [pc, #64]	; (e3c <Reset_Handler+0xec>)
     dfa:	6851      	ldr	r1, [r2, #4]
     dfc:	2380      	movs	r3, #128	; 0x80
     dfe:	430b      	orrs	r3, r1
     e00:	6053      	str	r3, [r2, #4]

        /* Initialize the C library */
        __libc_init_array();
     e02:	4b0f      	ldr	r3, [pc, #60]	; (e40 <Reset_Handler+0xf0>)
     e04:	4798      	blx	r3

        /* Branch to main function */
        main();
     e06:	4b0f      	ldr	r3, [pc, #60]	; (e44 <Reset_Handler+0xf4>)
     e08:	4798      	blx	r3

        /* Infinite loop */
        while (1);
     e0a:	e7fe      	b.n	e0a <Reset_Handler+0xba>
     e0c:	20000000 	.word	0x20000000
     e10:	0000204c 	.word	0x0000204c
     e14:	2000000c 	.word	0x2000000c
     e18:	20000138 	.word	0x20000138
     e1c:	2000000c 	.word	0x2000000c
     e20:	20000004 	.word	0x20000004
     e24:	20000010 	.word	0x20000010
     e28:	e000ed00 	.word	0xe000ed00
     e2c:	00000000 	.word	0x00000000
     e30:	41007000 	.word	0x41007000
     e34:	41005000 	.word	0x41005000
     e38:	41004800 	.word	0x41004800
     e3c:	41004000 	.word	0x41004000
     e40:	00000f8d 	.word	0x00000f8d
     e44:	00000eb1 	.word	0x00000eb1

00000e48 <SystemInit>:
 *         Initialize the System and update the SystemCoreClock variable.
 */
void SystemInit(void)
{
	// Keep the default device state after reset
	SystemCoreClock = __SYSTEM_CLOCK;
     e48:	4a01      	ldr	r2, [pc, #4]	; (e50 <SystemInit+0x8>)
     e4a:	4b02      	ldr	r3, [pc, #8]	; (e54 <SystemInit+0xc>)
     e4c:	601a      	str	r2, [r3, #0]
	return;
}
     e4e:	4770      	bx	lr
     e50:	000f4240 	.word	0x000f4240
     e54:	20000008 	.word	0x20000008

00000e58 <PinConfig>:
bool retrieveSample;
uint32_t index2;



void PinConfig() {
     e58:	b538      	push	{r3, r4, r5, lr}
    /* temp SS HIGH for other peripherals */
    SaLPinMode(PIN_PA07,INPUT);
     e5a:	2007      	movs	r0, #7
     e5c:	2100      	movs	r1, #0
     e5e:	4c0c      	ldr	r4, [pc, #48]	; (e90 <PinConfig+0x38>)
     e60:	47a0      	blx	r4
    SaLPinMode(PIN_PA10,OUTPUT);
     e62:	200a      	movs	r0, #10
     e64:	2101      	movs	r1, #1
     e66:	47a0      	blx	r4
    SaLPinMode(PIN_PA08,OUTPUT);
     e68:	2008      	movs	r0, #8
     e6a:	2101      	movs	r1, #1
     e6c:	47a0      	blx	r4
    SaLPinMode(BUZZER,OUTSTRONG);
     e6e:	200c      	movs	r0, #12
     e70:	2103      	movs	r1, #3
     e72:	47a0      	blx	r4
    PortGroup *const port = SaLGetPort(pin);
    uint32_t pin_mask = (1UL << (pin % 32));


    if (level) {
        port->OUTSET.reg = pin_mask;
     e74:	4d07      	ldr	r5, [pc, #28]	; (e94 <PinConfig+0x3c>)
     e76:	2380      	movs	r3, #128	; 0x80
     e78:	00db      	lsls	r3, r3, #3
     e7a:	61ab      	str	r3, [r5, #24]
     e7c:	2380      	movs	r3, #128	; 0x80
     e7e:	005b      	lsls	r3, r3, #1
     e80:	61ab      	str	r3, [r5, #24]
    SaLDigitalOut(PIN_PA10,true);
    SaLDigitalOut(PIN_PA08,true);
    SaLPinMode(MS5607_SLAVE_SELECT_PIN,OUTPUT);
     e82:	2009      	movs	r0, #9
     e84:	2101      	movs	r1, #1
     e86:	47a0      	blx	r4
     e88:	2380      	movs	r3, #128	; 0x80
     e8a:	009b      	lsls	r3, r3, #2
     e8c:	61ab      	str	r3, [r5, #24]
    SaLDigitalOut(MS5607_SLAVE_SELECT_PIN,TRUE);
}
     e8e:	bd38      	pop	{r3, r4, r5, pc}
     e90:	000009f9 	.word	0x000009f9
     e94:	41004400 	.word	0x41004400

00000e98 <TC4_Handler>:

void TC4_Handler(void) {
    retrieveSample = true;
     e98:	2201      	movs	r2, #1
     e9a:	4b03      	ldr	r3, [pc, #12]	; (ea8 <TC4_Handler+0x10>)
     e9c:	701a      	strb	r2, [r3, #0]
    TC4->COUNT16.INTFLAG.reg = 0XFF;
     e9e:	32fe      	adds	r2, #254	; 0xfe
     ea0:	4b02      	ldr	r3, [pc, #8]	; (eac <TC4_Handler+0x14>)
     ea2:	739a      	strb	r2, [r3, #14]
}
     ea4:	4770      	bx	lr
     ea6:	46c0      	nop			; (mov r8, r8)
     ea8:	20000130 	.word	0x20000130
     eac:	42003000 	.word	0x42003000

00000eb0 <main>:



}

int main(void) {
     eb0:	b5f0      	push	{r4, r5, r6, r7, lr}
     eb2:	464f      	mov	r7, r9
     eb4:	4646      	mov	r6, r8
     eb6:	b4c0      	push	{r6, r7}
     eb8:	b08b      	sub	sp, #44	; 0x2c
    SystemInit();
     eba:	4b20      	ldr	r3, [pc, #128]	; (f3c <main+0x8c>)
     ebc:	4798      	blx	r3
    SaLDelayInit();
     ebe:	4b20      	ldr	r3, [pc, #128]	; (f40 <main+0x90>)
     ec0:	4798      	blx	r3
    SalGclkInit();
     ec2:	4b20      	ldr	r3, [pc, #128]	; (f44 <main+0x94>)
     ec4:	4798      	blx	r3
    SaLRtcInit();
     ec6:	4b20      	ldr	r3, [pc, #128]	; (f48 <main+0x98>)
     ec8:	4798      	blx	r3
    PinConfig();
     eca:	4b20      	ldr	r3, [pc, #128]	; (f4c <main+0x9c>)
     ecc:	4798      	blx	r3
    uart_init(9600);
     ece:	2096      	movs	r0, #150	; 0x96
     ed0:	0180      	lsls	r0, r0, #6
     ed2:	4b1f      	ldr	r3, [pc, #124]	; (f50 <main+0xa0>)
     ed4:	4798      	blx	r3
    SaLTC4Init();
     ed6:	4b1f      	ldr	r3, [pc, #124]	; (f54 <main+0xa4>)
     ed8:	4798      	blx	r3
    sampleInit();
     eda:	4b1f      	ldr	r3, [pc, #124]	; (f58 <main+0xa8>)
     edc:	4798      	blx	r3
    struct IoDescriptor *UsartIoModule;
    struct IoDescriptor *UsartIoModuleUsb;

    struct AccelerometerModule myAccelerometer;

    SaLSyncUsartIo(&USART_0, &UsartIoModule);
     ede:	481f      	ldr	r0, [pc, #124]	; (f5c <main+0xac>)
     ee0:	a909      	add	r1, sp, #36	; 0x24
     ee2:	4c1f      	ldr	r4, [pc, #124]	; (f60 <main+0xb0>)
     ee4:	47a0      	blx	r4
    SaLSyncUsartIo(&USART_1, &UsartIoModuleUsb);
     ee6:	481f      	ldr	r0, [pc, #124]	; (f64 <main+0xb4>)
     ee8:	a908      	add	r1, sp, #32
     eea:	47a0      	blx	r4

    initAccelerometer(&myAccelerometer);
     eec:	a802      	add	r0, sp, #8
     eee:	4b1e      	ldr	r3, [pc, #120]	; (f68 <main+0xb8>)
     ef0:	4798      	blx	r3
    initBarometer();
     ef2:	4b1e      	ldr	r3, [pc, #120]	; (f6c <main+0xbc>)
     ef4:	4798      	blx	r3
	SaLFlashMemInit();
     ef6:	4b1e      	ldr	r3, [pc, #120]	; (f70 <main+0xc0>)
     ef8:	4798      	blx	r3
//     }
//
//     volatile int32_t groundAlt = groundHeight.mean;
//     variance = GetVariance(&groundHeight,&groundHeight.mean);

    volatile uint16_t ticks = 0;
     efa:	2200      	movs	r2, #0
     efc:	466b      	mov	r3, sp
     efe:	80da      	strh	r2, [r3, #6]
    uint32_t milliseconds = 0;
    uint32_t lastTime = 0;
     f00:	2600      	movs	r6, #0
//     AT25SFWriteByte(0x00101,251);
//   volatile uint8_t byte = AT25SFGetByte(0x00101);

    while (1) {
        ticks++;
        counter++;
     f02:	4d1c      	ldr	r5, [pc, #112]	; (f74 <main+0xc4>)
        milliseconds = millis();
     f04:	4b1c      	ldr	r3, [pc, #112]	; (f78 <main+0xc8>)
     f06:	4698      	mov	r8, r3
        if (milliseconds - lastTime > 150000*3.3) {
     f08:	4b1c      	ldr	r3, [pc, #112]	; (f7c <main+0xcc>)
     f0a:	4699      	mov	r9, r3
//     AT25SFErace4KBlock(0);
//     AT25SFWriteByte(0x00101,251);
//   volatile uint8_t byte = AT25SFGetByte(0x00101);

    while (1) {
        ticks++;
     f0c:	466b      	mov	r3, sp
     f0e:	1d9a      	adds	r2, r3, #6
     f10:	88db      	ldrh	r3, [r3, #6]
     f12:	3301      	adds	r3, #1
     f14:	b29b      	uxth	r3, r3
     f16:	8013      	strh	r3, [r2, #0]
        counter++;
     f18:	682b      	ldr	r3, [r5, #0]
     f1a:	3301      	adds	r3, #1
     f1c:	602b      	str	r3, [r5, #0]
        milliseconds = millis();
     f1e:	47c0      	blx	r8
     f20:	1c04      	adds	r4, r0, #0
        if (milliseconds - lastTime > 150000*3.3) {
     f22:	1b80      	subs	r0, r0, r6
     f24:	47c8      	blx	r9
     f26:	2200      	movs	r2, #0
     f28:	4b15      	ldr	r3, [pc, #84]	; (f80 <main+0xd0>)
     f2a:	4f16      	ldr	r7, [pc, #88]	; (f84 <main+0xd4>)
     f2c:	47b8      	blx	r7
     f2e:	2800      	cmp	r0, #0
     f30:	d000      	beq.n	f34 <main+0x84>
            // bytesRead = SaLIoRead(UsartIoModule,&message[0],255);
            lastTime = milliseconds;
     f32:	1c26      	adds	r6, r4, #0
            //SaLPlayTone(400);
        }
        sampleTick();
     f34:	4b14      	ldr	r3, [pc, #80]	; (f88 <main+0xd8>)
     f36:	4798      	blx	r3

    }
     f38:	e7e8      	b.n	f0c <main+0x5c>
     f3a:	46c0      	nop			; (mov r8, r8)
     f3c:	00000e49 	.word	0x00000e49
     f40:	000009ad 	.word	0x000009ad
     f44:	000007ed 	.word	0x000007ed
     f48:	000008cd 	.word	0x000008cd
     f4c:	00000e59 	.word	0x00000e59
     f50:	00000b99 	.word	0x00000b99
     f54:	00000895 	.word	0x00000895
     f58:	00000b69 	.word	0x00000b69
     f5c:	20000114 	.word	0x20000114
     f60:	00000c91 	.word	0x00000c91
     f64:	20000120 	.word	0x20000120
     f68:	00000465 	.word	0x00000465
     f6c:	00000521 	.word	0x00000521
     f70:	000009f5 	.word	0x000009f5
     f74:	20000030 	.word	0x20000030
     f78:	00000971 	.word	0x00000971
     f7c:	0000194d 	.word	0x0000194d
     f80:	411e3660 	.word	0x411e3660
     f84:	00001045 	.word	0x00001045
     f88:	00000a51 	.word	0x00000a51

00000f8c <__libc_init_array>:
     f8c:	4b0e      	ldr	r3, [pc, #56]	; (fc8 <__libc_init_array+0x3c>)
     f8e:	b570      	push	{r4, r5, r6, lr}
     f90:	2500      	movs	r5, #0
     f92:	1c1e      	adds	r6, r3, #0
     f94:	4c0d      	ldr	r4, [pc, #52]	; (fcc <__libc_init_array+0x40>)
     f96:	1ae4      	subs	r4, r4, r3
     f98:	10a4      	asrs	r4, r4, #2
     f9a:	42a5      	cmp	r5, r4
     f9c:	d004      	beq.n	fa8 <__libc_init_array+0x1c>
     f9e:	00ab      	lsls	r3, r5, #2
     fa0:	58f3      	ldr	r3, [r6, r3]
     fa2:	4798      	blx	r3
     fa4:	3501      	adds	r5, #1
     fa6:	e7f8      	b.n	f9a <__libc_init_array+0xe>
     fa8:	f001 f83c 	bl	2024 <_init>
     fac:	4b08      	ldr	r3, [pc, #32]	; (fd0 <__libc_init_array+0x44>)
     fae:	2500      	movs	r5, #0
     fb0:	1c1e      	adds	r6, r3, #0
     fb2:	4c08      	ldr	r4, [pc, #32]	; (fd4 <__libc_init_array+0x48>)
     fb4:	1ae4      	subs	r4, r4, r3
     fb6:	10a4      	asrs	r4, r4, #2
     fb8:	42a5      	cmp	r5, r4
     fba:	d004      	beq.n	fc6 <__libc_init_array+0x3a>
     fbc:	00ab      	lsls	r3, r5, #2
     fbe:	58f3      	ldr	r3, [r6, r3]
     fc0:	4798      	blx	r3
     fc2:	3501      	adds	r5, #1
     fc4:	e7f8      	b.n	fb8 <__libc_init_array+0x2c>
     fc6:	bd70      	pop	{r4, r5, r6, pc}
     fc8:	00002030 	.word	0x00002030
     fcc:	00002030 	.word	0x00002030
     fd0:	00002030 	.word	0x00002030
     fd4:	00002034 	.word	0x00002034

00000fd8 <memcpy>:
     fd8:	2300      	movs	r3, #0
     fda:	b510      	push	{r4, lr}
     fdc:	4293      	cmp	r3, r2
     fde:	d003      	beq.n	fe8 <memcpy+0x10>
     fe0:	5ccc      	ldrb	r4, [r1, r3]
     fe2:	54c4      	strb	r4, [r0, r3]
     fe4:	3301      	adds	r3, #1
     fe6:	e7f9      	b.n	fdc <memcpy+0x4>
     fe8:	bd10      	pop	{r4, pc}
	...

00000fec <__aeabi_idiv0>:
     fec:	4770      	bx	lr
     fee:	46c0      	nop			; (mov r8, r8)

00000ff0 <__aeabi_cdrcmple>:
     ff0:	4684      	mov	ip, r0
     ff2:	1c10      	adds	r0, r2, #0
     ff4:	4662      	mov	r2, ip
     ff6:	468c      	mov	ip, r1
     ff8:	1c19      	adds	r1, r3, #0
     ffa:	4663      	mov	r3, ip
     ffc:	e000      	b.n	1000 <__aeabi_cdcmpeq>
     ffe:	46c0      	nop			; (mov r8, r8)

00001000 <__aeabi_cdcmpeq>:
    1000:	b51f      	push	{r0, r1, r2, r3, r4, lr}
    1002:	f000 f967 	bl	12d4 <__ledf2>
    1006:	2800      	cmp	r0, #0
    1008:	d401      	bmi.n	100e <__aeabi_cdcmpeq+0xe>
    100a:	2100      	movs	r1, #0
    100c:	42c8      	cmn	r0, r1
    100e:	bd1f      	pop	{r0, r1, r2, r3, r4, pc}

00001010 <__aeabi_dcmpeq>:
    1010:	b510      	push	{r4, lr}
    1012:	f000 f8ab 	bl	116c <__eqdf2>
    1016:	4240      	negs	r0, r0
    1018:	3001      	adds	r0, #1
    101a:	bd10      	pop	{r4, pc}

0000101c <__aeabi_dcmplt>:
    101c:	b510      	push	{r4, lr}
    101e:	f000 f959 	bl	12d4 <__ledf2>
    1022:	2800      	cmp	r0, #0
    1024:	db01      	blt.n	102a <__aeabi_dcmplt+0xe>
    1026:	2000      	movs	r0, #0
    1028:	bd10      	pop	{r4, pc}
    102a:	2001      	movs	r0, #1
    102c:	bd10      	pop	{r4, pc}
    102e:	46c0      	nop			; (mov r8, r8)

00001030 <__aeabi_dcmple>:
    1030:	b510      	push	{r4, lr}
    1032:	f000 f94f 	bl	12d4 <__ledf2>
    1036:	2800      	cmp	r0, #0
    1038:	dd01      	ble.n	103e <__aeabi_dcmple+0xe>
    103a:	2000      	movs	r0, #0
    103c:	bd10      	pop	{r4, pc}
    103e:	2001      	movs	r0, #1
    1040:	bd10      	pop	{r4, pc}
    1042:	46c0      	nop			; (mov r8, r8)

00001044 <__aeabi_dcmpgt>:
    1044:	b510      	push	{r4, lr}
    1046:	f000 f8d5 	bl	11f4 <__gedf2>
    104a:	2800      	cmp	r0, #0
    104c:	dc01      	bgt.n	1052 <__aeabi_dcmpgt+0xe>
    104e:	2000      	movs	r0, #0
    1050:	bd10      	pop	{r4, pc}
    1052:	2001      	movs	r0, #1
    1054:	bd10      	pop	{r4, pc}
    1056:	46c0      	nop			; (mov r8, r8)

00001058 <__aeabi_dcmpge>:
    1058:	b510      	push	{r4, lr}
    105a:	f000 f8cb 	bl	11f4 <__gedf2>
    105e:	2800      	cmp	r0, #0
    1060:	da01      	bge.n	1066 <__aeabi_dcmpge+0xe>
    1062:	2000      	movs	r0, #0
    1064:	bd10      	pop	{r4, pc}
    1066:	2001      	movs	r0, #1
    1068:	bd10      	pop	{r4, pc}
    106a:	46c0      	nop			; (mov r8, r8)

0000106c <__aeabi_uldivmod>:
    106c:	2b00      	cmp	r3, #0
    106e:	d111      	bne.n	1094 <__aeabi_uldivmod+0x28>
    1070:	2a00      	cmp	r2, #0
    1072:	d10f      	bne.n	1094 <__aeabi_uldivmod+0x28>
    1074:	2900      	cmp	r1, #0
    1076:	d100      	bne.n	107a <__aeabi_uldivmod+0xe>
    1078:	2800      	cmp	r0, #0
    107a:	d002      	beq.n	1082 <__aeabi_uldivmod+0x16>
    107c:	2100      	movs	r1, #0
    107e:	43c9      	mvns	r1, r1
    1080:	1c08      	adds	r0, r1, #0
    1082:	b407      	push	{r0, r1, r2}
    1084:	4802      	ldr	r0, [pc, #8]	; (1090 <__aeabi_uldivmod+0x24>)
    1086:	a102      	add	r1, pc, #8	; (adr r1, 1090 <__aeabi_uldivmod+0x24>)
    1088:	1840      	adds	r0, r0, r1
    108a:	9002      	str	r0, [sp, #8]
    108c:	bd03      	pop	{r0, r1, pc}
    108e:	46c0      	nop			; (mov r8, r8)
    1090:	ffffff5d 	.word	0xffffff5d
    1094:	b403      	push	{r0, r1}
    1096:	4668      	mov	r0, sp
    1098:	b501      	push	{r0, lr}
    109a:	9802      	ldr	r0, [sp, #8]
    109c:	f000 f84c 	bl	1138 <__gnu_uldivmod_helper>
    10a0:	9b01      	ldr	r3, [sp, #4]
    10a2:	469e      	mov	lr, r3
    10a4:	b002      	add	sp, #8
    10a6:	bc0c      	pop	{r2, r3}
    10a8:	4770      	bx	lr
    10aa:	46c0      	nop			; (mov r8, r8)

000010ac <__aeabi_lmul>:
    10ac:	b5f0      	push	{r4, r5, r6, r7, lr}
    10ae:	464f      	mov	r7, r9
    10b0:	4646      	mov	r6, r8
    10b2:	0405      	lsls	r5, r0, #16
    10b4:	0c2d      	lsrs	r5, r5, #16
    10b6:	1c2c      	adds	r4, r5, #0
    10b8:	b4c0      	push	{r6, r7}
    10ba:	0417      	lsls	r7, r2, #16
    10bc:	0c16      	lsrs	r6, r2, #16
    10be:	0c3f      	lsrs	r7, r7, #16
    10c0:	4699      	mov	r9, r3
    10c2:	0c03      	lsrs	r3, r0, #16
    10c4:	437c      	muls	r4, r7
    10c6:	4375      	muls	r5, r6
    10c8:	435f      	muls	r7, r3
    10ca:	4373      	muls	r3, r6
    10cc:	197d      	adds	r5, r7, r5
    10ce:	0c26      	lsrs	r6, r4, #16
    10d0:	19ad      	adds	r5, r5, r6
    10d2:	469c      	mov	ip, r3
    10d4:	42af      	cmp	r7, r5
    10d6:	d903      	bls.n	10e0 <__aeabi_lmul+0x34>
    10d8:	2380      	movs	r3, #128	; 0x80
    10da:	025b      	lsls	r3, r3, #9
    10dc:	4698      	mov	r8, r3
    10de:	44c4      	add	ip, r8
    10e0:	464b      	mov	r3, r9
    10e2:	4351      	muls	r1, r2
    10e4:	4343      	muls	r3, r0
    10e6:	0424      	lsls	r4, r4, #16
    10e8:	0c2e      	lsrs	r6, r5, #16
    10ea:	0c24      	lsrs	r4, r4, #16
    10ec:	042d      	lsls	r5, r5, #16
    10ee:	4466      	add	r6, ip
    10f0:	192c      	adds	r4, r5, r4
    10f2:	1859      	adds	r1, r3, r1
    10f4:	1989      	adds	r1, r1, r6
    10f6:	1c20      	adds	r0, r4, #0
    10f8:	bc0c      	pop	{r2, r3}
    10fa:	4690      	mov	r8, r2
    10fc:	4699      	mov	r9, r3
    10fe:	bdf0      	pop	{r4, r5, r6, r7, pc}

00001100 <__gnu_ldivmod_helper>:
    1100:	b5f0      	push	{r4, r5, r6, r7, lr}
    1102:	b083      	sub	sp, #12
    1104:	1c16      	adds	r6, r2, #0
    1106:	1c1f      	adds	r7, r3, #0
    1108:	9000      	str	r0, [sp, #0]
    110a:	9101      	str	r1, [sp, #4]
    110c:	f000 fcfe 	bl	1b0c <__divdi3>
    1110:	1c04      	adds	r4, r0, #0
    1112:	1c0d      	adds	r5, r1, #0
    1114:	1c22      	adds	r2, r4, #0
    1116:	1c2b      	adds	r3, r5, #0
    1118:	1c30      	adds	r0, r6, #0
    111a:	1c39      	adds	r1, r7, #0
    111c:	f7ff ffc6 	bl	10ac <__aeabi_lmul>
    1120:	9a00      	ldr	r2, [sp, #0]
    1122:	9b01      	ldr	r3, [sp, #4]
    1124:	1a12      	subs	r2, r2, r0
    1126:	418b      	sbcs	r3, r1
    1128:	9908      	ldr	r1, [sp, #32]
    112a:	1c20      	adds	r0, r4, #0
    112c:	600a      	str	r2, [r1, #0]
    112e:	604b      	str	r3, [r1, #4]
    1130:	1c29      	adds	r1, r5, #0
    1132:	b003      	add	sp, #12
    1134:	bdf0      	pop	{r4, r5, r6, r7, pc}
    1136:	46c0      	nop			; (mov r8, r8)

00001138 <__gnu_uldivmod_helper>:
    1138:	b5f0      	push	{r4, r5, r6, r7, lr}
    113a:	1c14      	adds	r4, r2, #0
    113c:	b083      	sub	sp, #12
    113e:	1c1d      	adds	r5, r3, #0
    1140:	9000      	str	r0, [sp, #0]
    1142:	9101      	str	r1, [sp, #4]
    1144:	f000 fdda 	bl	1cfc <__udivdi3>
    1148:	1c22      	adds	r2, r4, #0
    114a:	1c2b      	adds	r3, r5, #0
    114c:	1c06      	adds	r6, r0, #0
    114e:	1c0f      	adds	r7, r1, #0
    1150:	f7ff ffac 	bl	10ac <__aeabi_lmul>
    1154:	9a00      	ldr	r2, [sp, #0]
    1156:	9b01      	ldr	r3, [sp, #4]
    1158:	1a12      	subs	r2, r2, r0
    115a:	418b      	sbcs	r3, r1
    115c:	9908      	ldr	r1, [sp, #32]
    115e:	1c30      	adds	r0, r6, #0
    1160:	600a      	str	r2, [r1, #0]
    1162:	604b      	str	r3, [r1, #4]
    1164:	1c39      	adds	r1, r7, #0
    1166:	b003      	add	sp, #12
    1168:	bdf0      	pop	{r4, r5, r6, r7, pc}
    116a:	46c0      	nop			; (mov r8, r8)

0000116c <__eqdf2>:
    116c:	b5f0      	push	{r4, r5, r6, r7, lr}
    116e:	465f      	mov	r7, fp
    1170:	464d      	mov	r5, r9
    1172:	4644      	mov	r4, r8
    1174:	4656      	mov	r6, sl
    1176:	b4f0      	push	{r4, r5, r6, r7}
    1178:	031f      	lsls	r7, r3, #12
    117a:	005c      	lsls	r4, r3, #1
    117c:	0fdb      	lsrs	r3, r3, #31
    117e:	4699      	mov	r9, r3
    1180:	4b1b      	ldr	r3, [pc, #108]	; (11f0 <__eqdf2+0x84>)
    1182:	030e      	lsls	r6, r1, #12
    1184:	004d      	lsls	r5, r1, #1
    1186:	0fc9      	lsrs	r1, r1, #31
    1188:	4684      	mov	ip, r0
    118a:	0b36      	lsrs	r6, r6, #12
    118c:	0d6d      	lsrs	r5, r5, #21
    118e:	468b      	mov	fp, r1
    1190:	4690      	mov	r8, r2
    1192:	0b3f      	lsrs	r7, r7, #12
    1194:	0d64      	lsrs	r4, r4, #21
    1196:	429d      	cmp	r5, r3
    1198:	d00c      	beq.n	11b4 <__eqdf2+0x48>
    119a:	4b15      	ldr	r3, [pc, #84]	; (11f0 <__eqdf2+0x84>)
    119c:	429c      	cmp	r4, r3
    119e:	d010      	beq.n	11c2 <__eqdf2+0x56>
    11a0:	2301      	movs	r3, #1
    11a2:	42a5      	cmp	r5, r4
    11a4:	d014      	beq.n	11d0 <__eqdf2+0x64>
    11a6:	1c18      	adds	r0, r3, #0
    11a8:	bc3c      	pop	{r2, r3, r4, r5}
    11aa:	4690      	mov	r8, r2
    11ac:	4699      	mov	r9, r3
    11ae:	46a2      	mov	sl, r4
    11b0:	46ab      	mov	fp, r5
    11b2:	bdf0      	pop	{r4, r5, r6, r7, pc}
    11b4:	1c31      	adds	r1, r6, #0
    11b6:	2301      	movs	r3, #1
    11b8:	4301      	orrs	r1, r0
    11ba:	d1f4      	bne.n	11a6 <__eqdf2+0x3a>
    11bc:	4b0c      	ldr	r3, [pc, #48]	; (11f0 <__eqdf2+0x84>)
    11be:	429c      	cmp	r4, r3
    11c0:	d1ee      	bne.n	11a0 <__eqdf2+0x34>
    11c2:	433a      	orrs	r2, r7
    11c4:	2301      	movs	r3, #1
    11c6:	2a00      	cmp	r2, #0
    11c8:	d1ed      	bne.n	11a6 <__eqdf2+0x3a>
    11ca:	2301      	movs	r3, #1
    11cc:	42a5      	cmp	r5, r4
    11ce:	d1ea      	bne.n	11a6 <__eqdf2+0x3a>
    11d0:	42be      	cmp	r6, r7
    11d2:	d1e8      	bne.n	11a6 <__eqdf2+0x3a>
    11d4:	45c4      	cmp	ip, r8
    11d6:	d1e6      	bne.n	11a6 <__eqdf2+0x3a>
    11d8:	45cb      	cmp	fp, r9
    11da:	d006      	beq.n	11ea <__eqdf2+0x7e>
    11dc:	2d00      	cmp	r5, #0
    11de:	d1e2      	bne.n	11a6 <__eqdf2+0x3a>
    11e0:	4330      	orrs	r0, r6
    11e2:	1c03      	adds	r3, r0, #0
    11e4:	1e58      	subs	r0, r3, #1
    11e6:	4183      	sbcs	r3, r0
    11e8:	e7dd      	b.n	11a6 <__eqdf2+0x3a>
    11ea:	2300      	movs	r3, #0
    11ec:	e7db      	b.n	11a6 <__eqdf2+0x3a>
    11ee:	46c0      	nop			; (mov r8, r8)
    11f0:	000007ff 	.word	0x000007ff

000011f4 <__gedf2>:
    11f4:	b5f0      	push	{r4, r5, r6, r7, lr}
    11f6:	4657      	mov	r7, sl
    11f8:	4645      	mov	r5, r8
    11fa:	464e      	mov	r6, r9
    11fc:	b4e0      	push	{r5, r6, r7}
    11fe:	030f      	lsls	r7, r1, #12
    1200:	004e      	lsls	r6, r1, #1
    1202:	0fc9      	lsrs	r1, r1, #31
    1204:	468a      	mov	sl, r1
    1206:	4932      	ldr	r1, [pc, #200]	; (12d0 <__gedf2+0xdc>)
    1208:	031d      	lsls	r5, r3, #12
    120a:	005c      	lsls	r4, r3, #1
    120c:	4684      	mov	ip, r0
    120e:	0b3f      	lsrs	r7, r7, #12
    1210:	0d76      	lsrs	r6, r6, #21
    1212:	4690      	mov	r8, r2
    1214:	0b2d      	lsrs	r5, r5, #12
    1216:	0d64      	lsrs	r4, r4, #21
    1218:	0fdb      	lsrs	r3, r3, #31
    121a:	428e      	cmp	r6, r1
    121c:	d00f      	beq.n	123e <__gedf2+0x4a>
    121e:	428c      	cmp	r4, r1
    1220:	d039      	beq.n	1296 <__gedf2+0xa2>
    1222:	2e00      	cmp	r6, #0
    1224:	d110      	bne.n	1248 <__gedf2+0x54>
    1226:	4338      	orrs	r0, r7
    1228:	4241      	negs	r1, r0
    122a:	4141      	adcs	r1, r0
    122c:	4689      	mov	r9, r1
    122e:	2c00      	cmp	r4, #0
    1230:	d127      	bne.n	1282 <__gedf2+0x8e>
    1232:	432a      	orrs	r2, r5
    1234:	d125      	bne.n	1282 <__gedf2+0x8e>
    1236:	2000      	movs	r0, #0
    1238:	2900      	cmp	r1, #0
    123a:	d10e      	bne.n	125a <__gedf2+0x66>
    123c:	e008      	b.n	1250 <__gedf2+0x5c>
    123e:	1c39      	adds	r1, r7, #0
    1240:	4301      	orrs	r1, r0
    1242:	d12e      	bne.n	12a2 <__gedf2+0xae>
    1244:	42b4      	cmp	r4, r6
    1246:	d026      	beq.n	1296 <__gedf2+0xa2>
    1248:	2c00      	cmp	r4, #0
    124a:	d00b      	beq.n	1264 <__gedf2+0x70>
    124c:	459a      	cmp	sl, r3
    124e:	d00d      	beq.n	126c <__gedf2+0x78>
    1250:	4653      	mov	r3, sl
    1252:	4259      	negs	r1, r3
    1254:	2301      	movs	r3, #1
    1256:	4319      	orrs	r1, r3
    1258:	1c08      	adds	r0, r1, #0
    125a:	bc1c      	pop	{r2, r3, r4}
    125c:	4690      	mov	r8, r2
    125e:	4699      	mov	r9, r3
    1260:	46a2      	mov	sl, r4
    1262:	bdf0      	pop	{r4, r5, r6, r7, pc}
    1264:	432a      	orrs	r2, r5
    1266:	d0f3      	beq.n	1250 <__gedf2+0x5c>
    1268:	459a      	cmp	sl, r3
    126a:	d1f1      	bne.n	1250 <__gedf2+0x5c>
    126c:	42a6      	cmp	r6, r4
    126e:	dcef      	bgt.n	1250 <__gedf2+0x5c>
    1270:	da1a      	bge.n	12a8 <__gedf2+0xb4>
    1272:	4650      	mov	r0, sl
    1274:	4241      	negs	r1, r0
    1276:	4148      	adcs	r0, r1
    1278:	2301      	movs	r3, #1
    127a:	4241      	negs	r1, r0
    127c:	4319      	orrs	r1, r3
    127e:	1c08      	adds	r0, r1, #0
    1280:	e7eb      	b.n	125a <__gedf2+0x66>
    1282:	464a      	mov	r2, r9
    1284:	2a00      	cmp	r2, #0
    1286:	d0e1      	beq.n	124c <__gedf2+0x58>
    1288:	4258      	negs	r0, r3
    128a:	4158      	adcs	r0, r3
    128c:	2201      	movs	r2, #1
    128e:	4241      	negs	r1, r0
    1290:	4311      	orrs	r1, r2
    1292:	1c08      	adds	r0, r1, #0
    1294:	e7e1      	b.n	125a <__gedf2+0x66>
    1296:	1c29      	adds	r1, r5, #0
    1298:	4311      	orrs	r1, r2
    129a:	d102      	bne.n	12a2 <__gedf2+0xae>
    129c:	2e00      	cmp	r6, #0
    129e:	d0c2      	beq.n	1226 <__gedf2+0x32>
    12a0:	e7d4      	b.n	124c <__gedf2+0x58>
    12a2:	2002      	movs	r0, #2
    12a4:	4240      	negs	r0, r0
    12a6:	e7d8      	b.n	125a <__gedf2+0x66>
    12a8:	42af      	cmp	r7, r5
    12aa:	d8d1      	bhi.n	1250 <__gedf2+0x5c>
    12ac:	d009      	beq.n	12c2 <__gedf2+0xce>
    12ae:	2000      	movs	r0, #0
    12b0:	42af      	cmp	r7, r5
    12b2:	d2d2      	bcs.n	125a <__gedf2+0x66>
    12b4:	4650      	mov	r0, sl
    12b6:	4241      	negs	r1, r0
    12b8:	4148      	adcs	r0, r1
    12ba:	2301      	movs	r3, #1
    12bc:	4240      	negs	r0, r0
    12be:	4318      	orrs	r0, r3
    12c0:	e7cb      	b.n	125a <__gedf2+0x66>
    12c2:	45c4      	cmp	ip, r8
    12c4:	d8c4      	bhi.n	1250 <__gedf2+0x5c>
    12c6:	2000      	movs	r0, #0
    12c8:	45c4      	cmp	ip, r8
    12ca:	d3f3      	bcc.n	12b4 <__gedf2+0xc0>
    12cc:	e7c5      	b.n	125a <__gedf2+0x66>
    12ce:	46c0      	nop			; (mov r8, r8)
    12d0:	000007ff 	.word	0x000007ff

000012d4 <__ledf2>:
    12d4:	b5f0      	push	{r4, r5, r6, r7, lr}
    12d6:	465f      	mov	r7, fp
    12d8:	464d      	mov	r5, r9
    12da:	4644      	mov	r4, r8
    12dc:	4656      	mov	r6, sl
    12de:	4680      	mov	r8, r0
    12e0:	b4f0      	push	{r4, r5, r6, r7}
    12e2:	1c06      	adds	r6, r0, #0
    12e4:	0308      	lsls	r0, r1, #12
    12e6:	0b00      	lsrs	r0, r0, #12
    12e8:	4684      	mov	ip, r0
    12ea:	482c      	ldr	r0, [pc, #176]	; (139c <__ledf2+0xc8>)
    12ec:	004c      	lsls	r4, r1, #1
    12ee:	031f      	lsls	r7, r3, #12
    12f0:	005d      	lsls	r5, r3, #1
    12f2:	0fc9      	lsrs	r1, r1, #31
    12f4:	0d64      	lsrs	r4, r4, #21
    12f6:	468b      	mov	fp, r1
    12f8:	4691      	mov	r9, r2
    12fa:	0b3f      	lsrs	r7, r7, #12
    12fc:	0d6d      	lsrs	r5, r5, #21
    12fe:	0fdb      	lsrs	r3, r3, #31
    1300:	4284      	cmp	r4, r0
    1302:	d012      	beq.n	132a <__ledf2+0x56>
    1304:	4285      	cmp	r5, r0
    1306:	d025      	beq.n	1354 <__ledf2+0x80>
    1308:	2c00      	cmp	r4, #0
    130a:	d114      	bne.n	1336 <__ledf2+0x62>
    130c:	4661      	mov	r1, ip
    130e:	430e      	orrs	r6, r1
    1310:	4270      	negs	r0, r6
    1312:	4146      	adcs	r6, r0
    1314:	2d00      	cmp	r5, #0
    1316:	d035      	beq.n	1384 <__ledf2+0xb0>
    1318:	2e00      	cmp	r6, #0
    131a:	d021      	beq.n	1360 <__ledf2+0x8c>
    131c:	4258      	negs	r0, r3
    131e:	4158      	adcs	r0, r3
    1320:	2101      	movs	r1, #1
    1322:	4243      	negs	r3, r0
    1324:	430b      	orrs	r3, r1
    1326:	1c18      	adds	r0, r3, #0
    1328:	e00e      	b.n	1348 <__ledf2+0x74>
    132a:	4661      	mov	r1, ip
    132c:	2002      	movs	r0, #2
    132e:	4331      	orrs	r1, r6
    1330:	d10a      	bne.n	1348 <__ledf2+0x74>
    1332:	42a5      	cmp	r5, r4
    1334:	d00e      	beq.n	1354 <__ledf2+0x80>
    1336:	2d00      	cmp	r5, #0
    1338:	d112      	bne.n	1360 <__ledf2+0x8c>
    133a:	433a      	orrs	r2, r7
    133c:	d110      	bne.n	1360 <__ledf2+0x8c>
    133e:	465b      	mov	r3, fp
    1340:	4259      	negs	r1, r3
    1342:	2301      	movs	r3, #1
    1344:	4319      	orrs	r1, r3
    1346:	1c08      	adds	r0, r1, #0
    1348:	bc3c      	pop	{r2, r3, r4, r5}
    134a:	4690      	mov	r8, r2
    134c:	4699      	mov	r9, r3
    134e:	46a2      	mov	sl, r4
    1350:	46ab      	mov	fp, r5
    1352:	bdf0      	pop	{r4, r5, r6, r7, pc}
    1354:	1c39      	adds	r1, r7, #0
    1356:	2002      	movs	r0, #2
    1358:	4311      	orrs	r1, r2
    135a:	d1f5      	bne.n	1348 <__ledf2+0x74>
    135c:	2c00      	cmp	r4, #0
    135e:	d0d5      	beq.n	130c <__ledf2+0x38>
    1360:	459b      	cmp	fp, r3
    1362:	d1ec      	bne.n	133e <__ledf2+0x6a>
    1364:	42ac      	cmp	r4, r5
    1366:	dcea      	bgt.n	133e <__ledf2+0x6a>
    1368:	db05      	blt.n	1376 <__ledf2+0xa2>
    136a:	45bc      	cmp	ip, r7
    136c:	d8e7      	bhi.n	133e <__ledf2+0x6a>
    136e:	d00f      	beq.n	1390 <__ledf2+0xbc>
    1370:	2000      	movs	r0, #0
    1372:	45bc      	cmp	ip, r7
    1374:	d2e8      	bcs.n	1348 <__ledf2+0x74>
    1376:	4658      	mov	r0, fp
    1378:	4241      	negs	r1, r0
    137a:	4148      	adcs	r0, r1
    137c:	4241      	negs	r1, r0
    137e:	2001      	movs	r0, #1
    1380:	4308      	orrs	r0, r1
    1382:	e7e1      	b.n	1348 <__ledf2+0x74>
    1384:	433a      	orrs	r2, r7
    1386:	d1c7      	bne.n	1318 <__ledf2+0x44>
    1388:	2000      	movs	r0, #0
    138a:	2e00      	cmp	r6, #0
    138c:	d1dc      	bne.n	1348 <__ledf2+0x74>
    138e:	e7d6      	b.n	133e <__ledf2+0x6a>
    1390:	45c8      	cmp	r8, r9
    1392:	d8d4      	bhi.n	133e <__ledf2+0x6a>
    1394:	2000      	movs	r0, #0
    1396:	45c8      	cmp	r8, r9
    1398:	d3ed      	bcc.n	1376 <__ledf2+0xa2>
    139a:	e7d5      	b.n	1348 <__ledf2+0x74>
    139c:	000007ff 	.word	0x000007ff

000013a0 <__aeabi_dmul>:
    13a0:	b5f0      	push	{r4, r5, r6, r7, lr}
    13a2:	465f      	mov	r7, fp
    13a4:	4656      	mov	r6, sl
    13a6:	464d      	mov	r5, r9
    13a8:	4644      	mov	r4, r8
    13aa:	b4f0      	push	{r4, r5, r6, r7}
    13ac:	1c05      	adds	r5, r0, #0
    13ae:	1c06      	adds	r6, r0, #0
    13b0:	0308      	lsls	r0, r1, #12
    13b2:	b087      	sub	sp, #28
    13b4:	4699      	mov	r9, r3
    13b6:	004f      	lsls	r7, r1, #1
    13b8:	0b03      	lsrs	r3, r0, #12
    13ba:	0fcc      	lsrs	r4, r1, #31
    13bc:	4692      	mov	sl, r2
    13be:	469b      	mov	fp, r3
    13c0:	0d7f      	lsrs	r7, r7, #21
    13c2:	9401      	str	r4, [sp, #4]
    13c4:	d067      	beq.n	1496 <__aeabi_dmul+0xf6>
    13c6:	4b6c      	ldr	r3, [pc, #432]	; (1578 <__aeabi_dmul+0x1d8>)
    13c8:	429f      	cmp	r7, r3
    13ca:	d036      	beq.n	143a <__aeabi_dmul+0x9a>
    13cc:	2080      	movs	r0, #128	; 0x80
    13ce:	465b      	mov	r3, fp
    13d0:	0340      	lsls	r0, r0, #13
    13d2:	4318      	orrs	r0, r3
    13d4:	00c0      	lsls	r0, r0, #3
    13d6:	0f6b      	lsrs	r3, r5, #29
    13d8:	4318      	orrs	r0, r3
    13da:	4b68      	ldr	r3, [pc, #416]	; (157c <__aeabi_dmul+0x1dc>)
    13dc:	4683      	mov	fp, r0
    13de:	469c      	mov	ip, r3
    13e0:	2300      	movs	r3, #0
    13e2:	4698      	mov	r8, r3
    13e4:	00ee      	lsls	r6, r5, #3
    13e6:	4467      	add	r7, ip
    13e8:	9300      	str	r3, [sp, #0]
    13ea:	464b      	mov	r3, r9
    13ec:	4649      	mov	r1, r9
    13ee:	031d      	lsls	r5, r3, #12
    13f0:	0fc9      	lsrs	r1, r1, #31
    13f2:	005b      	lsls	r3, r3, #1
    13f4:	4652      	mov	r2, sl
    13f6:	0b2d      	lsrs	r5, r5, #12
    13f8:	0d5b      	lsrs	r3, r3, #21
    13fa:	4689      	mov	r9, r1
    13fc:	d100      	bne.n	1400 <__aeabi_dmul+0x60>
    13fe:	e06e      	b.n	14de <__aeabi_dmul+0x13e>
    1400:	495d      	ldr	r1, [pc, #372]	; (1578 <__aeabi_dmul+0x1d8>)
    1402:	428b      	cmp	r3, r1
    1404:	d064      	beq.n	14d0 <__aeabi_dmul+0x130>
    1406:	2080      	movs	r0, #128	; 0x80
    1408:	495c      	ldr	r1, [pc, #368]	; (157c <__aeabi_dmul+0x1dc>)
    140a:	0340      	lsls	r0, r0, #13
    140c:	468c      	mov	ip, r1
    140e:	2100      	movs	r1, #0
    1410:	4305      	orrs	r5, r0
    1412:	00ed      	lsls	r5, r5, #3
    1414:	0f50      	lsrs	r0, r2, #29
    1416:	4305      	orrs	r5, r0
    1418:	00d2      	lsls	r2, r2, #3
    141a:	4463      	add	r3, ip
    141c:	4648      	mov	r0, r9
    141e:	18ff      	adds	r7, r7, r3
    1420:	1c7b      	adds	r3, r7, #1
    1422:	469a      	mov	sl, r3
    1424:	9b00      	ldr	r3, [sp, #0]
    1426:	4060      	eors	r0, r4
    1428:	9002      	str	r0, [sp, #8]
    142a:	430b      	orrs	r3, r1
    142c:	2b0f      	cmp	r3, #15
    142e:	d900      	bls.n	1432 <__aeabi_dmul+0x92>
    1430:	e0ac      	b.n	158c <__aeabi_dmul+0x1ec>
    1432:	4853      	ldr	r0, [pc, #332]	; (1580 <__aeabi_dmul+0x1e0>)
    1434:	009b      	lsls	r3, r3, #2
    1436:	58c3      	ldr	r3, [r0, r3]
    1438:	469f      	mov	pc, r3
    143a:	465b      	mov	r3, fp
    143c:	431d      	orrs	r5, r3
    143e:	d000      	beq.n	1442 <__aeabi_dmul+0xa2>
    1440:	e082      	b.n	1548 <__aeabi_dmul+0x1a8>
    1442:	2308      	movs	r3, #8
    1444:	9300      	str	r3, [sp, #0]
    1446:	2300      	movs	r3, #0
    1448:	469b      	mov	fp, r3
    144a:	3302      	adds	r3, #2
    144c:	2600      	movs	r6, #0
    144e:	4698      	mov	r8, r3
    1450:	e7cb      	b.n	13ea <__aeabi_dmul+0x4a>
    1452:	9b02      	ldr	r3, [sp, #8]
    1454:	9301      	str	r3, [sp, #4]
    1456:	4643      	mov	r3, r8
    1458:	2b02      	cmp	r3, #2
    145a:	d159      	bne.n	1510 <__aeabi_dmul+0x170>
    145c:	2401      	movs	r4, #1
    145e:	2500      	movs	r5, #0
    1460:	2600      	movs	r6, #0
    1462:	9b01      	ldr	r3, [sp, #4]
    1464:	401c      	ands	r4, r3
    1466:	4b44      	ldr	r3, [pc, #272]	; (1578 <__aeabi_dmul+0x1d8>)
    1468:	2100      	movs	r1, #0
    146a:	032d      	lsls	r5, r5, #12
    146c:	0d0a      	lsrs	r2, r1, #20
    146e:	0512      	lsls	r2, r2, #20
    1470:	0b2d      	lsrs	r5, r5, #12
    1472:	4315      	orrs	r5, r2
    1474:	4a43      	ldr	r2, [pc, #268]	; (1584 <__aeabi_dmul+0x1e4>)
    1476:	051b      	lsls	r3, r3, #20
    1478:	4015      	ands	r5, r2
    147a:	431d      	orrs	r5, r3
    147c:	006d      	lsls	r5, r5, #1
    147e:	07e4      	lsls	r4, r4, #31
    1480:	086d      	lsrs	r5, r5, #1
    1482:	4325      	orrs	r5, r4
    1484:	1c30      	adds	r0, r6, #0
    1486:	1c29      	adds	r1, r5, #0
    1488:	b007      	add	sp, #28
    148a:	bc3c      	pop	{r2, r3, r4, r5}
    148c:	4690      	mov	r8, r2
    148e:	4699      	mov	r9, r3
    1490:	46a2      	mov	sl, r4
    1492:	46ab      	mov	fp, r5
    1494:	bdf0      	pop	{r4, r5, r6, r7, pc}
    1496:	432b      	orrs	r3, r5
    1498:	d04e      	beq.n	1538 <__aeabi_dmul+0x198>
    149a:	465b      	mov	r3, fp
    149c:	2b00      	cmp	r3, #0
    149e:	d100      	bne.n	14a2 <__aeabi_dmul+0x102>
    14a0:	e185      	b.n	17ae <__aeabi_dmul+0x40e>
    14a2:	4658      	mov	r0, fp
    14a4:	f000 fb14 	bl	1ad0 <__clzsi2>
    14a8:	1c02      	adds	r2, r0, #0
    14aa:	2328      	movs	r3, #40	; 0x28
    14ac:	1c29      	adds	r1, r5, #0
    14ae:	1a9b      	subs	r3, r3, r2
    14b0:	1c16      	adds	r6, r2, #0
    14b2:	4658      	mov	r0, fp
    14b4:	40d9      	lsrs	r1, r3
    14b6:	3e08      	subs	r6, #8
    14b8:	40b0      	lsls	r0, r6
    14ba:	1c0b      	adds	r3, r1, #0
    14bc:	40b5      	lsls	r5, r6
    14be:	4303      	orrs	r3, r0
    14c0:	469b      	mov	fp, r3
    14c2:	1c2e      	adds	r6, r5, #0
    14c4:	2300      	movs	r3, #0
    14c6:	4f30      	ldr	r7, [pc, #192]	; (1588 <__aeabi_dmul+0x1e8>)
    14c8:	9300      	str	r3, [sp, #0]
    14ca:	1abf      	subs	r7, r7, r2
    14cc:	4698      	mov	r8, r3
    14ce:	e78c      	b.n	13ea <__aeabi_dmul+0x4a>
    14d0:	4651      	mov	r1, sl
    14d2:	4329      	orrs	r1, r5
    14d4:	d12e      	bne.n	1534 <__aeabi_dmul+0x194>
    14d6:	2500      	movs	r5, #0
    14d8:	2200      	movs	r2, #0
    14da:	2102      	movs	r1, #2
    14dc:	e79e      	b.n	141c <__aeabi_dmul+0x7c>
    14de:	4651      	mov	r1, sl
    14e0:	4329      	orrs	r1, r5
    14e2:	d023      	beq.n	152c <__aeabi_dmul+0x18c>
    14e4:	2d00      	cmp	r5, #0
    14e6:	d100      	bne.n	14ea <__aeabi_dmul+0x14a>
    14e8:	e154      	b.n	1794 <__aeabi_dmul+0x3f4>
    14ea:	1c28      	adds	r0, r5, #0
    14ec:	f000 faf0 	bl	1ad0 <__clzsi2>
    14f0:	1c03      	adds	r3, r0, #0
    14f2:	2128      	movs	r1, #40	; 0x28
    14f4:	4650      	mov	r0, sl
    14f6:	1ac9      	subs	r1, r1, r3
    14f8:	1c1a      	adds	r2, r3, #0
    14fa:	40c8      	lsrs	r0, r1
    14fc:	4651      	mov	r1, sl
    14fe:	3a08      	subs	r2, #8
    1500:	4091      	lsls	r1, r2
    1502:	4095      	lsls	r5, r2
    1504:	1c0a      	adds	r2, r1, #0
    1506:	4305      	orrs	r5, r0
    1508:	481f      	ldr	r0, [pc, #124]	; (1588 <__aeabi_dmul+0x1e8>)
    150a:	2100      	movs	r1, #0
    150c:	1ac3      	subs	r3, r0, r3
    150e:	e785      	b.n	141c <__aeabi_dmul+0x7c>
    1510:	2b03      	cmp	r3, #3
    1512:	d100      	bne.n	1516 <__aeabi_dmul+0x176>
    1514:	e1c2      	b.n	189c <__aeabi_dmul+0x4fc>
    1516:	2b01      	cmp	r3, #1
    1518:	d000      	beq.n	151c <__aeabi_dmul+0x17c>
    151a:	e16d      	b.n	17f8 <__aeabi_dmul+0x458>
    151c:	4644      	mov	r4, r8
    151e:	9b01      	ldr	r3, [sp, #4]
    1520:	2500      	movs	r5, #0
    1522:	401c      	ands	r4, r3
    1524:	b2e4      	uxtb	r4, r4
    1526:	2300      	movs	r3, #0
    1528:	2600      	movs	r6, #0
    152a:	e79d      	b.n	1468 <__aeabi_dmul+0xc8>
    152c:	2500      	movs	r5, #0
    152e:	2200      	movs	r2, #0
    1530:	2101      	movs	r1, #1
    1532:	e773      	b.n	141c <__aeabi_dmul+0x7c>
    1534:	2103      	movs	r1, #3
    1536:	e771      	b.n	141c <__aeabi_dmul+0x7c>
    1538:	2304      	movs	r3, #4
    153a:	9300      	str	r3, [sp, #0]
    153c:	2300      	movs	r3, #0
    153e:	469b      	mov	fp, r3
    1540:	3301      	adds	r3, #1
    1542:	2600      	movs	r6, #0
    1544:	4698      	mov	r8, r3
    1546:	e750      	b.n	13ea <__aeabi_dmul+0x4a>
    1548:	230c      	movs	r3, #12
    154a:	9300      	str	r3, [sp, #0]
    154c:	3b09      	subs	r3, #9
    154e:	4698      	mov	r8, r3
    1550:	e74b      	b.n	13ea <__aeabi_dmul+0x4a>
    1552:	2580      	movs	r5, #128	; 0x80
    1554:	2400      	movs	r4, #0
    1556:	032d      	lsls	r5, r5, #12
    1558:	2600      	movs	r6, #0
    155a:	4b07      	ldr	r3, [pc, #28]	; (1578 <__aeabi_dmul+0x1d8>)
    155c:	e784      	b.n	1468 <__aeabi_dmul+0xc8>
    155e:	464b      	mov	r3, r9
    1560:	46ab      	mov	fp, r5
    1562:	1c16      	adds	r6, r2, #0
    1564:	9301      	str	r3, [sp, #4]
    1566:	4688      	mov	r8, r1
    1568:	e775      	b.n	1456 <__aeabi_dmul+0xb6>
    156a:	9b02      	ldr	r3, [sp, #8]
    156c:	46ab      	mov	fp, r5
    156e:	1c16      	adds	r6, r2, #0
    1570:	9301      	str	r3, [sp, #4]
    1572:	4688      	mov	r8, r1
    1574:	e76f      	b.n	1456 <__aeabi_dmul+0xb6>
    1576:	46c0      	nop			; (mov r8, r8)
    1578:	000007ff 	.word	0x000007ff
    157c:	fffffc01 	.word	0xfffffc01
    1580:	00001fe4 	.word	0x00001fe4
    1584:	800fffff 	.word	0x800fffff
    1588:	fffffc0d 	.word	0xfffffc0d
    158c:	0c33      	lsrs	r3, r6, #16
    158e:	0436      	lsls	r6, r6, #16
    1590:	0c36      	lsrs	r6, r6, #16
    1592:	469c      	mov	ip, r3
    1594:	1c33      	adds	r3, r6, #0
    1596:	0c14      	lsrs	r4, r2, #16
    1598:	0412      	lsls	r2, r2, #16
    159a:	0c12      	lsrs	r2, r2, #16
    159c:	4353      	muls	r3, r2
    159e:	4698      	mov	r8, r3
    15a0:	4663      	mov	r3, ip
    15a2:	4353      	muls	r3, r2
    15a4:	4699      	mov	r9, r3
    15a6:	4663      	mov	r3, ip
    15a8:	4363      	muls	r3, r4
    15aa:	9301      	str	r3, [sp, #4]
    15ac:	1c33      	adds	r3, r6, #0
    15ae:	4641      	mov	r1, r8
    15b0:	4363      	muls	r3, r4
    15b2:	0c09      	lsrs	r1, r1, #16
    15b4:	444b      	add	r3, r9
    15b6:	185b      	adds	r3, r3, r1
    15b8:	4599      	cmp	r9, r3
    15ba:	d905      	bls.n	15c8 <__aeabi_dmul+0x228>
    15bc:	2080      	movs	r0, #128	; 0x80
    15be:	0240      	lsls	r0, r0, #9
    15c0:	4681      	mov	r9, r0
    15c2:	9901      	ldr	r1, [sp, #4]
    15c4:	4449      	add	r1, r9
    15c6:	9101      	str	r1, [sp, #4]
    15c8:	0c19      	lsrs	r1, r3, #16
    15ca:	9103      	str	r1, [sp, #12]
    15cc:	4641      	mov	r1, r8
    15ce:	0409      	lsls	r1, r1, #16
    15d0:	0c09      	lsrs	r1, r1, #16
    15d2:	041b      	lsls	r3, r3, #16
    15d4:	185b      	adds	r3, r3, r1
    15d6:	9304      	str	r3, [sp, #16]
    15d8:	0c2b      	lsrs	r3, r5, #16
    15da:	4698      	mov	r8, r3
    15dc:	1c33      	adds	r3, r6, #0
    15de:	042d      	lsls	r5, r5, #16
    15e0:	0c29      	lsrs	r1, r5, #16
    15e2:	434b      	muls	r3, r1
    15e4:	4660      	mov	r0, ip
    15e6:	9300      	str	r3, [sp, #0]
    15e8:	4643      	mov	r3, r8
    15ea:	4665      	mov	r5, ip
    15ec:	4358      	muls	r0, r3
    15ee:	435e      	muls	r6, r3
    15f0:	9b00      	ldr	r3, [sp, #0]
    15f2:	434d      	muls	r5, r1
    15f4:	0c1b      	lsrs	r3, r3, #16
    15f6:	4699      	mov	r9, r3
    15f8:	19ae      	adds	r6, r5, r6
    15fa:	444e      	add	r6, r9
    15fc:	4684      	mov	ip, r0
    15fe:	42b5      	cmp	r5, r6
    1600:	d903      	bls.n	160a <__aeabi_dmul+0x26a>
    1602:	2380      	movs	r3, #128	; 0x80
    1604:	025b      	lsls	r3, r3, #9
    1606:	4699      	mov	r9, r3
    1608:	44cc      	add	ip, r9
    160a:	0c35      	lsrs	r5, r6, #16
    160c:	1c2b      	adds	r3, r5, #0
    160e:	9803      	ldr	r0, [sp, #12]
    1610:	4463      	add	r3, ip
    1612:	4684      	mov	ip, r0
    1614:	9305      	str	r3, [sp, #20]
    1616:	9b00      	ldr	r3, [sp, #0]
    1618:	0436      	lsls	r6, r6, #16
    161a:	041b      	lsls	r3, r3, #16
    161c:	0c1b      	lsrs	r3, r3, #16
    161e:	18f3      	adds	r3, r6, r3
    1620:	449c      	add	ip, r3
    1622:	4660      	mov	r0, ip
    1624:	9003      	str	r0, [sp, #12]
    1626:	4658      	mov	r0, fp
    1628:	0405      	lsls	r5, r0, #16
    162a:	0c06      	lsrs	r6, r0, #16
    162c:	0c28      	lsrs	r0, r5, #16
    162e:	4684      	mov	ip, r0
    1630:	4350      	muls	r0, r2
    1632:	1c35      	adds	r5, r6, #0
    1634:	4681      	mov	r9, r0
    1636:	4660      	mov	r0, ip
    1638:	4365      	muls	r5, r4
    163a:	4344      	muls	r4, r0
    163c:	4648      	mov	r0, r9
    163e:	0c00      	lsrs	r0, r0, #16
    1640:	4683      	mov	fp, r0
    1642:	4372      	muls	r2, r6
    1644:	1914      	adds	r4, r2, r4
    1646:	445c      	add	r4, fp
    1648:	42a2      	cmp	r2, r4
    164a:	d903      	bls.n	1654 <__aeabi_dmul+0x2b4>
    164c:	2280      	movs	r2, #128	; 0x80
    164e:	0252      	lsls	r2, r2, #9
    1650:	4693      	mov	fp, r2
    1652:	445d      	add	r5, fp
    1654:	0c22      	lsrs	r2, r4, #16
    1656:	18ad      	adds	r5, r5, r2
    1658:	464a      	mov	r2, r9
    165a:	0412      	lsls	r2, r2, #16
    165c:	0c12      	lsrs	r2, r2, #16
    165e:	0424      	lsls	r4, r4, #16
    1660:	4640      	mov	r0, r8
    1662:	18a4      	adds	r4, r4, r2
    1664:	4662      	mov	r2, ip
    1666:	434a      	muls	r2, r1
    1668:	4371      	muls	r1, r6
    166a:	4346      	muls	r6, r0
    166c:	4660      	mov	r0, ip
    166e:	9600      	str	r6, [sp, #0]
    1670:	4646      	mov	r6, r8
    1672:	4370      	muls	r0, r6
    1674:	4680      	mov	r8, r0
    1676:	0c10      	lsrs	r0, r2, #16
    1678:	4684      	mov	ip, r0
    167a:	4488      	add	r8, r1
    167c:	44e0      	add	r8, ip
    167e:	4541      	cmp	r1, r8
    1680:	d905      	bls.n	168e <__aeabi_dmul+0x2ee>
    1682:	2180      	movs	r1, #128	; 0x80
    1684:	0249      	lsls	r1, r1, #9
    1686:	468c      	mov	ip, r1
    1688:	9900      	ldr	r1, [sp, #0]
    168a:	4461      	add	r1, ip
    168c:	9100      	str	r1, [sp, #0]
    168e:	9801      	ldr	r0, [sp, #4]
    1690:	9903      	ldr	r1, [sp, #12]
    1692:	4684      	mov	ip, r0
    1694:	4461      	add	r1, ip
    1696:	4299      	cmp	r1, r3
    1698:	419b      	sbcs	r3, r3
    169a:	425b      	negs	r3, r3
    169c:	4699      	mov	r9, r3
    169e:	9805      	ldr	r0, [sp, #20]
    16a0:	4643      	mov	r3, r8
    16a2:	4684      	mov	ip, r0
    16a4:	0412      	lsls	r2, r2, #16
    16a6:	0c12      	lsrs	r2, r2, #16
    16a8:	041b      	lsls	r3, r3, #16
    16aa:	189b      	adds	r3, r3, r2
    16ac:	4463      	add	r3, ip
    16ae:	469c      	mov	ip, r3
    16b0:	46ab      	mov	fp, r5
    16b2:	4283      	cmp	r3, r0
    16b4:	419b      	sbcs	r3, r3
    16b6:	4640      	mov	r0, r8
    16b8:	190a      	adds	r2, r1, r4
    16ba:	44cc      	add	ip, r9
    16bc:	42a2      	cmp	r2, r4
    16be:	4189      	sbcs	r1, r1
    16c0:	44e3      	add	fp, ip
    16c2:	45cc      	cmp	ip, r9
    16c4:	41b6      	sbcs	r6, r6
    16c6:	465c      	mov	r4, fp
    16c8:	0c00      	lsrs	r0, r0, #16
    16ca:	4680      	mov	r8, r0
    16cc:	4249      	negs	r1, r1
    16ce:	4276      	negs	r6, r6
    16d0:	425b      	negs	r3, r3
    16d2:	1864      	adds	r4, r4, r1
    16d4:	4333      	orrs	r3, r6
    16d6:	4498      	add	r8, r3
    16d8:	428c      	cmp	r4, r1
    16da:	4189      	sbcs	r1, r1
    16dc:	45ab      	cmp	fp, r5
    16de:	419b      	sbcs	r3, r3
    16e0:	4249      	negs	r1, r1
    16e2:	425b      	negs	r3, r3
    16e4:	4319      	orrs	r1, r3
    16e6:	1c0d      	adds	r5, r1, #0
    16e8:	9b00      	ldr	r3, [sp, #0]
    16ea:	4445      	add	r5, r8
    16ec:	18ee      	adds	r6, r5, r3
    16ee:	0276      	lsls	r6, r6, #9
    16f0:	0de5      	lsrs	r5, r4, #23
    16f2:	432e      	orrs	r6, r5
    16f4:	46b3      	mov	fp, r6
    16f6:	9b04      	ldr	r3, [sp, #16]
    16f8:	0256      	lsls	r6, r2, #9
    16fa:	431e      	orrs	r6, r3
    16fc:	1e73      	subs	r3, r6, #1
    16fe:	419e      	sbcs	r6, r3
    1700:	465b      	mov	r3, fp
    1702:	0dd2      	lsrs	r2, r2, #23
    1704:	4332      	orrs	r2, r6
    1706:	0266      	lsls	r6, r4, #9
    1708:	4316      	orrs	r6, r2
    170a:	01db      	lsls	r3, r3, #7
    170c:	d50a      	bpl.n	1724 <__aeabi_dmul+0x384>
    170e:	2301      	movs	r3, #1
    1710:	4033      	ands	r3, r6
    1712:	0876      	lsrs	r6, r6, #1
    1714:	431e      	orrs	r6, r3
    1716:	465b      	mov	r3, fp
    1718:	07db      	lsls	r3, r3, #31
    171a:	431e      	orrs	r6, r3
    171c:	465b      	mov	r3, fp
    171e:	085b      	lsrs	r3, r3, #1
    1720:	469b      	mov	fp, r3
    1722:	4657      	mov	r7, sl
    1724:	4b63      	ldr	r3, [pc, #396]	; (18b4 <__aeabi_dmul+0x514>)
    1726:	18fb      	adds	r3, r7, r3
    1728:	2b00      	cmp	r3, #0
    172a:	dd5a      	ble.n	17e2 <__aeabi_dmul+0x442>
    172c:	0772      	lsls	r2, r6, #29
    172e:	d009      	beq.n	1744 <__aeabi_dmul+0x3a4>
    1730:	220f      	movs	r2, #15
    1732:	4032      	ands	r2, r6
    1734:	2a04      	cmp	r2, #4
    1736:	d005      	beq.n	1744 <__aeabi_dmul+0x3a4>
    1738:	1d32      	adds	r2, r6, #4
    173a:	42b2      	cmp	r2, r6
    173c:	41b6      	sbcs	r6, r6
    173e:	4276      	negs	r6, r6
    1740:	44b3      	add	fp, r6
    1742:	1c16      	adds	r6, r2, #0
    1744:	465a      	mov	r2, fp
    1746:	01d2      	lsls	r2, r2, #7
    1748:	d506      	bpl.n	1758 <__aeabi_dmul+0x3b8>
    174a:	465a      	mov	r2, fp
    174c:	4b5a      	ldr	r3, [pc, #360]	; (18b8 <__aeabi_dmul+0x518>)
    174e:	401a      	ands	r2, r3
    1750:	2380      	movs	r3, #128	; 0x80
    1752:	4693      	mov	fp, r2
    1754:	00db      	lsls	r3, r3, #3
    1756:	18fb      	adds	r3, r7, r3
    1758:	4a58      	ldr	r2, [pc, #352]	; (18bc <__aeabi_dmul+0x51c>)
    175a:	4293      	cmp	r3, r2
    175c:	dd34      	ble.n	17c8 <__aeabi_dmul+0x428>
    175e:	2401      	movs	r4, #1
    1760:	9b02      	ldr	r3, [sp, #8]
    1762:	2500      	movs	r5, #0
    1764:	401c      	ands	r4, r3
    1766:	2600      	movs	r6, #0
    1768:	4b55      	ldr	r3, [pc, #340]	; (18c0 <__aeabi_dmul+0x520>)
    176a:	e67d      	b.n	1468 <__aeabi_dmul+0xc8>
    176c:	2080      	movs	r0, #128	; 0x80
    176e:	465b      	mov	r3, fp
    1770:	0300      	lsls	r0, r0, #12
    1772:	4203      	tst	r3, r0
    1774:	d008      	beq.n	1788 <__aeabi_dmul+0x3e8>
    1776:	4205      	tst	r5, r0
    1778:	d106      	bne.n	1788 <__aeabi_dmul+0x3e8>
    177a:	4305      	orrs	r5, r0
    177c:	032d      	lsls	r5, r5, #12
    177e:	0b2d      	lsrs	r5, r5, #12
    1780:	464c      	mov	r4, r9
    1782:	1c16      	adds	r6, r2, #0
    1784:	4b4e      	ldr	r3, [pc, #312]	; (18c0 <__aeabi_dmul+0x520>)
    1786:	e66f      	b.n	1468 <__aeabi_dmul+0xc8>
    1788:	465d      	mov	r5, fp
    178a:	4305      	orrs	r5, r0
    178c:	032d      	lsls	r5, r5, #12
    178e:	0b2d      	lsrs	r5, r5, #12
    1790:	4b4b      	ldr	r3, [pc, #300]	; (18c0 <__aeabi_dmul+0x520>)
    1792:	e669      	b.n	1468 <__aeabi_dmul+0xc8>
    1794:	4650      	mov	r0, sl
    1796:	f000 f99b 	bl	1ad0 <__clzsi2>
    179a:	1c03      	adds	r3, r0, #0
    179c:	3320      	adds	r3, #32
    179e:	2b27      	cmp	r3, #39	; 0x27
    17a0:	dc00      	bgt.n	17a4 <__aeabi_dmul+0x404>
    17a2:	e6a6      	b.n	14f2 <__aeabi_dmul+0x152>
    17a4:	4655      	mov	r5, sl
    17a6:	3808      	subs	r0, #8
    17a8:	4085      	lsls	r5, r0
    17aa:	2200      	movs	r2, #0
    17ac:	e6ac      	b.n	1508 <__aeabi_dmul+0x168>
    17ae:	1c28      	adds	r0, r5, #0
    17b0:	f000 f98e 	bl	1ad0 <__clzsi2>
    17b4:	1c02      	adds	r2, r0, #0
    17b6:	3220      	adds	r2, #32
    17b8:	2a27      	cmp	r2, #39	; 0x27
    17ba:	dc00      	bgt.n	17be <__aeabi_dmul+0x41e>
    17bc:	e675      	b.n	14aa <__aeabi_dmul+0x10a>
    17be:	3808      	subs	r0, #8
    17c0:	4085      	lsls	r5, r0
    17c2:	2600      	movs	r6, #0
    17c4:	46ab      	mov	fp, r5
    17c6:	e67d      	b.n	14c4 <__aeabi_dmul+0x124>
    17c8:	465a      	mov	r2, fp
    17ca:	08f6      	lsrs	r6, r6, #3
    17cc:	0752      	lsls	r2, r2, #29
    17ce:	4316      	orrs	r6, r2
    17d0:	465a      	mov	r2, fp
    17d2:	2401      	movs	r4, #1
    17d4:	0255      	lsls	r5, r2, #9
    17d6:	9a02      	ldr	r2, [sp, #8]
    17d8:	055b      	lsls	r3, r3, #21
    17da:	0b2d      	lsrs	r5, r5, #12
    17dc:	0d5b      	lsrs	r3, r3, #21
    17de:	4014      	ands	r4, r2
    17e0:	e642      	b.n	1468 <__aeabi_dmul+0xc8>
    17e2:	4d38      	ldr	r5, [pc, #224]	; (18c4 <__aeabi_dmul+0x524>)
    17e4:	1bed      	subs	r5, r5, r7
    17e6:	2d38      	cmp	r5, #56	; 0x38
    17e8:	dd0a      	ble.n	1800 <__aeabi_dmul+0x460>
    17ea:	2401      	movs	r4, #1
    17ec:	9b02      	ldr	r3, [sp, #8]
    17ee:	2500      	movs	r5, #0
    17f0:	401c      	ands	r4, r3
    17f2:	2600      	movs	r6, #0
    17f4:	2300      	movs	r3, #0
    17f6:	e637      	b.n	1468 <__aeabi_dmul+0xc8>
    17f8:	9b01      	ldr	r3, [sp, #4]
    17fa:	4657      	mov	r7, sl
    17fc:	9302      	str	r3, [sp, #8]
    17fe:	e791      	b.n	1724 <__aeabi_dmul+0x384>
    1800:	2d1f      	cmp	r5, #31
    1802:	dc25      	bgt.n	1850 <__aeabi_dmul+0x4b0>
    1804:	4b30      	ldr	r3, [pc, #192]	; (18c8 <__aeabi_dmul+0x528>)
    1806:	1c32      	adds	r2, r6, #0
    1808:	469c      	mov	ip, r3
    180a:	4467      	add	r7, ip
    180c:	40be      	lsls	r6, r7
    180e:	465b      	mov	r3, fp
    1810:	40bb      	lsls	r3, r7
    1812:	1c37      	adds	r7, r6, #0
    1814:	40ea      	lsrs	r2, r5
    1816:	1e7e      	subs	r6, r7, #1
    1818:	41b7      	sbcs	r7, r6
    181a:	4313      	orrs	r3, r2
    181c:	433b      	orrs	r3, r7
    181e:	1c1e      	adds	r6, r3, #0
    1820:	465b      	mov	r3, fp
    1822:	40eb      	lsrs	r3, r5
    1824:	1c1d      	adds	r5, r3, #0
    1826:	0773      	lsls	r3, r6, #29
    1828:	d009      	beq.n	183e <__aeabi_dmul+0x49e>
    182a:	230f      	movs	r3, #15
    182c:	4033      	ands	r3, r6
    182e:	2b04      	cmp	r3, #4
    1830:	d005      	beq.n	183e <__aeabi_dmul+0x49e>
    1832:	1d33      	adds	r3, r6, #4
    1834:	42b3      	cmp	r3, r6
    1836:	41b6      	sbcs	r6, r6
    1838:	4276      	negs	r6, r6
    183a:	19ad      	adds	r5, r5, r6
    183c:	1c1e      	adds	r6, r3, #0
    183e:	022b      	lsls	r3, r5, #8
    1840:	d520      	bpl.n	1884 <__aeabi_dmul+0x4e4>
    1842:	2401      	movs	r4, #1
    1844:	9b02      	ldr	r3, [sp, #8]
    1846:	2500      	movs	r5, #0
    1848:	401c      	ands	r4, r3
    184a:	2600      	movs	r6, #0
    184c:	2301      	movs	r3, #1
    184e:	e60b      	b.n	1468 <__aeabi_dmul+0xc8>
    1850:	465a      	mov	r2, fp
    1852:	4b1e      	ldr	r3, [pc, #120]	; (18cc <__aeabi_dmul+0x52c>)
    1854:	1bdb      	subs	r3, r3, r7
    1856:	40da      	lsrs	r2, r3
    1858:	1c13      	adds	r3, r2, #0
    185a:	2d20      	cmp	r5, #32
    185c:	d01c      	beq.n	1898 <__aeabi_dmul+0x4f8>
    185e:	4a1c      	ldr	r2, [pc, #112]	; (18d0 <__aeabi_dmul+0x530>)
    1860:	4694      	mov	ip, r2
    1862:	465a      	mov	r2, fp
    1864:	4467      	add	r7, ip
    1866:	40ba      	lsls	r2, r7
    1868:	1c17      	adds	r7, r2, #0
    186a:	433e      	orrs	r6, r7
    186c:	1e72      	subs	r2, r6, #1
    186e:	4196      	sbcs	r6, r2
    1870:	431e      	orrs	r6, r3
    1872:	2307      	movs	r3, #7
    1874:	2500      	movs	r5, #0
    1876:	4033      	ands	r3, r6
    1878:	d007      	beq.n	188a <__aeabi_dmul+0x4ea>
    187a:	230f      	movs	r3, #15
    187c:	2500      	movs	r5, #0
    187e:	4033      	ands	r3, r6
    1880:	2b04      	cmp	r3, #4
    1882:	d1d6      	bne.n	1832 <__aeabi_dmul+0x492>
    1884:	076b      	lsls	r3, r5, #29
    1886:	026d      	lsls	r5, r5, #9
    1888:	0b2d      	lsrs	r5, r5, #12
    188a:	2401      	movs	r4, #1
    188c:	08f6      	lsrs	r6, r6, #3
    188e:	431e      	orrs	r6, r3
    1890:	9b02      	ldr	r3, [sp, #8]
    1892:	401c      	ands	r4, r3
    1894:	2300      	movs	r3, #0
    1896:	e5e7      	b.n	1468 <__aeabi_dmul+0xc8>
    1898:	2700      	movs	r7, #0
    189a:	e7e6      	b.n	186a <__aeabi_dmul+0x4ca>
    189c:	2580      	movs	r5, #128	; 0x80
    189e:	465b      	mov	r3, fp
    18a0:	2401      	movs	r4, #1
    18a2:	032d      	lsls	r5, r5, #12
    18a4:	431d      	orrs	r5, r3
    18a6:	9b01      	ldr	r3, [sp, #4]
    18a8:	032d      	lsls	r5, r5, #12
    18aa:	4023      	ands	r3, r4
    18ac:	1c1c      	adds	r4, r3, #0
    18ae:	0b2d      	lsrs	r5, r5, #12
    18b0:	4b03      	ldr	r3, [pc, #12]	; (18c0 <__aeabi_dmul+0x520>)
    18b2:	e5d9      	b.n	1468 <__aeabi_dmul+0xc8>
    18b4:	000003ff 	.word	0x000003ff
    18b8:	feffffff 	.word	0xfeffffff
    18bc:	000007fe 	.word	0x000007fe
    18c0:	000007ff 	.word	0x000007ff
    18c4:	fffffc02 	.word	0xfffffc02
    18c8:	0000041e 	.word	0x0000041e
    18cc:	fffffbe2 	.word	0xfffffbe2
    18d0:	0000043e 	.word	0x0000043e

000018d4 <__aeabi_i2d>:
    18d4:	b538      	push	{r3, r4, r5, lr}
    18d6:	1e04      	subs	r4, r0, #0
    18d8:	d016      	beq.n	1908 <__aeabi_i2d+0x34>
    18da:	0fc5      	lsrs	r5, r0, #31
    18dc:	d000      	beq.n	18e0 <__aeabi_i2d+0xc>
    18de:	4244      	negs	r4, r0
    18e0:	1c20      	adds	r0, r4, #0
    18e2:	f000 f8f5 	bl	1ad0 <__clzsi2>
    18e6:	4b17      	ldr	r3, [pc, #92]	; (1944 <__aeabi_i2d+0x70>)
    18e8:	1a1b      	subs	r3, r3, r0
    18ea:	280a      	cmp	r0, #10
    18ec:	dc21      	bgt.n	1932 <__aeabi_i2d+0x5e>
    18ee:	1c02      	adds	r2, r0, #0
    18f0:	1c21      	adds	r1, r4, #0
    18f2:	3215      	adds	r2, #21
    18f4:	4091      	lsls	r1, r2
    18f6:	1c0a      	adds	r2, r1, #0
    18f8:	210b      	movs	r1, #11
    18fa:	1a08      	subs	r0, r1, r0
    18fc:	40c4      	lsrs	r4, r0
    18fe:	055b      	lsls	r3, r3, #21
    1900:	0324      	lsls	r4, r4, #12
    1902:	0b24      	lsrs	r4, r4, #12
    1904:	0d5b      	lsrs	r3, r3, #21
    1906:	e003      	b.n	1910 <__aeabi_i2d+0x3c>
    1908:	2500      	movs	r5, #0
    190a:	2300      	movs	r3, #0
    190c:	2400      	movs	r4, #0
    190e:	2200      	movs	r2, #0
    1910:	2100      	movs	r1, #0
    1912:	1c10      	adds	r0, r2, #0
    1914:	0324      	lsls	r4, r4, #12
    1916:	0d0a      	lsrs	r2, r1, #20
    1918:	0512      	lsls	r2, r2, #20
    191a:	0b24      	lsrs	r4, r4, #12
    191c:	4314      	orrs	r4, r2
    191e:	4a0a      	ldr	r2, [pc, #40]	; (1948 <__aeabi_i2d+0x74>)
    1920:	051b      	lsls	r3, r3, #20
    1922:	4014      	ands	r4, r2
    1924:	431c      	orrs	r4, r3
    1926:	0064      	lsls	r4, r4, #1
    1928:	07ed      	lsls	r5, r5, #31
    192a:	0864      	lsrs	r4, r4, #1
    192c:	432c      	orrs	r4, r5
    192e:	1c21      	adds	r1, r4, #0
    1930:	bd38      	pop	{r3, r4, r5, pc}
    1932:	380b      	subs	r0, #11
    1934:	4084      	lsls	r4, r0
    1936:	055b      	lsls	r3, r3, #21
    1938:	0324      	lsls	r4, r4, #12
    193a:	0b24      	lsrs	r4, r4, #12
    193c:	0d5b      	lsrs	r3, r3, #21
    193e:	2200      	movs	r2, #0
    1940:	e7e6      	b.n	1910 <__aeabi_i2d+0x3c>
    1942:	46c0      	nop			; (mov r8, r8)
    1944:	0000041e 	.word	0x0000041e
    1948:	800fffff 	.word	0x800fffff

0000194c <__aeabi_ui2d>:
    194c:	b510      	push	{r4, lr}
    194e:	1e04      	subs	r4, r0, #0
    1950:	d010      	beq.n	1974 <__aeabi_ui2d+0x28>
    1952:	f000 f8bd 	bl	1ad0 <__clzsi2>
    1956:	4a14      	ldr	r2, [pc, #80]	; (19a8 <__aeabi_ui2d+0x5c>)
    1958:	1a12      	subs	r2, r2, r0
    195a:	280a      	cmp	r0, #10
    195c:	dc1a      	bgt.n	1994 <__aeabi_ui2d+0x48>
    195e:	230b      	movs	r3, #11
    1960:	1c21      	adds	r1, r4, #0
    1962:	1a1b      	subs	r3, r3, r0
    1964:	40d9      	lsrs	r1, r3
    1966:	3015      	adds	r0, #21
    1968:	030b      	lsls	r3, r1, #12
    196a:	0552      	lsls	r2, r2, #21
    196c:	4084      	lsls	r4, r0
    196e:	0b1b      	lsrs	r3, r3, #12
    1970:	0d52      	lsrs	r2, r2, #21
    1972:	e001      	b.n	1978 <__aeabi_ui2d+0x2c>
    1974:	2200      	movs	r2, #0
    1976:	2300      	movs	r3, #0
    1978:	2100      	movs	r1, #0
    197a:	031b      	lsls	r3, r3, #12
    197c:	1c20      	adds	r0, r4, #0
    197e:	0b1c      	lsrs	r4, r3, #12
    1980:	0d0b      	lsrs	r3, r1, #20
    1982:	051b      	lsls	r3, r3, #20
    1984:	4323      	orrs	r3, r4
    1986:	4c09      	ldr	r4, [pc, #36]	; (19ac <__aeabi_ui2d+0x60>)
    1988:	0512      	lsls	r2, r2, #20
    198a:	4023      	ands	r3, r4
    198c:	4313      	orrs	r3, r2
    198e:	005b      	lsls	r3, r3, #1
    1990:	0859      	lsrs	r1, r3, #1
    1992:	bd10      	pop	{r4, pc}
    1994:	1c03      	adds	r3, r0, #0
    1996:	3b0b      	subs	r3, #11
    1998:	409c      	lsls	r4, r3
    199a:	0552      	lsls	r2, r2, #21
    199c:	0323      	lsls	r3, r4, #12
    199e:	0b1b      	lsrs	r3, r3, #12
    19a0:	0d52      	lsrs	r2, r2, #21
    19a2:	2400      	movs	r4, #0
    19a4:	e7e8      	b.n	1978 <__aeabi_ui2d+0x2c>
    19a6:	46c0      	nop			; (mov r8, r8)
    19a8:	0000041e 	.word	0x0000041e
    19ac:	800fffff 	.word	0x800fffff

000019b0 <__aeabi_d2f>:
    19b0:	b570      	push	{r4, r5, r6, lr}
    19b2:	030b      	lsls	r3, r1, #12
    19b4:	004d      	lsls	r5, r1, #1
    19b6:	0f44      	lsrs	r4, r0, #29
    19b8:	0d6d      	lsrs	r5, r5, #21
    19ba:	0a5b      	lsrs	r3, r3, #9
    19bc:	4323      	orrs	r3, r4
    19be:	1c6c      	adds	r4, r5, #1
    19c0:	0564      	lsls	r4, r4, #21
    19c2:	0fc9      	lsrs	r1, r1, #31
    19c4:	00c2      	lsls	r2, r0, #3
    19c6:	0d64      	lsrs	r4, r4, #21
    19c8:	2c01      	cmp	r4, #1
    19ca:	dd2a      	ble.n	1a22 <__aeabi_d2f+0x72>
    19cc:	4c3b      	ldr	r4, [pc, #236]	; (1abc <__aeabi_d2f+0x10c>)
    19ce:	192c      	adds	r4, r5, r4
    19d0:	2cfe      	cmp	r4, #254	; 0xfe
    19d2:	dc1a      	bgt.n	1a0a <__aeabi_d2f+0x5a>
    19d4:	2c00      	cmp	r4, #0
    19d6:	dd35      	ble.n	1a44 <__aeabi_d2f+0x94>
    19d8:	0180      	lsls	r0, r0, #6
    19da:	1e45      	subs	r5, r0, #1
    19dc:	41a8      	sbcs	r0, r5
    19de:	00db      	lsls	r3, r3, #3
    19e0:	4303      	orrs	r3, r0
    19e2:	0f52      	lsrs	r2, r2, #29
    19e4:	4313      	orrs	r3, r2
    19e6:	075a      	lsls	r2, r3, #29
    19e8:	d004      	beq.n	19f4 <__aeabi_d2f+0x44>
    19ea:	220f      	movs	r2, #15
    19ec:	401a      	ands	r2, r3
    19ee:	2a04      	cmp	r2, #4
    19f0:	d000      	beq.n	19f4 <__aeabi_d2f+0x44>
    19f2:	3304      	adds	r3, #4
    19f4:	2280      	movs	r2, #128	; 0x80
    19f6:	04d2      	lsls	r2, r2, #19
    19f8:	401a      	ands	r2, r3
    19fa:	d027      	beq.n	1a4c <__aeabi_d2f+0x9c>
    19fc:	3401      	adds	r4, #1
    19fe:	2cff      	cmp	r4, #255	; 0xff
    1a00:	d003      	beq.n	1a0a <__aeabi_d2f+0x5a>
    1a02:	019b      	lsls	r3, r3, #6
    1a04:	0a5b      	lsrs	r3, r3, #9
    1a06:	b2e4      	uxtb	r4, r4
    1a08:	e001      	b.n	1a0e <__aeabi_d2f+0x5e>
    1a0a:	24ff      	movs	r4, #255	; 0xff
    1a0c:	2300      	movs	r3, #0
    1a0e:	025b      	lsls	r3, r3, #9
    1a10:	05e4      	lsls	r4, r4, #23
    1a12:	0a5b      	lsrs	r3, r3, #9
    1a14:	4323      	orrs	r3, r4
    1a16:	005b      	lsls	r3, r3, #1
    1a18:	07c9      	lsls	r1, r1, #31
    1a1a:	085b      	lsrs	r3, r3, #1
    1a1c:	430b      	orrs	r3, r1
    1a1e:	1c18      	adds	r0, r3, #0
    1a20:	bd70      	pop	{r4, r5, r6, pc}
    1a22:	2d00      	cmp	r5, #0
    1a24:	d106      	bne.n	1a34 <__aeabi_d2f+0x84>
    1a26:	4313      	orrs	r3, r2
    1a28:	d10e      	bne.n	1a48 <__aeabi_d2f+0x98>
    1a2a:	2400      	movs	r4, #0
    1a2c:	025b      	lsls	r3, r3, #9
    1a2e:	0a5b      	lsrs	r3, r3, #9
    1a30:	b2e4      	uxtb	r4, r4
    1a32:	e7ec      	b.n	1a0e <__aeabi_d2f+0x5e>
    1a34:	431a      	orrs	r2, r3
    1a36:	d0e8      	beq.n	1a0a <__aeabi_d2f+0x5a>
    1a38:	2080      	movs	r0, #128	; 0x80
    1a3a:	00db      	lsls	r3, r3, #3
    1a3c:	0480      	lsls	r0, r0, #18
    1a3e:	4303      	orrs	r3, r0
    1a40:	24ff      	movs	r4, #255	; 0xff
    1a42:	e7d0      	b.n	19e6 <__aeabi_d2f+0x36>
    1a44:	3417      	adds	r4, #23
    1a46:	da0c      	bge.n	1a62 <__aeabi_d2f+0xb2>
    1a48:	2305      	movs	r3, #5
    1a4a:	2400      	movs	r4, #0
    1a4c:	08db      	lsrs	r3, r3, #3
    1a4e:	2cff      	cmp	r4, #255	; 0xff
    1a50:	d1ec      	bne.n	1a2c <__aeabi_d2f+0x7c>
    1a52:	2b00      	cmp	r3, #0
    1a54:	d02d      	beq.n	1ab2 <__aeabi_d2f+0x102>
    1a56:	2280      	movs	r2, #128	; 0x80
    1a58:	03d2      	lsls	r2, r2, #15
    1a5a:	4313      	orrs	r3, r2
    1a5c:	025b      	lsls	r3, r3, #9
    1a5e:	0a5b      	lsrs	r3, r3, #9
    1a60:	e7d5      	b.n	1a0e <__aeabi_d2f+0x5e>
    1a62:	2480      	movs	r4, #128	; 0x80
    1a64:	4816      	ldr	r0, [pc, #88]	; (1ac0 <__aeabi_d2f+0x110>)
    1a66:	0424      	lsls	r4, r4, #16
    1a68:	4323      	orrs	r3, r4
    1a6a:	1b40      	subs	r0, r0, r5
    1a6c:	281f      	cmp	r0, #31
    1a6e:	dc0d      	bgt.n	1a8c <__aeabi_d2f+0xdc>
    1a70:	4c14      	ldr	r4, [pc, #80]	; (1ac4 <__aeabi_d2f+0x114>)
    1a72:	46a4      	mov	ip, r4
    1a74:	4465      	add	r5, ip
    1a76:	40ab      	lsls	r3, r5
    1a78:	1c1c      	adds	r4, r3, #0
    1a7a:	1c13      	adds	r3, r2, #0
    1a7c:	40ab      	lsls	r3, r5
    1a7e:	1e5d      	subs	r5, r3, #1
    1a80:	41ab      	sbcs	r3, r5
    1a82:	40c2      	lsrs	r2, r0
    1a84:	4323      	orrs	r3, r4
    1a86:	4313      	orrs	r3, r2
    1a88:	2400      	movs	r4, #0
    1a8a:	e7ac      	b.n	19e6 <__aeabi_d2f+0x36>
    1a8c:	1c1e      	adds	r6, r3, #0
    1a8e:	4c0e      	ldr	r4, [pc, #56]	; (1ac8 <__aeabi_d2f+0x118>)
    1a90:	1b64      	subs	r4, r4, r5
    1a92:	40e6      	lsrs	r6, r4
    1a94:	1c34      	adds	r4, r6, #0
    1a96:	2820      	cmp	r0, #32
    1a98:	d00d      	beq.n	1ab6 <__aeabi_d2f+0x106>
    1a9a:	480c      	ldr	r0, [pc, #48]	; (1acc <__aeabi_d2f+0x11c>)
    1a9c:	4684      	mov	ip, r0
    1a9e:	4465      	add	r5, ip
    1aa0:	40ab      	lsls	r3, r5
    1aa2:	1c1d      	adds	r5, r3, #0
    1aa4:	432a      	orrs	r2, r5
    1aa6:	1e53      	subs	r3, r2, #1
    1aa8:	419a      	sbcs	r2, r3
    1aaa:	1c13      	adds	r3, r2, #0
    1aac:	4323      	orrs	r3, r4
    1aae:	2400      	movs	r4, #0
    1ab0:	e799      	b.n	19e6 <__aeabi_d2f+0x36>
    1ab2:	2300      	movs	r3, #0
    1ab4:	e7ab      	b.n	1a0e <__aeabi_d2f+0x5e>
    1ab6:	2500      	movs	r5, #0
    1ab8:	e7f4      	b.n	1aa4 <__aeabi_d2f+0xf4>
    1aba:	46c0      	nop			; (mov r8, r8)
    1abc:	fffffc80 	.word	0xfffffc80
    1ac0:	0000039e 	.word	0x0000039e
    1ac4:	fffffc82 	.word	0xfffffc82
    1ac8:	0000037e 	.word	0x0000037e
    1acc:	fffffca2 	.word	0xfffffca2

00001ad0 <__clzsi2>:
    1ad0:	211c      	movs	r1, #28
    1ad2:	2301      	movs	r3, #1
    1ad4:	041b      	lsls	r3, r3, #16
    1ad6:	4298      	cmp	r0, r3
    1ad8:	d301      	bcc.n	1ade <__clzsi2+0xe>
    1ada:	0c00      	lsrs	r0, r0, #16
    1adc:	3910      	subs	r1, #16
    1ade:	0a1b      	lsrs	r3, r3, #8
    1ae0:	4298      	cmp	r0, r3
    1ae2:	d301      	bcc.n	1ae8 <__clzsi2+0x18>
    1ae4:	0a00      	lsrs	r0, r0, #8
    1ae6:	3908      	subs	r1, #8
    1ae8:	091b      	lsrs	r3, r3, #4
    1aea:	4298      	cmp	r0, r3
    1aec:	d301      	bcc.n	1af2 <__clzsi2+0x22>
    1aee:	0900      	lsrs	r0, r0, #4
    1af0:	3904      	subs	r1, #4
    1af2:	a202      	add	r2, pc, #8	; (adr r2, 1afc <__clzsi2+0x2c>)
    1af4:	5c10      	ldrb	r0, [r2, r0]
    1af6:	1840      	adds	r0, r0, r1
    1af8:	4770      	bx	lr
    1afa:	46c0      	nop			; (mov r8, r8)
    1afc:	02020304 	.word	0x02020304
    1b00:	01010101 	.word	0x01010101
	...

00001b0c <__divdi3>:
    1b0c:	b5f0      	push	{r4, r5, r6, r7, lr}
    1b0e:	4644      	mov	r4, r8
    1b10:	465f      	mov	r7, fp
    1b12:	4656      	mov	r6, sl
    1b14:	464d      	mov	r5, r9
    1b16:	b4f0      	push	{r4, r5, r6, r7}
    1b18:	1c1c      	adds	r4, r3, #0
    1b1a:	b085      	sub	sp, #20
    1b1c:	2900      	cmp	r1, #0
    1b1e:	da00      	bge.n	1b22 <__divdi3+0x16>
    1b20:	e0a9      	b.n	1c76 <__divdi3+0x16a>
    1b22:	1c0f      	adds	r7, r1, #0
    1b24:	2100      	movs	r1, #0
    1b26:	1c06      	adds	r6, r0, #0
    1b28:	4688      	mov	r8, r1
    1b2a:	1c10      	adds	r0, r2, #0
    1b2c:	1c19      	adds	r1, r3, #0
    1b2e:	2c00      	cmp	r4, #0
    1b30:	da00      	bge.n	1b34 <__divdi3+0x28>
    1b32:	e097      	b.n	1c64 <__divdi3+0x158>
    1b34:	1c34      	adds	r4, r6, #0
    1b36:	1c3d      	adds	r5, r7, #0
    1b38:	4682      	mov	sl, r0
    1b3a:	4689      	mov	r9, r1
    1b3c:	42b9      	cmp	r1, r7
    1b3e:	d873      	bhi.n	1c28 <__divdi3+0x11c>
    1b40:	d070      	beq.n	1c24 <__divdi3+0x118>
    1b42:	4649      	mov	r1, r9
    1b44:	4650      	mov	r0, sl
    1b46:	f000 f985 	bl	1e54 <__clzdi2>
    1b4a:	4683      	mov	fp, r0
    1b4c:	1c39      	adds	r1, r7, #0
    1b4e:	1c30      	adds	r0, r6, #0
    1b50:	f000 f980 	bl	1e54 <__clzdi2>
    1b54:	465b      	mov	r3, fp
    1b56:	1a18      	subs	r0, r3, r0
    1b58:	1c03      	adds	r3, r0, #0
    1b5a:	4683      	mov	fp, r0
    1b5c:	3b20      	subs	r3, #32
    1b5e:	469c      	mov	ip, r3
    1b60:	d500      	bpl.n	1b64 <__divdi3+0x58>
    1b62:	e09c      	b.n	1c9e <__divdi3+0x192>
    1b64:	2300      	movs	r3, #0
    1b66:	2200      	movs	r2, #0
    1b68:	4651      	mov	r1, sl
    1b6a:	9200      	str	r2, [sp, #0]
    1b6c:	9301      	str	r3, [sp, #4]
    1b6e:	4663      	mov	r3, ip
    1b70:	4099      	lsls	r1, r3
    1b72:	9101      	str	r1, [sp, #4]
    1b74:	4651      	mov	r1, sl
    1b76:	4081      	lsls	r1, r0
    1b78:	9b01      	ldr	r3, [sp, #4]
    1b7a:	9100      	str	r1, [sp, #0]
    1b7c:	42bb      	cmp	r3, r7
    1b7e:	d900      	bls.n	1b82 <__divdi3+0x76>
    1b80:	e083      	b.n	1c8a <__divdi3+0x17e>
    1b82:	d100      	bne.n	1b86 <__divdi3+0x7a>
    1b84:	e07e      	b.n	1c84 <__divdi3+0x178>
    1b86:	9a00      	ldr	r2, [sp, #0]
    1b88:	9b01      	ldr	r3, [sp, #4]
    1b8a:	1c34      	adds	r4, r6, #0
    1b8c:	1c3d      	adds	r5, r7, #0
    1b8e:	1aa4      	subs	r4, r4, r2
    1b90:	419d      	sbcs	r5, r3
    1b92:	4663      	mov	r3, ip
    1b94:	2b00      	cmp	r3, #0
    1b96:	da00      	bge.n	1b9a <__divdi3+0x8e>
    1b98:	e09a      	b.n	1cd0 <__divdi3+0x1c4>
    1b9a:	2600      	movs	r6, #0
    1b9c:	2700      	movs	r7, #0
    1b9e:	9602      	str	r6, [sp, #8]
    1ba0:	9703      	str	r7, [sp, #12]
    1ba2:	3601      	adds	r6, #1
    1ba4:	409e      	lsls	r6, r3
    1ba6:	9603      	str	r6, [sp, #12]
    1ba8:	2601      	movs	r6, #1
    1baa:	4086      	lsls	r6, r0
    1bac:	9602      	str	r6, [sp, #8]
    1bae:	2800      	cmp	r0, #0
    1bb0:	d100      	bne.n	1bb4 <__divdi3+0xa8>
    1bb2:	e071      	b.n	1c98 <__divdi3+0x18c>
    1bb4:	9900      	ldr	r1, [sp, #0]
    1bb6:	9a01      	ldr	r2, [sp, #4]
    1bb8:	07d3      	lsls	r3, r2, #31
    1bba:	4699      	mov	r9, r3
    1bbc:	464b      	mov	r3, r9
    1bbe:	084e      	lsrs	r6, r1, #1
    1bc0:	431e      	orrs	r6, r3
    1bc2:	0857      	lsrs	r7, r2, #1
    1bc4:	2300      	movs	r3, #0
    1bc6:	2201      	movs	r2, #1
    1bc8:	e00c      	b.n	1be4 <__divdi3+0xd8>
    1bca:	42af      	cmp	r7, r5
    1bcc:	d101      	bne.n	1bd2 <__divdi3+0xc6>
    1bce:	42a6      	cmp	r6, r4
    1bd0:	d80a      	bhi.n	1be8 <__divdi3+0xdc>
    1bd2:	1ba4      	subs	r4, r4, r6
    1bd4:	41bd      	sbcs	r5, r7
    1bd6:	1924      	adds	r4, r4, r4
    1bd8:	416d      	adcs	r5, r5
    1bda:	3801      	subs	r0, #1
    1bdc:	18a4      	adds	r4, r4, r2
    1bde:	415d      	adcs	r5, r3
    1be0:	2800      	cmp	r0, #0
    1be2:	d006      	beq.n	1bf2 <__divdi3+0xe6>
    1be4:	42af      	cmp	r7, r5
    1be6:	d9f0      	bls.n	1bca <__divdi3+0xbe>
    1be8:	3801      	subs	r0, #1
    1bea:	1924      	adds	r4, r4, r4
    1bec:	416d      	adcs	r5, r5
    1bee:	2800      	cmp	r0, #0
    1bf0:	d1f8      	bne.n	1be4 <__divdi3+0xd8>
    1bf2:	2220      	movs	r2, #32
    1bf4:	9e02      	ldr	r6, [sp, #8]
    1bf6:	9f03      	ldr	r7, [sp, #12]
    1bf8:	465b      	mov	r3, fp
    1bfa:	4252      	negs	r2, r2
    1bfc:	1936      	adds	r6, r6, r4
    1bfe:	416f      	adcs	r7, r5
    1c00:	1899      	adds	r1, r3, r2
    1c02:	d45a      	bmi.n	1cba <__divdi3+0x1ae>
    1c04:	1c28      	adds	r0, r5, #0
    1c06:	40c8      	lsrs	r0, r1
    1c08:	1c2c      	adds	r4, r5, #0
    1c0a:	465b      	mov	r3, fp
    1c0c:	40dc      	lsrs	r4, r3
    1c0e:	2900      	cmp	r1, #0
    1c10:	db68      	blt.n	1ce4 <__divdi3+0x1d8>
    1c12:	1c04      	adds	r4, r0, #0
    1c14:	408c      	lsls	r4, r1
    1c16:	1c23      	adds	r3, r4, #0
    1c18:	4659      	mov	r1, fp
    1c1a:	4088      	lsls	r0, r1
    1c1c:	1c02      	adds	r2, r0, #0
    1c1e:	1ab6      	subs	r6, r6, r2
    1c20:	419f      	sbcs	r7, r3
    1c22:	e003      	b.n	1c2c <__divdi3+0x120>
    1c24:	42b0      	cmp	r0, r6
    1c26:	d98c      	bls.n	1b42 <__divdi3+0x36>
    1c28:	2600      	movs	r6, #0
    1c2a:	2700      	movs	r7, #0
    1c2c:	4641      	mov	r1, r8
    1c2e:	1e4b      	subs	r3, r1, #1
    1c30:	4199      	sbcs	r1, r3
    1c32:	2300      	movs	r3, #0
    1c34:	9100      	str	r1, [sp, #0]
    1c36:	9301      	str	r3, [sp, #4]
    1c38:	9a00      	ldr	r2, [sp, #0]
    1c3a:	9b01      	ldr	r3, [sp, #4]
    1c3c:	2500      	movs	r5, #0
    1c3e:	4254      	negs	r4, r2
    1c40:	419d      	sbcs	r5, r3
    1c42:	1c33      	adds	r3, r6, #0
    1c44:	4063      	eors	r3, r4
    1c46:	1c18      	adds	r0, r3, #0
    1c48:	1c3b      	adds	r3, r7, #0
    1c4a:	406b      	eors	r3, r5
    1c4c:	1c19      	adds	r1, r3, #0
    1c4e:	9b00      	ldr	r3, [sp, #0]
    1c50:	9c01      	ldr	r4, [sp, #4]
    1c52:	18c0      	adds	r0, r0, r3
    1c54:	4161      	adcs	r1, r4
    1c56:	b005      	add	sp, #20
    1c58:	bc3c      	pop	{r2, r3, r4, r5}
    1c5a:	4690      	mov	r8, r2
    1c5c:	4699      	mov	r9, r3
    1c5e:	46a2      	mov	sl, r4
    1c60:	46ab      	mov	fp, r5
    1c62:	bdf0      	pop	{r4, r5, r6, r7, pc}
    1c64:	4643      	mov	r3, r8
    1c66:	43db      	mvns	r3, r3
    1c68:	1c0c      	adds	r4, r1, #0
    1c6a:	4698      	mov	r8, r3
    1c6c:	1c13      	adds	r3, r2, #0
    1c6e:	2100      	movs	r1, #0
    1c70:	4258      	negs	r0, r3
    1c72:	41a1      	sbcs	r1, r4
    1c74:	e75e      	b.n	1b34 <__divdi3+0x28>
    1c76:	2700      	movs	r7, #0
    1c78:	4246      	negs	r6, r0
    1c7a:	418f      	sbcs	r7, r1
    1c7c:	2101      	movs	r1, #1
    1c7e:	4249      	negs	r1, r1
    1c80:	4688      	mov	r8, r1
    1c82:	e752      	b.n	1b2a <__divdi3+0x1e>
    1c84:	42b1      	cmp	r1, r6
    1c86:	d800      	bhi.n	1c8a <__divdi3+0x17e>
    1c88:	e77d      	b.n	1b86 <__divdi3+0x7a>
    1c8a:	2600      	movs	r6, #0
    1c8c:	2700      	movs	r7, #0
    1c8e:	9602      	str	r6, [sp, #8]
    1c90:	9703      	str	r7, [sp, #12]
    1c92:	2800      	cmp	r0, #0
    1c94:	d000      	beq.n	1c98 <__divdi3+0x18c>
    1c96:	e78d      	b.n	1bb4 <__divdi3+0xa8>
    1c98:	9e02      	ldr	r6, [sp, #8]
    1c9a:	9f03      	ldr	r7, [sp, #12]
    1c9c:	e7c6      	b.n	1c2c <__divdi3+0x120>
    1c9e:	2120      	movs	r1, #32
    1ca0:	4653      	mov	r3, sl
    1ca2:	1a09      	subs	r1, r1, r0
    1ca4:	40cb      	lsrs	r3, r1
    1ca6:	2200      	movs	r2, #0
    1ca8:	1c19      	adds	r1, r3, #0
    1caa:	2300      	movs	r3, #0
    1cac:	9200      	str	r2, [sp, #0]
    1cae:	9301      	str	r3, [sp, #4]
    1cb0:	464b      	mov	r3, r9
    1cb2:	4083      	lsls	r3, r0
    1cb4:	430b      	orrs	r3, r1
    1cb6:	9301      	str	r3, [sp, #4]
    1cb8:	e75c      	b.n	1b74 <__divdi3+0x68>
    1cba:	465a      	mov	r2, fp
    1cbc:	2320      	movs	r3, #32
    1cbe:	1a9b      	subs	r3, r3, r2
    1cc0:	1c2a      	adds	r2, r5, #0
    1cc2:	409a      	lsls	r2, r3
    1cc4:	1c20      	adds	r0, r4, #0
    1cc6:	1c13      	adds	r3, r2, #0
    1cc8:	465a      	mov	r2, fp
    1cca:	40d0      	lsrs	r0, r2
    1ccc:	4318      	orrs	r0, r3
    1cce:	e79b      	b.n	1c08 <__divdi3+0xfc>
    1cd0:	2620      	movs	r6, #32
    1cd2:	2700      	movs	r7, #0
    1cd4:	1a33      	subs	r3, r6, r0
    1cd6:	2600      	movs	r6, #0
    1cd8:	9602      	str	r6, [sp, #8]
    1cda:	9703      	str	r7, [sp, #12]
    1cdc:	2701      	movs	r7, #1
    1cde:	40df      	lsrs	r7, r3
    1ce0:	9703      	str	r7, [sp, #12]
    1ce2:	e761      	b.n	1ba8 <__divdi3+0x9c>
    1ce4:	465b      	mov	r3, fp
    1ce6:	2120      	movs	r1, #32
    1ce8:	465d      	mov	r5, fp
    1cea:	1ac9      	subs	r1, r1, r3
    1cec:	1c03      	adds	r3, r0, #0
    1cee:	40ac      	lsls	r4, r5
    1cf0:	40cb      	lsrs	r3, r1
    1cf2:	1c19      	adds	r1, r3, #0
    1cf4:	1c23      	adds	r3, r4, #0
    1cf6:	430b      	orrs	r3, r1
    1cf8:	e78e      	b.n	1c18 <__divdi3+0x10c>
    1cfa:	46c0      	nop			; (mov r8, r8)

00001cfc <__udivdi3>:
    1cfc:	b5f0      	push	{r4, r5, r6, r7, lr}
    1cfe:	4645      	mov	r5, r8
    1d00:	464e      	mov	r6, r9
    1d02:	4657      	mov	r7, sl
    1d04:	b4e0      	push	{r5, r6, r7}
    1d06:	1c04      	adds	r4, r0, #0
    1d08:	b082      	sub	sp, #8
    1d0a:	1c0d      	adds	r5, r1, #0
    1d0c:	4691      	mov	r9, r2
    1d0e:	4698      	mov	r8, r3
    1d10:	428b      	cmp	r3, r1
    1d12:	d862      	bhi.n	1dda <__udivdi3+0xde>
    1d14:	d05f      	beq.n	1dd6 <__udivdi3+0xda>
    1d16:	4641      	mov	r1, r8
    1d18:	4648      	mov	r0, r9
    1d1a:	f000 f89b 	bl	1e54 <__clzdi2>
    1d1e:	1c29      	adds	r1, r5, #0
    1d20:	1c06      	adds	r6, r0, #0
    1d22:	1c20      	adds	r0, r4, #0
    1d24:	f000 f896 	bl	1e54 <__clzdi2>
    1d28:	2320      	movs	r3, #32
    1d2a:	1a31      	subs	r1, r6, r0
    1d2c:	425b      	negs	r3, r3
    1d2e:	468a      	mov	sl, r1
    1d30:	18c8      	adds	r0, r1, r3
    1d32:	d465      	bmi.n	1e00 <__udivdi3+0x104>
    1d34:	464b      	mov	r3, r9
    1d36:	4083      	lsls	r3, r0
    1d38:	1c1f      	adds	r7, r3, #0
    1d3a:	464b      	mov	r3, r9
    1d3c:	408b      	lsls	r3, r1
    1d3e:	1c1e      	adds	r6, r3, #0
    1d40:	42af      	cmp	r7, r5
    1d42:	d858      	bhi.n	1df6 <__udivdi3+0xfa>
    1d44:	d055      	beq.n	1df2 <__udivdi3+0xf6>
    1d46:	1ba4      	subs	r4, r4, r6
    1d48:	41bd      	sbcs	r5, r7
    1d4a:	2800      	cmp	r0, #0
    1d4c:	da00      	bge.n	1d50 <__udivdi3+0x54>
    1d4e:	e077      	b.n	1e40 <__udivdi3+0x144>
    1d50:	2200      	movs	r2, #0
    1d52:	2300      	movs	r3, #0
    1d54:	9200      	str	r2, [sp, #0]
    1d56:	9301      	str	r3, [sp, #4]
    1d58:	3201      	adds	r2, #1
    1d5a:	4082      	lsls	r2, r0
    1d5c:	9201      	str	r2, [sp, #4]
    1d5e:	2301      	movs	r3, #1
    1d60:	408b      	lsls	r3, r1
    1d62:	9300      	str	r3, [sp, #0]
    1d64:	2900      	cmp	r1, #0
    1d66:	d03c      	beq.n	1de2 <__udivdi3+0xe6>
    1d68:	07fb      	lsls	r3, r7, #31
    1d6a:	4698      	mov	r8, r3
    1d6c:	4640      	mov	r0, r8
    1d6e:	0872      	lsrs	r2, r6, #1
    1d70:	087b      	lsrs	r3, r7, #1
    1d72:	4302      	orrs	r2, r0
    1d74:	2601      	movs	r6, #1
    1d76:	2700      	movs	r7, #0
    1d78:	e00c      	b.n	1d94 <__udivdi3+0x98>
    1d7a:	42ab      	cmp	r3, r5
    1d7c:	d101      	bne.n	1d82 <__udivdi3+0x86>
    1d7e:	42a2      	cmp	r2, r4
    1d80:	d80a      	bhi.n	1d98 <__udivdi3+0x9c>
    1d82:	1aa4      	subs	r4, r4, r2
    1d84:	419d      	sbcs	r5, r3
    1d86:	1924      	adds	r4, r4, r4
    1d88:	416d      	adcs	r5, r5
    1d8a:	3901      	subs	r1, #1
    1d8c:	19a4      	adds	r4, r4, r6
    1d8e:	417d      	adcs	r5, r7
    1d90:	2900      	cmp	r1, #0
    1d92:	d006      	beq.n	1da2 <__udivdi3+0xa6>
    1d94:	42ab      	cmp	r3, r5
    1d96:	d9f0      	bls.n	1d7a <__udivdi3+0x7e>
    1d98:	3901      	subs	r1, #1
    1d9a:	1924      	adds	r4, r4, r4
    1d9c:	416d      	adcs	r5, r5
    1d9e:	2900      	cmp	r1, #0
    1da0:	d1f8      	bne.n	1d94 <__udivdi3+0x98>
    1da2:	2220      	movs	r2, #32
    1da4:	9800      	ldr	r0, [sp, #0]
    1da6:	9901      	ldr	r1, [sp, #4]
    1da8:	4653      	mov	r3, sl
    1daa:	4252      	negs	r2, r2
    1dac:	1900      	adds	r0, r0, r4
    1dae:	4169      	adcs	r1, r5
    1db0:	189e      	adds	r6, r3, r2
    1db2:	d43a      	bmi.n	1e2a <__udivdi3+0x12e>
    1db4:	1c2f      	adds	r7, r5, #0
    1db6:	40f7      	lsrs	r7, r6
    1db8:	4653      	mov	r3, sl
    1dba:	40dd      	lsrs	r5, r3
    1dbc:	2e00      	cmp	r6, #0
    1dbe:	db29      	blt.n	1e14 <__udivdi3+0x118>
    1dc0:	1c3c      	adds	r4, r7, #0
    1dc2:	40b4      	lsls	r4, r6
    1dc4:	1c23      	adds	r3, r4, #0
    1dc6:	4654      	mov	r4, sl
    1dc8:	40a7      	lsls	r7, r4
    1dca:	1c3a      	adds	r2, r7, #0
    1dcc:	1a80      	subs	r0, r0, r2
    1dce:	4199      	sbcs	r1, r3
    1dd0:	9000      	str	r0, [sp, #0]
    1dd2:	9101      	str	r1, [sp, #4]
    1dd4:	e005      	b.n	1de2 <__udivdi3+0xe6>
    1dd6:	4282      	cmp	r2, r0
    1dd8:	d99d      	bls.n	1d16 <__udivdi3+0x1a>
    1dda:	2300      	movs	r3, #0
    1ddc:	2400      	movs	r4, #0
    1dde:	9300      	str	r3, [sp, #0]
    1de0:	9401      	str	r4, [sp, #4]
    1de2:	9800      	ldr	r0, [sp, #0]
    1de4:	9901      	ldr	r1, [sp, #4]
    1de6:	b002      	add	sp, #8
    1de8:	bc1c      	pop	{r2, r3, r4}
    1dea:	4690      	mov	r8, r2
    1dec:	4699      	mov	r9, r3
    1dee:	46a2      	mov	sl, r4
    1df0:	bdf0      	pop	{r4, r5, r6, r7, pc}
    1df2:	42a3      	cmp	r3, r4
    1df4:	d9a7      	bls.n	1d46 <__udivdi3+0x4a>
    1df6:	2200      	movs	r2, #0
    1df8:	2300      	movs	r3, #0
    1dfa:	9200      	str	r2, [sp, #0]
    1dfc:	9301      	str	r3, [sp, #4]
    1dfe:	e7b1      	b.n	1d64 <__udivdi3+0x68>
    1e00:	2220      	movs	r2, #32
    1e02:	464b      	mov	r3, r9
    1e04:	1a52      	subs	r2, r2, r1
    1e06:	40d3      	lsrs	r3, r2
    1e08:	1c1a      	adds	r2, r3, #0
    1e0a:	4643      	mov	r3, r8
    1e0c:	408b      	lsls	r3, r1
    1e0e:	1c1f      	adds	r7, r3, #0
    1e10:	4317      	orrs	r7, r2
    1e12:	e792      	b.n	1d3a <__udivdi3+0x3e>
    1e14:	4653      	mov	r3, sl
    1e16:	2420      	movs	r4, #32
    1e18:	4656      	mov	r6, sl
    1e1a:	1ae4      	subs	r4, r4, r3
    1e1c:	1c3b      	adds	r3, r7, #0
    1e1e:	40b5      	lsls	r5, r6
    1e20:	40e3      	lsrs	r3, r4
    1e22:	1c1c      	adds	r4, r3, #0
    1e24:	1c2b      	adds	r3, r5, #0
    1e26:	4323      	orrs	r3, r4
    1e28:	e7cd      	b.n	1dc6 <__udivdi3+0xca>
    1e2a:	4652      	mov	r2, sl
    1e2c:	2320      	movs	r3, #32
    1e2e:	1a9b      	subs	r3, r3, r2
    1e30:	1c2a      	adds	r2, r5, #0
    1e32:	409a      	lsls	r2, r3
    1e34:	1c27      	adds	r7, r4, #0
    1e36:	1c13      	adds	r3, r2, #0
    1e38:	4652      	mov	r2, sl
    1e3a:	40d7      	lsrs	r7, r2
    1e3c:	431f      	orrs	r7, r3
    1e3e:	e7bb      	b.n	1db8 <__udivdi3+0xbc>
    1e40:	2320      	movs	r3, #32
    1e42:	2200      	movs	r2, #0
    1e44:	1a58      	subs	r0, r3, r1
    1e46:	2300      	movs	r3, #0
    1e48:	9200      	str	r2, [sp, #0]
    1e4a:	9301      	str	r3, [sp, #4]
    1e4c:	3201      	adds	r2, #1
    1e4e:	40c2      	lsrs	r2, r0
    1e50:	9201      	str	r2, [sp, #4]
    1e52:	e784      	b.n	1d5e <__udivdi3+0x62>

00001e54 <__clzdi2>:
    1e54:	b510      	push	{r4, lr}
    1e56:	2900      	cmp	r1, #0
    1e58:	d103      	bne.n	1e62 <__clzdi2+0xe>
    1e5a:	f7ff fe39 	bl	1ad0 <__clzsi2>
    1e5e:	3020      	adds	r0, #32
    1e60:	e002      	b.n	1e68 <__clzdi2+0x14>
    1e62:	1c08      	adds	r0, r1, #0
    1e64:	f7ff fe34 	bl	1ad0 <__clzsi2>
    1e68:	bd10      	pop	{r4, pc}
    1e6a:	46c0      	nop			; (mov r8, r8)

00001e6c <lookupTable.12179>:
    1e6c:	8d20 ffff ada1 ffff ce64 ffff ef6c ffff      .......d...l...
    1e7c:	10b7 0000 324a 0000 5425 0000 7649 0000     ....J2..%T..Iv..
    1e8c:	98b7 0000 bb72 0000 de79 0000 01d0 0001     ....r...y.......
    1e9c:	2576 0001 496f 0001 6dbc 0001 925e 0001     v%..oI...m..^...
    1eac:	b758 0001 dcaa 0001 0258 0002 2862 0002     X.......X...b(..
    1ebc:	4ecc 0002 7596 0002 9cc4 0002 c457 0002     .N...u......W...
    1ecc:	ec52 0002 14b7 0003 3d89 0003 66ca 0003     R........=...f..
    1edc:	907d 0003 baa4 0003 e544 0003 105e 0004     }.......D...^...
    1eec:	3bf6 0004 680e 0004 94ac 0004 c1d1 0004     .;...h..........
    1efc:	ef81 0004 1dc1 0005 4c95 0005 7c00 0005     .........L...|..
    1f0c:	ac07 0005 dcae 0005 0dfb 0006 3ff2 0006     .............?..
    1f1c:	7298 0006 a5f4 0006 da09 0006 0ee0 0007     .r..............
    1f2c:	447d 0007 7ae8 0007 b228 0007 ea44 0007     }D...z..(...D...
    1f3c:	2344 0008 5d30 0008 9810 0008 d3ef 0008     D#..0]..........
    1f4c:	10d6 0009 4ecf 0009 8de5 0009 ce23 0009     .....N......#...
    1f5c:	0f98 000a 524f 000a 9657 000a dbbf 000a     ....OR..W.......
    1f6c:	2298 000b 6af3 000b b4e2 000b 007b 000c     ."...j......{...
    1f7c:	4dd4 000c 9d03 000c ee23 000c 4150 000d     .M......#...PA..
    1f8c:	96a9 000d ee4e 000d 4865 000e a516 000e     ....N...eH......
    1f9c:	048e 000f 030a 0000 031c 0000 034e 0000     ............N...
    1fac:	0380 0000 03b2 0000 03d6 0000 03fa 0000     ................
    1fbc:	041e 0000 05be 0000 05d8 0000 05fe 0000     ................
    1fcc:	0612 0000 062c 0000 0652 0000 0666 0000     ....,...R...f...
    1fdc:	0680 0000 0698 0000 158c 0000 156a 0000     ............j...
    1fec:	156a 0000 155e 0000 1452 0000 1452 0000     j...^...R...R...
    1ffc:	1552 0000 155e 0000 1452 0000 1552 0000     R...^...R...R...
    200c:	1452 0000 155e 0000 1456 0000 1456 0000     R...^...V...V...
    201c:	1456 0000 176c 0000                         V...l...

00002024 <_init>:
    2024:	b5f8      	push	{r3, r4, r5, r6, r7, lr}
    2026:	46c0      	nop			; (mov r8, r8)
    2028:	bcf8      	pop	{r3, r4, r5, r6, r7}
    202a:	bc08      	pop	{r3}
    202c:	469e      	mov	lr, r3
    202e:	4770      	bx	lr

00002030 <__init_array_start>:
    2030:	000000dd 	.word	0x000000dd

00002034 <_fini>:
    2034:	b5f8      	push	{r3, r4, r5, r6, r7, lr}
    2036:	46c0      	nop			; (mov r8, r8)
    2038:	bcf8      	pop	{r3, r4, r5, r6, r7}
    203a:	bc08      	pop	{r3}
    203c:	469e      	mov	lr, r3
    203e:	4770      	bx	lr

00002040 <__fini_array_start>:
    2040:	000000b5 	.word	0x000000b5
