
SaLAltimeter-1.0.elf:     file format elf32-littlearm

Sections:
Idx Name          Size      VMA       LMA       File off  Algn
  0 .text         00001cd8  00000000  00000000  00008000  2**2
                  CONTENTS, ALLOC, LOAD, READONLY, CODE
  1 .ARM.exidx    00000008  00001cd8  00001cd8  00009cd8  2**2
                  CONTENTS, ALLOC, LOAD, READONLY, DATA
  2 .relocate     00000438  20000000  00001ce0  00010000  2**3
                  CONTENTS, ALLOC, LOAD, DATA
  3 .bss          00000128  20000438  00002118  00010438  2**2
                  ALLOC
  4 .stack        00002000  20000560  00002240  00010438  2**0
                  ALLOC
  5 .ARM.attributes 00000028  00000000  00000000  00010438  2**0
                  CONTENTS, READONLY
  6 .comment      0000005b  00000000  00000000  00010460  2**0
                  CONTENTS, READONLY
  7 .debug_frame  000002cc  00000000  00000000  000104bc  2**2
                  CONTENTS, READONLY, DEBUGGING

Disassembly of section .text:

00000000 <_sfixed>:
       0:	20002560 	.word	0x20002560
       4:	00000bfd 	.word	0x00000bfd
       8:	00000bf5 	.word	0x00000bf5
       c:	00000bf5 	.word	0x00000bf5
	...
      2c:	00000bf5 	.word	0x00000bf5
	...
      38:	00000bf5 	.word	0x00000bf5
      3c:	00000bf5 	.word	0x00000bf5
      40:	00000bf5 	.word	0x00000bf5
      44:	00000bf5 	.word	0x00000bf5
      48:	00000bf5 	.word	0x00000bf5
      4c:	00000849 	.word	0x00000849
      50:	00000bf5 	.word	0x00000bf5
      54:	00000bf5 	.word	0x00000bf5
      58:	00000bf5 	.word	0x00000bf5
      5c:	00000bf5 	.word	0x00000bf5
      60:	00000bf5 	.word	0x00000bf5
      64:	00000bf5 	.word	0x00000bf5
      68:	00000bf5 	.word	0x00000bf5
      6c:	00000bf5 	.word	0x00000bf5
      70:	00000bf5 	.word	0x00000bf5
      74:	00000bf5 	.word	0x00000bf5
      78:	00000bf5 	.word	0x00000bf5
      7c:	00000bf5 	.word	0x00000bf5
      80:	00000bf5 	.word	0x00000bf5
      84:	00000bf5 	.word	0x00000bf5
      88:	00000bf5 	.word	0x00000bf5
      8c:	00000d09 	.word	0x00000d09
      90:	00000bf5 	.word	0x00000bf5
	...
      9c:	00000bf5 	.word	0x00000bf5
      a0:	00000bf5 	.word	0x00000bf5
      a4:	00000bf5 	.word	0x00000bf5
      a8:	00000bf5 	.word	0x00000bf5
      ac:	00000bf5 	.word	0x00000bf5
      b0:	00000000 	.word	0x00000000

000000b4 <__do_global_dtors_aux>:
      b4:	b510      	push	{r4, lr}
      b6:	4c06      	ldr	r4, [pc, #24]	; (d0 <__do_global_dtors_aux+0x1c>)
      b8:	7823      	ldrb	r3, [r4, #0]
      ba:	2b00      	cmp	r3, #0
      bc:	d107      	bne.n	ce <__do_global_dtors_aux+0x1a>
      be:	4b05      	ldr	r3, [pc, #20]	; (d4 <__do_global_dtors_aux+0x20>)
      c0:	2b00      	cmp	r3, #0
      c2:	d002      	beq.n	ca <__do_global_dtors_aux+0x16>
      c4:	4804      	ldr	r0, [pc, #16]	; (d8 <__do_global_dtors_aux+0x24>)
      c6:	e000      	b.n	ca <__do_global_dtors_aux+0x16>
      c8:	bf00      	nop
      ca:	2301      	movs	r3, #1
      cc:	7023      	strb	r3, [r4, #0]
      ce:	bd10      	pop	{r4, pc}
      d0:	20000438 	.word	0x20000438
      d4:	00000000 	.word	0x00000000
      d8:	00001ce0 	.word	0x00001ce0

000000dc <frame_dummy>:
      dc:	b508      	push	{r3, lr}
      de:	4b08      	ldr	r3, [pc, #32]	; (100 <frame_dummy+0x24>)
      e0:	2b00      	cmp	r3, #0
      e2:	d003      	beq.n	ec <frame_dummy+0x10>
      e4:	4807      	ldr	r0, [pc, #28]	; (104 <frame_dummy+0x28>)
      e6:	4908      	ldr	r1, [pc, #32]	; (108 <frame_dummy+0x2c>)
      e8:	e000      	b.n	ec <frame_dummy+0x10>
      ea:	bf00      	nop
      ec:	4807      	ldr	r0, [pc, #28]	; (10c <frame_dummy+0x30>)
      ee:	6803      	ldr	r3, [r0, #0]
      f0:	2b00      	cmp	r3, #0
      f2:	d100      	bne.n	f6 <frame_dummy+0x1a>
      f4:	bd08      	pop	{r3, pc}
      f6:	4b06      	ldr	r3, [pc, #24]	; (110 <frame_dummy+0x34>)
      f8:	2b00      	cmp	r3, #0
      fa:	d0fb      	beq.n	f4 <frame_dummy+0x18>
      fc:	4798      	blx	r3
      fe:	e7f9      	b.n	f4 <frame_dummy+0x18>
     100:	00000000 	.word	0x00000000
     104:	00001ce0 	.word	0x00001ce0
     108:	2000043c 	.word	0x2000043c
     10c:	00001ce0 	.word	0x00001ce0
     110:	00000000 	.word	0x00000000

00000114 <getADXL345Event>:
     114:	2380      	movs	r3, #128	; 0x80
     116:	b570      	push	{r4, r5, r6, lr}
     118:	4d0a      	ldr	r5, [pc, #40]	; (144 <getADXL345Event+0x30>)
     11a:	025b      	lsls	r3, r3, #9
     11c:	1c04      	adds	r4, r0, #0
     11e:	616b      	str	r3, [r5, #20]
     120:	200f      	movs	r0, #15
     122:	210d      	movs	r1, #13
     124:	22f2      	movs	r2, #242	; 0xf2
     126:	4b08      	ldr	r3, [pc, #32]	; (148 <getADXL345Event+0x34>)
     128:	4798      	blx	r3
     12a:	1da6      	adds	r6, r4, #6
     12c:	200f      	movs	r0, #15
     12e:	210e      	movs	r1, #14
     130:	4b06      	ldr	r3, [pc, #24]	; (14c <getADXL345Event+0x38>)
     132:	4798      	blx	r3
     134:	7020      	strb	r0, [r4, #0]
     136:	3401      	adds	r4, #1
     138:	42b4      	cmp	r4, r6
     13a:	d1f7      	bne.n	12c <getADXL345Event+0x18>
     13c:	2380      	movs	r3, #128	; 0x80
     13e:	025b      	lsls	r3, r3, #9
     140:	61ab      	str	r3, [r5, #24]
     142:	bd70      	pop	{r4, r5, r6, pc}
     144:	41004400 	.word	0x41004400
     148:	0000061d 	.word	0x0000061d
     14c:	00000655 	.word	0x00000655

00000150 <readMS5607AdcResults>:
     150:	b5f7      	push	{r0, r1, r2, r4, r5, r6, r7, lr}
     152:	2780      	movs	r7, #128	; 0x80
     154:	4e0d      	ldr	r6, [pc, #52]	; (18c <readMS5607AdcResults+0x3c>)
     156:	00bf      	lsls	r7, r7, #2
     158:	2200      	movs	r2, #0
     15a:	4b0d      	ldr	r3, [pc, #52]	; (190 <readMS5607AdcResults+0x40>)
     15c:	6177      	str	r7, [r6, #20]
     15e:	200f      	movs	r0, #15
     160:	210d      	movs	r1, #13
     162:	4798      	blx	r3
     164:	4d0b      	ldr	r5, [pc, #44]	; (194 <readMS5607AdcResults+0x44>)
     166:	210e      	movs	r1, #14
     168:	200f      	movs	r0, #15
     16a:	47a8      	blx	r5
     16c:	210e      	movs	r1, #14
     16e:	1c04      	adds	r4, r0, #0
     170:	200f      	movs	r0, #15
     172:	47a8      	blx	r5
     174:	210e      	movs	r1, #14
     176:	9001      	str	r0, [sp, #4]
     178:	200f      	movs	r0, #15
     17a:	47a8      	blx	r5
     17c:	61b7      	str	r7, [r6, #24]
     17e:	9b01      	ldr	r3, [sp, #4]
     180:	0424      	lsls	r4, r4, #16
     182:	021b      	lsls	r3, r3, #8
     184:	431c      	orrs	r4, r3
     186:	4320      	orrs	r0, r4
     188:	bdfe      	pop	{r1, r2, r3, r4, r5, r6, r7, pc}
     18a:	46c0      	nop			; (mov r8, r8)
     18c:	41004400 	.word	0x41004400
     190:	0000061d 	.word	0x0000061d
     194:	00000655 	.word	0x00000655

00000198 <getMS5607Coeff>:
     198:	b5f7      	push	{r0, r1, r2, r4, r5, r6, r7, lr}
     19a:	2400      	movs	r4, #0
     19c:	9000      	str	r0, [sp, #0]
     19e:	2096      	movs	r0, #150	; 0x96
     1a0:	4d11      	ldr	r5, [pc, #68]	; (1e8 <getMS5607Coeff+0x50>)
     1a2:	0080      	lsls	r0, r0, #2
     1a4:	47a8      	blx	r5
     1a6:	2096      	movs	r0, #150	; 0x96
     1a8:	0080      	lsls	r0, r0, #2
     1aa:	47a8      	blx	r5
     1ac:	2680      	movs	r6, #128	; 0x80
     1ae:	1c22      	adds	r2, r4, #0
     1b0:	4d0e      	ldr	r5, [pc, #56]	; (1ec <getMS5607Coeff+0x54>)
     1b2:	00b6      	lsls	r6, r6, #2
     1b4:	3a5e      	subs	r2, #94	; 0x5e
     1b6:	4b0e      	ldr	r3, [pc, #56]	; (1f0 <getMS5607Coeff+0x58>)
     1b8:	b2d2      	uxtb	r2, r2
     1ba:	200f      	movs	r0, #15
     1bc:	210d      	movs	r1, #13
     1be:	616e      	str	r6, [r5, #20]
     1c0:	4798      	blx	r3
     1c2:	210e      	movs	r1, #14
     1c4:	4f0b      	ldr	r7, [pc, #44]	; (1f4 <getMS5607Coeff+0x5c>)
     1c6:	200f      	movs	r0, #15
     1c8:	47b8      	blx	r7
     1ca:	210e      	movs	r1, #14
     1cc:	9001      	str	r0, [sp, #4]
     1ce:	200f      	movs	r0, #15
     1d0:	47b8      	blx	r7
     1d2:	61ae      	str	r6, [r5, #24]
     1d4:	9b01      	ldr	r3, [sp, #4]
     1d6:	021b      	lsls	r3, r3, #8
     1d8:	4318      	orrs	r0, r3
     1da:	9b00      	ldr	r3, [sp, #0]
     1dc:	5318      	strh	r0, [r3, r4]
     1de:	3402      	adds	r4, #2
     1e0:	2c0c      	cmp	r4, #12
     1e2:	d1dc      	bne.n	19e <getMS5607Coeff+0x6>
     1e4:	bdf7      	pop	{r0, r1, r2, r4, r5, r6, r7, pc}
     1e6:	46c0      	nop			; (mov r8, r8)
     1e8:	000008cd 	.word	0x000008cd
     1ec:	41004400 	.word	0x41004400
     1f0:	0000061d 	.word	0x0000061d
     1f4:	00000655 	.word	0x00000655

000001f8 <ConvertPressureTemperature>:
     1f8:	b5f0      	push	{r4, r5, r6, r7, lr}
     1fa:	2700      	movs	r7, #0
     1fc:	1c16      	adds	r6, r2, #0
     1fe:	8913      	ldrh	r3, [r2, #8]
     200:	680a      	ldr	r2, [r1, #0]
     202:	021b      	lsls	r3, r3, #8
     204:	b085      	sub	sp, #20
     206:	1ad3      	subs	r3, r2, r3
     208:	9302      	str	r3, [sp, #8]
     20a:	17db      	asrs	r3, r3, #31
     20c:	6804      	ldr	r4, [r0, #0]
     20e:	88b2      	ldrh	r2, [r6, #4]
     210:	9303      	str	r3, [sp, #12]
     212:	4d1b      	ldr	r5, [pc, #108]	; (280 <ConvertPressureTemperature+0x88>)
     214:	9802      	ldr	r0, [sp, #8]
     216:	1c19      	adds	r1, r3, #0
     218:	1c3b      	adds	r3, r7, #0
     21a:	47a8      	blx	r5
     21c:	1c3b      	adds	r3, r7, #0
     21e:	064d      	lsls	r5, r1, #25
     220:	09c0      	lsrs	r0, r0, #7
     222:	4328      	orrs	r0, r5
     224:	8835      	ldrh	r5, [r6, #0]
     226:	09c9      	lsrs	r1, r1, #7
     228:	042a      	lsls	r2, r5, #16
     22a:	1812      	adds	r2, r2, r0
     22c:	414b      	adcs	r3, r1
     22e:	1c20      	adds	r0, r4, #0
     230:	1c39      	adds	r1, r7, #0
     232:	4c13      	ldr	r4, [pc, #76]	; (280 <ConvertPressureTemperature+0x88>)
     234:	47a0      	blx	r4
     236:	02cb      	lsls	r3, r1, #11
     238:	0d42      	lsrs	r2, r0, #21
     23a:	431a      	orrs	r2, r3
     23c:	154b      	asrs	r3, r1, #21
     23e:	9200      	str	r2, [sp, #0]
     240:	9301      	str	r3, [sp, #4]
     242:	88f2      	ldrh	r2, [r6, #6]
     244:	1c3b      	adds	r3, r7, #0
     246:	4c0e      	ldr	r4, [pc, #56]	; (280 <ConvertPressureTemperature+0x88>)
     248:	9802      	ldr	r0, [sp, #8]
     24a:	9903      	ldr	r1, [sp, #12]
     24c:	47a0      	blx	r4
     24e:	9c00      	ldr	r4, [sp, #0]
     250:	9d01      	ldr	r5, [sp, #4]
     252:	8876      	ldrh	r6, [r6, #2]
     254:	068b      	lsls	r3, r1, #26
     256:	0982      	lsrs	r2, r0, #6
     258:	431a      	orrs	r2, r3
     25a:	0470      	lsls	r0, r6, #17
     25c:	098b      	lsrs	r3, r1, #6
     25e:	0bf1      	lsrs	r1, r6, #15
     260:	1812      	adds	r2, r2, r0
     262:	414b      	adcs	r3, r1
     264:	1aa4      	subs	r4, r4, r2
     266:	419d      	sbcs	r5, r3
     268:	1c39      	adds	r1, r7, #0
     26a:	17eb      	asrs	r3, r5, #31
     26c:	045b      	lsls	r3, r3, #17
     26e:	0c58      	lsrs	r0, r3, #17
     270:	1900      	adds	r0, r0, r4
     272:	4169      	adcs	r1, r5
     274:	044b      	lsls	r3, r1, #17
     276:	0bc0      	lsrs	r0, r0, #15
     278:	4318      	orrs	r0, r3
     27a:	b005      	add	sp, #20
     27c:	bdf0      	pop	{r4, r5, r6, r7, pc}
     27e:	46c0      	nop			; (mov r8, r8)
     280:	00000e1d 	.word	0x00000e1d

00000284 <pascalToCent>:
     284:	4a0c      	ldr	r2, [pc, #48]	; (2b8 <pascalToCent+0x34>)
     286:	b530      	push	{r4, r5, lr}
     288:	4290      	cmp	r0, r2
     28a:	dc11      	bgt.n	2b0 <pascalToCent+0x2c>
     28c:	1a13      	subs	r3, r2, r0
     28e:	129b      	asrs	r3, r3, #10
     290:	2b4b      	cmp	r3, #75	; 0x4b
     292:	dc0f      	bgt.n	2b4 <pascalToCent+0x30>
     294:	4c09      	ldr	r4, [pc, #36]	; (2bc <pascalToCent+0x38>)
     296:	0099      	lsls	r1, r3, #2
     298:	029d      	lsls	r5, r3, #10
     29a:	3301      	adds	r3, #1
     29c:	009b      	lsls	r3, r3, #2
     29e:	5909      	ldr	r1, [r1, r4]
     2a0:	591b      	ldr	r3, [r3, r4]
     2a2:	1b52      	subs	r2, r2, r5
     2a4:	1a10      	subs	r0, r2, r0
     2a6:	1a5b      	subs	r3, r3, r1
     2a8:	4358      	muls	r0, r3
     2aa:	1280      	asrs	r0, r0, #10
     2ac:	1808      	adds	r0, r1, r0
     2ae:	e002      	b.n	2b6 <pascalToCent+0x32>
     2b0:	4803      	ldr	r0, [pc, #12]	; (2c0 <pascalToCent+0x3c>)
     2b2:	e000      	b.n	2b6 <pascalToCent+0x32>
     2b4:	4803      	ldr	r0, [pc, #12]	; (2c4 <pascalToCent+0x40>)
     2b6:	bd30      	pop	{r4, r5, pc}
     2b8:	000199cc 	.word	0x000199cc
     2bc:	00001b38 	.word	0x00001b38
     2c0:	ffff8d20 	.word	0xffff8d20
     2c4:	000f048e 	.word	0x000f048e

000002c8 <Convert2C>:
     2c8:	7843      	ldrb	r3, [r0, #1]
     2ca:	7800      	ldrb	r0, [r0, #0]
     2cc:	b25a      	sxtb	r2, r3
     2ce:	2a00      	cmp	r2, #0
     2d0:	da04      	bge.n	2dc <Convert2C+0x14>
     2d2:	4a05      	ldr	r2, [pc, #20]	; (2e8 <Convert2C+0x20>)
     2d4:	4313      	orrs	r3, r2
     2d6:	021b      	lsls	r3, r3, #8
     2d8:	4318      	orrs	r0, r3
     2da:	e001      	b.n	2e0 <Convert2C+0x18>
     2dc:	021b      	lsls	r3, r3, #8
     2de:	18c0      	adds	r0, r0, r3
     2e0:	b280      	uxth	r0, r0
     2e2:	b200      	sxth	r0, r0
     2e4:	4770      	bx	lr
     2e6:	46c0      	nop			; (mov r8, r8)
     2e8:	ffffff00 	.word	0xffffff00

000002ec <accelSample>:
     2ec:	b538      	push	{r3, r4, r5, lr}
     2ee:	4c2c      	ldr	r4, [pc, #176]	; (3a0 <accelSample+0xb4>)
     2f0:	2300      	movs	r3, #0
     2f2:	7820      	ldrb	r0, [r4, #0]
     2f4:	2807      	cmp	r0, #7
     2f6:	d850      	bhi.n	39a <accelSample+0xae>
     2f8:	f000 fd64 	bl	dc4 <__gnu_thumb1_case_uqi>
     2fc:	18110a04 	.word	0x18110a04
     300:	4e3d2e1f 	.word	0x4e3d2e1f
     304:	4b27      	ldr	r3, [pc, #156]	; (3a4 <accelSample+0xb8>)
     306:	4828      	ldr	r0, [pc, #160]	; (3a8 <accelSample+0xbc>)
     308:	4798      	blx	r3
     30a:	7823      	ldrb	r3, [r4, #0]
     30c:	3301      	adds	r3, #1
     30e:	e040      	b.n	392 <accelSample+0xa6>
     310:	4b26      	ldr	r3, [pc, #152]	; (3ac <accelSample+0xc0>)
     312:	4825      	ldr	r0, [pc, #148]	; (3a8 <accelSample+0xbc>)
     314:	4798      	blx	r3
     316:	4b26      	ldr	r3, [pc, #152]	; (3b0 <accelSample+0xc4>)
     318:	8018      	strh	r0, [r3, #0]
     31a:	2302      	movs	r3, #2
     31c:	e039      	b.n	392 <accelSample+0xa6>
     31e:	4b23      	ldr	r3, [pc, #140]	; (3ac <accelSample+0xc0>)
     320:	4824      	ldr	r0, [pc, #144]	; (3b4 <accelSample+0xc8>)
     322:	4798      	blx	r3
     324:	4b24      	ldr	r3, [pc, #144]	; (3b8 <accelSample+0xcc>)
     326:	8018      	strh	r0, [r3, #0]
     328:	2303      	movs	r3, #3
     32a:	e032      	b.n	392 <accelSample+0xa6>
     32c:	4b1f      	ldr	r3, [pc, #124]	; (3ac <accelSample+0xc0>)
     32e:	4823      	ldr	r0, [pc, #140]	; (3bc <accelSample+0xd0>)
     330:	4798      	blx	r3
     332:	4b23      	ldr	r3, [pc, #140]	; (3c0 <accelSample+0xd4>)
     334:	8018      	strh	r0, [r3, #0]
     336:	2304      	movs	r3, #4
     338:	e02b      	b.n	392 <accelSample+0xa6>
     33a:	4b1d      	ldr	r3, [pc, #116]	; (3b0 <accelSample+0xc4>)
     33c:	2000      	movs	r0, #0
     33e:	5e18      	ldrsh	r0, [r3, r0]
     340:	4b20      	ldr	r3, [pc, #128]	; (3c4 <accelSample+0xd8>)
     342:	4798      	blx	r3
     344:	4a20      	ldr	r2, [pc, #128]	; (3c8 <accelSample+0xdc>)
     346:	4b21      	ldr	r3, [pc, #132]	; (3cc <accelSample+0xe0>)
     348:	4d21      	ldr	r5, [pc, #132]	; (3d0 <accelSample+0xe4>)
     34a:	47a8      	blx	r5
     34c:	4b21      	ldr	r3, [pc, #132]	; (3d4 <accelSample+0xe8>)
     34e:	4798      	blx	r3
     350:	4b21      	ldr	r3, [pc, #132]	; (3d8 <accelSample+0xec>)
     352:	6018      	str	r0, [r3, #0]
     354:	2305      	movs	r3, #5
     356:	e01c      	b.n	392 <accelSample+0xa6>
     358:	4b17      	ldr	r3, [pc, #92]	; (3b8 <accelSample+0xcc>)
     35a:	2000      	movs	r0, #0
     35c:	5e18      	ldrsh	r0, [r3, r0]
     35e:	4b19      	ldr	r3, [pc, #100]	; (3c4 <accelSample+0xd8>)
     360:	4798      	blx	r3
     362:	4a19      	ldr	r2, [pc, #100]	; (3c8 <accelSample+0xdc>)
     364:	4b19      	ldr	r3, [pc, #100]	; (3cc <accelSample+0xe0>)
     366:	4d1a      	ldr	r5, [pc, #104]	; (3d0 <accelSample+0xe4>)
     368:	47a8      	blx	r5
     36a:	4b1a      	ldr	r3, [pc, #104]	; (3d4 <accelSample+0xe8>)
     36c:	4798      	blx	r3
     36e:	4b1b      	ldr	r3, [pc, #108]	; (3dc <accelSample+0xf0>)
     370:	6018      	str	r0, [r3, #0]
     372:	2306      	movs	r3, #6
     374:	e00d      	b.n	392 <accelSample+0xa6>
     376:	4b12      	ldr	r3, [pc, #72]	; (3c0 <accelSample+0xd4>)
     378:	2000      	movs	r0, #0
     37a:	5e18      	ldrsh	r0, [r3, r0]
     37c:	4b11      	ldr	r3, [pc, #68]	; (3c4 <accelSample+0xd8>)
     37e:	4798      	blx	r3
     380:	4a11      	ldr	r2, [pc, #68]	; (3c8 <accelSample+0xdc>)
     382:	4b12      	ldr	r3, [pc, #72]	; (3cc <accelSample+0xe0>)
     384:	4d12      	ldr	r5, [pc, #72]	; (3d0 <accelSample+0xe4>)
     386:	47a8      	blx	r5
     388:	4b12      	ldr	r3, [pc, #72]	; (3d4 <accelSample+0xe8>)
     38a:	4798      	blx	r3
     38c:	4b14      	ldr	r3, [pc, #80]	; (3e0 <accelSample+0xf4>)
     38e:	6018      	str	r0, [r3, #0]
     390:	2307      	movs	r3, #7
     392:	7023      	strb	r3, [r4, #0]
     394:	2300      	movs	r3, #0
     396:	e000      	b.n	39a <accelSample+0xae>
     398:	2301      	movs	r3, #1
     39a:	1c18      	adds	r0, r3, #0
     39c:	bd38      	pop	{r3, r4, r5, pc}
     39e:	46c0      	nop			; (mov r8, r8)
     3a0:	2000048c 	.word	0x2000048c
     3a4:	00000115 	.word	0x00000115
     3a8:	20000486 	.word	0x20000486
     3ac:	000002c9 	.word	0x000002c9
     3b0:	2000048e 	.word	0x2000048e
     3b4:	20000488 	.word	0x20000488
     3b8:	20000474 	.word	0x20000474
     3bc:	2000048a 	.word	0x2000048a
     3c0:	20000484 	.word	0x20000484
     3c4:	00001411 	.word	0x00001411
     3c8:	8e8a71de 	.word	0x8e8a71de
     3cc:	3f6ff2e4 	.word	0x3f6ff2e4
     3d0:	00000edd 	.word	0x00000edd
     3d4:	00001489 	.word	0x00001489
     3d8:	2000047c 	.word	0x2000047c
     3dc:	20000480 	.word	0x20000480
     3e0:	20000478 	.word	0x20000478

000003e4 <initAccelerometer>:
     3e4:	b5f8      	push	{r3, r4, r5, r6, r7, lr}
     3e6:	2580      	movs	r5, #128	; 0x80
     3e8:	2200      	movs	r2, #0
     3ea:	4c20      	ldr	r4, [pc, #128]	; (46c <initAccelerometer+0x88>)
     3ec:	4b20      	ldr	r3, [pc, #128]	; (470 <initAccelerometer+0x8c>)
     3ee:	026d      	lsls	r5, r5, #9
     3f0:	1c07      	adds	r7, r0, #0
     3f2:	4e20      	ldr	r6, [pc, #128]	; (474 <initAccelerometer+0x90>)
     3f4:	2010      	movs	r0, #16
     3f6:	2101      	movs	r1, #1
     3f8:	701a      	strb	r2, [r3, #0]
     3fa:	47b0      	blx	r6
     3fc:	61a5      	str	r5, [r4, #24]
     3fe:	200d      	movs	r0, #13
     400:	2101      	movs	r1, #1
     402:	47b0      	blx	r6
     404:	200f      	movs	r0, #15
     406:	2101      	movs	r1, #1
     408:	47b0      	blx	r6
     40a:	200e      	movs	r0, #14
     40c:	2100      	movs	r1, #0
     40e:	47b0      	blx	r6
     410:	230e      	movs	r3, #14
     412:	707b      	strb	r3, [r7, #1]
     414:	3b06      	subs	r3, #6
     416:	703b      	strb	r3, [r7, #0]
     418:	4e17      	ldr	r6, [pc, #92]	; (478 <initAccelerometer+0x94>)
     41a:	6165      	str	r5, [r4, #20]
     41c:	200f      	movs	r0, #15
     41e:	210d      	movs	r1, #13
     420:	222d      	movs	r2, #45	; 0x2d
     422:	47b0      	blx	r6
     424:	200f      	movs	r0, #15
     426:	210d      	movs	r1, #13
     428:	2200      	movs	r2, #0
     42a:	47b0      	blx	r6
     42c:	61a5      	str	r5, [r4, #24]
     42e:	200f      	movs	r0, #15
     430:	6165      	str	r5, [r4, #20]
     432:	210d      	movs	r1, #13
     434:	222c      	movs	r2, #44	; 0x2c
     436:	47b0      	blx	r6
     438:	787a      	ldrb	r2, [r7, #1]
     43a:	200f      	movs	r0, #15
     43c:	210d      	movs	r1, #13
     43e:	47b0      	blx	r6
     440:	61a5      	str	r5, [r4, #24]
     442:	200f      	movs	r0, #15
     444:	6165      	str	r5, [r4, #20]
     446:	210d      	movs	r1, #13
     448:	222c      	movs	r2, #44	; 0x2c
     44a:	47b0      	blx	r6
     44c:	783a      	ldrb	r2, [r7, #0]
     44e:	200f      	movs	r0, #15
     450:	210d      	movs	r1, #13
     452:	47b0      	blx	r6
     454:	61a5      	str	r5, [r4, #24]
     456:	200f      	movs	r0, #15
     458:	6165      	str	r5, [r4, #20]
     45a:	210d      	movs	r1, #13
     45c:	222d      	movs	r2, #45	; 0x2d
     45e:	47b0      	blx	r6
     460:	200f      	movs	r0, #15
     462:	210d      	movs	r1, #13
     464:	2208      	movs	r2, #8
     466:	47b0      	blx	r6
     468:	61a5      	str	r5, [r4, #24]
     46a:	bdf8      	pop	{r3, r4, r5, r6, r7, pc}
     46c:	41004400 	.word	0x41004400
     470:	2000048c 	.word	0x2000048c
     474:	000008ed 	.word	0x000008ed
     478:	0000061d 	.word	0x0000061d

0000047c <SaLGetAccelX>:
     47c:	4b01      	ldr	r3, [pc, #4]	; (484 <SaLGetAccelX+0x8>)
     47e:	6818      	ldr	r0, [r3, #0]
     480:	4770      	bx	lr
     482:	46c0      	nop			; (mov r8, r8)
     484:	2000047c 	.word	0x2000047c

00000488 <SaLGetAccelY>:
     488:	4b01      	ldr	r3, [pc, #4]	; (490 <SaLGetAccelY+0x8>)
     48a:	6818      	ldr	r0, [r3, #0]
     48c:	4770      	bx	lr
     48e:	46c0      	nop			; (mov r8, r8)
     490:	20000480 	.word	0x20000480

00000494 <SaLGetAccelZ>:
     494:	4b01      	ldr	r3, [pc, #4]	; (49c <SaLGetAccelZ+0x8>)
     496:	6818      	ldr	r0, [r3, #0]
     498:	4770      	bx	lr
     49a:	46c0      	nop			; (mov r8, r8)
     49c:	20000478 	.word	0x20000478

000004a0 <initBarometer>:
     4a0:	b538      	push	{r3, r4, r5, lr}
     4a2:	2500      	movs	r5, #0
     4a4:	4b11      	ldr	r3, [pc, #68]	; (4ec <initBarometer+0x4c>)
     4a6:	4c12      	ldr	r4, [pc, #72]	; (4f0 <initBarometer+0x50>)
     4a8:	2009      	movs	r0, #9
     4aa:	2101      	movs	r1, #1
     4ac:	701d      	strb	r5, [r3, #0]
     4ae:	47a0      	blx	r4
     4b0:	2009      	movs	r0, #9
     4b2:	2101      	movs	r1, #1
     4b4:	47a0      	blx	r4
     4b6:	200d      	movs	r0, #13
     4b8:	2101      	movs	r1, #1
     4ba:	47a0      	blx	r4
     4bc:	200f      	movs	r0, #15
     4be:	2101      	movs	r1, #1
     4c0:	47a0      	blx	r4
     4c2:	1c29      	adds	r1, r5, #0
     4c4:	2580      	movs	r5, #128	; 0x80
     4c6:	200e      	movs	r0, #14
     4c8:	47a0      	blx	r4
     4ca:	4c0a      	ldr	r4, [pc, #40]	; (4f4 <initBarometer+0x54>)
     4cc:	00ad      	lsls	r5, r5, #2
     4ce:	210d      	movs	r1, #13
     4d0:	221e      	movs	r2, #30
     4d2:	6165      	str	r5, [r4, #20]
     4d4:	200f      	movs	r0, #15
     4d6:	4b08      	ldr	r3, [pc, #32]	; (4f8 <initBarometer+0x58>)
     4d8:	4798      	blx	r3
     4da:	2096      	movs	r0, #150	; 0x96
     4dc:	61a5      	str	r5, [r4, #24]
     4de:	0080      	lsls	r0, r0, #2
     4e0:	4b06      	ldr	r3, [pc, #24]	; (4fc <initBarometer+0x5c>)
     4e2:	4798      	blx	r3
     4e4:	4806      	ldr	r0, [pc, #24]	; (500 <initBarometer+0x60>)
     4e6:	4b07      	ldr	r3, [pc, #28]	; (504 <initBarometer+0x64>)
     4e8:	4798      	blx	r3
     4ea:	bd38      	pop	{r3, r4, r5, pc}
     4ec:	200004a0 	.word	0x200004a0
     4f0:	000008ed 	.word	0x000008ed
     4f4:	41004400 	.word	0x41004400
     4f8:	0000061d 	.word	0x0000061d
     4fc:	000008cd 	.word	0x000008cd
     500:	20000466 	.word	0x20000466
     504:	00000199 	.word	0x00000199

00000508 <sendMS5607D2ReadReq>:
     508:	b538      	push	{r3, r4, r5, lr}
     50a:	2580      	movs	r5, #128	; 0x80
     50c:	4c04      	ldr	r4, [pc, #16]	; (520 <sendMS5607D2ReadReq+0x18>)
     50e:	00ad      	lsls	r5, r5, #2
     510:	1c02      	adds	r2, r0, #0
     512:	6165      	str	r5, [r4, #20]
     514:	200f      	movs	r0, #15
     516:	210d      	movs	r1, #13
     518:	4b02      	ldr	r3, [pc, #8]	; (524 <sendMS5607D2ReadReq+0x1c>)
     51a:	4798      	blx	r3
     51c:	61a5      	str	r5, [r4, #24]
     51e:	bd38      	pop	{r3, r4, r5, pc}
     520:	41004400 	.word	0x41004400
     524:	0000061d 	.word	0x0000061d

00000528 <baroSample>:
     528:	b510      	push	{r4, lr}
     52a:	4c21      	ldr	r4, [pc, #132]	; (5b0 <baroSample+0x88>)
     52c:	2300      	movs	r3, #0
     52e:	7820      	ldrb	r0, [r4, #0]
     530:	2808      	cmp	r0, #8
     532:	d83a      	bhi.n	5aa <baroSample+0x82>
     534:	f000 fc46 	bl	dc4 <__gnu_thumb1_case_uqi>
     538:	0b071605 	.word	0x0b071605
     53c:	2d262216 	.word	0x2d262216
     540:	38          	.byte	0x38
     541:	00          	.byte	0x00
     542:	2040      	movs	r0, #64	; 0x40
     544:	e004      	b.n	550 <baroSample+0x28>
     546:	4b1b      	ldr	r3, [pc, #108]	; (5b4 <baroSample+0x8c>)
     548:	4798      	blx	r3
     54a:	4b1b      	ldr	r3, [pc, #108]	; (5b8 <baroSample+0x90>)
     54c:	e026      	b.n	59c <baroSample+0x74>
     54e:	2050      	movs	r0, #80	; 0x50
     550:	4b1a      	ldr	r3, [pc, #104]	; (5bc <baroSample+0x94>)
     552:	4798      	blx	r3
     554:	7823      	ldrb	r3, [r4, #0]
     556:	3301      	adds	r3, #1
     558:	7023      	strb	r3, [r4, #0]
     55a:	4b19      	ldr	r3, [pc, #100]	; (5c0 <baroSample+0x98>)
     55c:	4798      	blx	r3
     55e:	4b19      	ldr	r3, [pc, #100]	; (5c4 <baroSample+0x9c>)
     560:	6018      	str	r0, [r3, #0]
     562:	e01f      	b.n	5a4 <baroSample+0x7c>
     564:	4b16      	ldr	r3, [pc, #88]	; (5c0 <baroSample+0x98>)
     566:	4798      	blx	r3
     568:	4b16      	ldr	r3, [pc, #88]	; (5c4 <baroSample+0x9c>)
     56a:	681b      	ldr	r3, [r3, #0]
     56c:	1ac0      	subs	r0, r0, r3
     56e:	2816      	cmp	r0, #22
     570:	d815      	bhi.n	59e <baroSample+0x76>
     572:	4a15      	ldr	r2, [pc, #84]	; (5c8 <baroSample+0xa0>)
     574:	8813      	ldrh	r3, [r2, #0]
     576:	3301      	adds	r3, #1
     578:	8013      	strh	r3, [r2, #0]
     57a:	e013      	b.n	5a4 <baroSample+0x7c>
     57c:	4b0d      	ldr	r3, [pc, #52]	; (5b4 <baroSample+0x8c>)
     57e:	4798      	blx	r3
     580:	4b12      	ldr	r3, [pc, #72]	; (5cc <baroSample+0xa4>)
     582:	e00b      	b.n	59c <baroSample+0x74>
     584:	4b12      	ldr	r3, [pc, #72]	; (5d0 <baroSample+0xa8>)
     586:	480c      	ldr	r0, [pc, #48]	; (5b8 <baroSample+0x90>)
     588:	4910      	ldr	r1, [pc, #64]	; (5cc <baroSample+0xa4>)
     58a:	4a12      	ldr	r2, [pc, #72]	; (5d4 <baroSample+0xac>)
     58c:	4798      	blx	r3
     58e:	4b12      	ldr	r3, [pc, #72]	; (5d8 <baroSample+0xb0>)
     590:	e004      	b.n	59c <baroSample+0x74>
     592:	4b11      	ldr	r3, [pc, #68]	; (5d8 <baroSample+0xb0>)
     594:	6818      	ldr	r0, [r3, #0]
     596:	4b11      	ldr	r3, [pc, #68]	; (5dc <baroSample+0xb4>)
     598:	4798      	blx	r3
     59a:	4b11      	ldr	r3, [pc, #68]	; (5e0 <baroSample+0xb8>)
     59c:	6018      	str	r0, [r3, #0]
     59e:	7823      	ldrb	r3, [r4, #0]
     5a0:	3301      	adds	r3, #1
     5a2:	7023      	strb	r3, [r4, #0]
     5a4:	2300      	movs	r3, #0
     5a6:	e000      	b.n	5aa <baroSample+0x82>
     5a8:	2301      	movs	r3, #1
     5aa:	1c18      	adds	r0, r3, #0
     5ac:	bd10      	pop	{r4, pc}
     5ae:	46c0      	nop			; (mov r8, r8)
     5b0:	200004a0 	.word	0x200004a0
     5b4:	00000151 	.word	0x00000151
     5b8:	20000494 	.word	0x20000494
     5bc:	00000509 	.word	0x00000509
     5c0:	00000865 	.word	0x00000865
     5c4:	2000049c 	.word	0x2000049c
     5c8:	20000498 	.word	0x20000498
     5cc:	20000490 	.word	0x20000490
     5d0:	000001f9 	.word	0x000001f9
     5d4:	20000466 	.word	0x20000466
     5d8:	200004a8 	.word	0x200004a8
     5dc:	00000285 	.word	0x00000285
     5e0:	200004a4 	.word	0x200004a4

000005e4 <SaLBaroGetHeight>:
     5e4:	4b01      	ldr	r3, [pc, #4]	; (5ec <SaLBaroGetHeight+0x8>)
     5e6:	6818      	ldr	r0, [r3, #0]
     5e8:	4770      	bx	lr
     5ea:	46c0      	nop			; (mov r8, r8)
     5ec:	200004a4 	.word	0x200004a4

000005f0 <SaLDigitalOut>:
     5f0:	2200      	movs	r2, #0
     5f2:	b510      	push	{r4, lr}
     5f4:	0943      	lsrs	r3, r0, #5
     5f6:	09c4      	lsrs	r4, r0, #7
     5f8:	4294      	cmp	r4, r2
     5fa:	d102      	bne.n	602 <SaLDigitalOut+0x12>
     5fc:	01da      	lsls	r2, r3, #7
     5fe:	4b06      	ldr	r3, [pc, #24]	; (618 <SaLDigitalOut+0x28>)
     600:	18d2      	adds	r2, r2, r3
     602:	231f      	movs	r3, #31
     604:	4018      	ands	r0, r3
     606:	3b1e      	subs	r3, #30
     608:	4083      	lsls	r3, r0
     60a:	2900      	cmp	r1, #0
     60c:	d001      	beq.n	612 <SaLDigitalOut+0x22>
     60e:	6193      	str	r3, [r2, #24]
     610:	e000      	b.n	614 <SaLDigitalOut+0x24>
     612:	6153      	str	r3, [r2, #20]
     614:	bd10      	pop	{r4, pc}
     616:	46c0      	nop			; (mov r8, r8)
     618:	41004400 	.word	0x41004400

0000061c <byteOut>:
     61c:	b5f7      	push	{r0, r1, r2, r4, r5, r6, r7, lr}
     61e:	1c0f      	adds	r7, r1, #0
     620:	1c15      	adds	r5, r2, #0
     622:	2608      	movs	r6, #8
     624:	9001      	str	r0, [sp, #4]
     626:	9801      	ldr	r0, [sp, #4]
     628:	2100      	movs	r1, #0
     62a:	4c09      	ldr	r4, [pc, #36]	; (650 <byteOut+0x34>)
     62c:	47a0      	blx	r4
     62e:	b26b      	sxtb	r3, r5
     630:	1c38      	adds	r0, r7, #0
     632:	2101      	movs	r1, #1
     634:	2b00      	cmp	r3, #0
     636:	db00      	blt.n	63a <byteOut+0x1e>
     638:	2100      	movs	r1, #0
     63a:	47a0      	blx	r4
     63c:	9801      	ldr	r0, [sp, #4]
     63e:	2101      	movs	r1, #1
     640:	47a0      	blx	r4
     642:	1e73      	subs	r3, r6, #1
     644:	006d      	lsls	r5, r5, #1
     646:	b2de      	uxtb	r6, r3
     648:	b2ed      	uxtb	r5, r5
     64a:	2e00      	cmp	r6, #0
     64c:	d1eb      	bne.n	626 <byteOut+0xa>
     64e:	bdf7      	pop	{r0, r1, r2, r4, r5, r6, r7, pc}
     650:	000005f1 	.word	0x000005f1

00000654 <getByte>:
     654:	b5f0      	push	{r4, r5, r6, r7, lr}
     656:	09cb      	lsrs	r3, r1, #7
     658:	b085      	sub	sp, #20
     65a:	9301      	str	r3, [sp, #4]
     65c:	094b      	lsrs	r3, r1, #5
     65e:	9303      	str	r3, [sp, #12]
     660:	231f      	movs	r3, #31
     662:	4019      	ands	r1, r3
     664:	3b1e      	subs	r3, #30
     666:	408b      	lsls	r3, r1
     668:	1c07      	adds	r7, r0, #0
     66a:	2508      	movs	r5, #8
     66c:	2400      	movs	r4, #0
     66e:	9302      	str	r3, [sp, #8]
     670:	1c38      	adds	r0, r7, #0
     672:	2100      	movs	r1, #0
     674:	4e0e      	ldr	r6, [pc, #56]	; (6b0 <getByte+0x5c>)
     676:	47b0      	blx	r6
     678:	9b01      	ldr	r3, [sp, #4]
     67a:	0064      	lsls	r4, r4, #1
     67c:	b2e4      	uxtb	r4, r4
     67e:	2b00      	cmp	r3, #0
     680:	d113      	bne.n	6aa <getByte+0x56>
     682:	9b03      	ldr	r3, [sp, #12]
     684:	4a0b      	ldr	r2, [pc, #44]	; (6b4 <getByte+0x60>)
     686:	01db      	lsls	r3, r3, #7
     688:	189b      	adds	r3, r3, r2
     68a:	681b      	ldr	r3, [r3, #0]
     68c:	9a02      	ldr	r2, [sp, #8]
     68e:	3d01      	subs	r5, #1
     690:	4013      	ands	r3, r2
     692:	1e5a      	subs	r2, r3, #1
     694:	4193      	sbcs	r3, r2
     696:	1c38      	adds	r0, r7, #0
     698:	2101      	movs	r1, #1
     69a:	b2ed      	uxtb	r5, r5
     69c:	431c      	orrs	r4, r3
     69e:	47b0      	blx	r6
     6a0:	2d00      	cmp	r5, #0
     6a2:	d1e5      	bne.n	670 <getByte+0x1c>
     6a4:	1c20      	adds	r0, r4, #0
     6a6:	b005      	add	sp, #20
     6a8:	bdf0      	pop	{r4, r5, r6, r7, pc}
     6aa:	2300      	movs	r3, #0
     6ac:	6a1b      	ldr	r3, [r3, #32]
     6ae:	deff      	udf	#255	; 0xff
     6b0:	000005f1 	.word	0x000005f1
     6b4:	41004420 	.word	0x41004420

000006b8 <SaLPlayTone>:
     6b8:	b5f7      	push	{r0, r1, r2, r4, r5, r6, r7, lr}
     6ba:	1c05      	adds	r5, r0, #0
     6bc:	2400      	movs	r4, #0
     6be:	0fc3      	lsrs	r3, r0, #31
     6c0:	181b      	adds	r3, r3, r0
     6c2:	105b      	asrs	r3, r3, #1
     6c4:	9301      	str	r3, [sp, #4]
     6c6:	2380      	movs	r3, #128	; 0x80
     6c8:	4f07      	ldr	r7, [pc, #28]	; (6e8 <SaLPlayTone+0x30>)
     6ca:	015b      	lsls	r3, r3, #5
     6cc:	61bb      	str	r3, [r7, #24]
     6ce:	9801      	ldr	r0, [sp, #4]
     6d0:	4e06      	ldr	r6, [pc, #24]	; (6ec <SaLPlayTone+0x34>)
     6d2:	47b0      	blx	r6
     6d4:	2380      	movs	r3, #128	; 0x80
     6d6:	015b      	lsls	r3, r3, #5
     6d8:	617b      	str	r3, [r7, #20]
     6da:	9801      	ldr	r0, [sp, #4]
     6dc:	47b0      	blx	r6
     6de:	4b04      	ldr	r3, [pc, #16]	; (6f0 <SaLPlayTone+0x38>)
     6e0:	192c      	adds	r4, r5, r4
     6e2:	429c      	cmp	r4, r3
     6e4:	ddef      	ble.n	6c6 <SaLPlayTone+0xe>
     6e6:	bdf7      	pop	{r0, r1, r2, r4, r5, r6, r7, pc}
     6e8:	41004400 	.word	0x41004400
     6ec:	000008cd 	.word	0x000008cd
     6f0:	0001869f 	.word	0x0001869f

000006f4 <SalGclkInit>:
     6f4:	22c2      	movs	r2, #194	; 0xc2
     6f6:	2002      	movs	r0, #2
     6f8:	b510      	push	{r4, lr}
     6fa:	4b1c      	ldr	r3, [pc, #112]	; (76c <SalGclkInit+0x78>)
     6fc:	00d2      	lsls	r2, r2, #3
     6fe:	491c      	ldr	r1, [pc, #112]	; (770 <SalGclkInit+0x7c>)
     700:	609a      	str	r2, [r3, #8]
     702:	684a      	ldr	r2, [r1, #4]
     704:	4302      	orrs	r2, r0
     706:	1c18      	adds	r0, r3, #0
     708:	604a      	str	r2, [r1, #4]
     70a:	4a1a      	ldr	r2, [pc, #104]	; (774 <SalGclkInit+0x80>)
     70c:	829a      	strh	r2, [r3, #20]
     70e:	68c3      	ldr	r3, [r0, #12]
     710:	4a16      	ldr	r2, [pc, #88]	; (76c <SalGclkInit+0x78>)
     712:	079b      	lsls	r3, r3, #30
     714:	d5fb      	bpl.n	70e <SalGclkInit+0x1a>
     716:	2102      	movs	r1, #2
     718:	4b17      	ldr	r3, [pc, #92]	; (778 <SalGclkInit+0x84>)
     71a:	4c18      	ldr	r4, [pc, #96]	; (77c <SalGclkInit+0x88>)
     71c:	31ff      	adds	r1, #255	; 0xff
     71e:	6099      	str	r1, [r3, #8]
     720:	605c      	str	r4, [r3, #4]
     722:	2482      	movs	r4, #130	; 0x82
     724:	01e4      	lsls	r4, r4, #7
     726:	805c      	strh	r4, [r3, #2]
     728:	2481      	movs	r4, #129	; 0x81
     72a:	0064      	lsls	r4, r4, #1
     72c:	609c      	str	r4, [r3, #8]
     72e:	4c14      	ldr	r4, [pc, #80]	; (780 <SalGclkInit+0x8c>)
     730:	605c      	str	r4, [r3, #4]
     732:	4c14      	ldr	r4, [pc, #80]	; (784 <SalGclkInit+0x90>)
     734:	805c      	strh	r4, [r3, #2]
     736:	6099      	str	r1, [r3, #8]
     738:	4913      	ldr	r1, [pc, #76]	; (788 <SalGclkInit+0x94>)
     73a:	24b7      	movs	r4, #183	; 0xb7
     73c:	6059      	str	r1, [r3, #4]
     73e:	2180      	movs	r1, #128	; 0x80
     740:	01c9      	lsls	r1, r1, #7
     742:	8059      	strh	r1, [r3, #2]
     744:	2126      	movs	r1, #38	; 0x26
     746:	8491      	strh	r1, [r2, #36]	; 0x24
     748:	4910      	ldr	r1, [pc, #64]	; (78c <SalGclkInit+0x98>)
     74a:	00e4      	lsls	r4, r4, #3
     74c:	62d1      	str	r1, [r2, #44]	; 0x2c
     74e:	6ad1      	ldr	r1, [r2, #44]	; 0x2c
     750:	4321      	orrs	r1, r4
     752:	62d1      	str	r1, [r2, #44]	; 0x2c
     754:	68c2      	ldr	r2, [r0, #12]
     756:	06d2      	lsls	r2, r2, #27
     758:	d5fc      	bpl.n	754 <SalGclkInit+0x60>
     75a:	2282      	movs	r2, #130	; 0x82
     75c:	0052      	lsls	r2, r2, #1
     75e:	609a      	str	r2, [r3, #8]
     760:	4a0b      	ldr	r2, [pc, #44]	; (790 <SalGclkInit+0x9c>)
     762:	605a      	str	r2, [r3, #4]
     764:	4a0b      	ldr	r2, [pc, #44]	; (794 <SalGclkInit+0xa0>)
     766:	805a      	strh	r2, [r3, #2]
     768:	bd10      	pop	{r4, pc}
     76a:	46c0      	nop			; (mov r8, r8)
     76c:	40000800 	.word	0x40000800
     770:	41004000 	.word	0x41004000
     774:	0000060e 	.word	0x0000060e
     778:	40000c00 	.word	0x40000c00
     77c:	00010501 	.word	0x00010501
     780:	00010402 	.word	0x00010402
     784:	0000421b 	.word	0x0000421b
     788:	00010700 	.word	0x00010700
     78c:	04010000 	.word	0x04010000
     790:	00230604 	.word	0x00230604
     794:	0000441c 	.word	0x0000441c

00000798 <SaLTC4Init>:
     798:	2180      	movs	r1, #128	; 0x80
     79a:	4a0a      	ldr	r2, [pc, #40]	; (7c4 <SaLTC4Init+0x2c>)
     79c:	0149      	lsls	r1, r1, #5
     79e:	6a13      	ldr	r3, [r2, #32]
     7a0:	430b      	orrs	r3, r1
     7a2:	6213      	str	r3, [r2, #32]
     7a4:	22b0      	movs	r2, #176	; 0xb0
     7a6:	4b08      	ldr	r3, [pc, #32]	; (7c8 <SaLTC4Init+0x30>)
     7a8:	0112      	lsls	r2, r2, #4
     7aa:	801a      	strh	r2, [r3, #0]
     7ac:	2201      	movs	r2, #1
     7ae:	2102      	movs	r1, #2
     7b0:	735a      	strb	r2, [r3, #13]
     7b2:	881a      	ldrh	r2, [r3, #0]
     7b4:	430a      	orrs	r2, r1
     7b6:	801a      	strh	r2, [r3, #0]
     7b8:	2280      	movs	r2, #128	; 0x80
     7ba:	4b04      	ldr	r3, [pc, #16]	; (7cc <SaLTC4Init+0x34>)
     7bc:	0312      	lsls	r2, r2, #12
     7be:	601a      	str	r2, [r3, #0]
     7c0:	4770      	bx	lr
     7c2:	46c0      	nop			; (mov r8, r8)
     7c4:	40000400 	.word	0x40000400
     7c8:	42003000 	.word	0x42003000
     7cc:	e000e100 	.word	0xe000e100

000007d0 <SaLRtcInit>:
     7d0:	2281      	movs	r2, #129	; 0x81
     7d2:	4b16      	ldr	r3, [pc, #88]	; (82c <SaLRtcInit+0x5c>)
     7d4:	0052      	lsls	r2, r2, #1
     7d6:	609a      	str	r2, [r3, #8]
     7d8:	4a15      	ldr	r2, [pc, #84]	; (830 <SaLRtcInit+0x60>)
     7da:	605a      	str	r2, [r3, #4]
     7dc:	785a      	ldrb	r2, [r3, #1]
     7de:	b252      	sxtb	r2, r2
     7e0:	2a00      	cmp	r2, #0
     7e2:	dbfb      	blt.n	7dc <SaLRtcInit+0xc>
     7e4:	4a13      	ldr	r2, [pc, #76]	; (834 <SaLRtcInit+0x64>)
     7e6:	4b11      	ldr	r3, [pc, #68]	; (82c <SaLRtcInit+0x5c>)
     7e8:	805a      	strh	r2, [r3, #2]
     7ea:	2204      	movs	r2, #4
     7ec:	4b12      	ldr	r3, [pc, #72]	; (838 <SaLRtcInit+0x68>)
     7ee:	801a      	strh	r2, [r3, #0]
     7f0:	7a9a      	ldrb	r2, [r3, #10]
     7f2:	09d2      	lsrs	r2, r2, #7
     7f4:	d1fc      	bne.n	7f0 <SaLRtcInit+0x20>
     7f6:	7a9a      	ldrb	r2, [r3, #10]
     7f8:	09d2      	lsrs	r2, r2, #7
     7fa:	d1fc      	bne.n	7f6 <SaLRtcInit+0x26>
     7fc:	490f      	ldr	r1, [pc, #60]	; (83c <SaLRtcInit+0x6c>)
     7fe:	4a0e      	ldr	r2, [pc, #56]	; (838 <SaLRtcInit+0x68>)
     800:	8291      	strh	r1, [r2, #20]
     802:	7a99      	ldrb	r1, [r3, #10]
     804:	4a0c      	ldr	r2, [pc, #48]	; (838 <SaLRtcInit+0x68>)
     806:	09c9      	lsrs	r1, r1, #7
     808:	d1fb      	bne.n	802 <SaLRtcInit+0x32>
     80a:	8851      	ldrh	r1, [r2, #2]
     80c:	480c      	ldr	r0, [pc, #48]	; (840 <SaLRtcInit+0x70>)
     80e:	4301      	orrs	r1, r0
     810:	8051      	strh	r1, [r2, #2]
     812:	2180      	movs	r1, #128	; 0x80
     814:	2002      	movs	r0, #2
     816:	71d1      	strb	r1, [r2, #7]
     818:	8811      	ldrh	r1, [r2, #0]
     81a:	4301      	orrs	r1, r0
     81c:	8011      	strh	r1, [r2, #0]
     81e:	7a9a      	ldrb	r2, [r3, #10]
     820:	09d2      	lsrs	r2, r2, #7
     822:	d1fc      	bne.n	81e <SaLRtcInit+0x4e>
     824:	4b07      	ldr	r3, [pc, #28]	; (844 <SaLRtcInit+0x74>)
     826:	3208      	adds	r2, #8
     828:	601a      	str	r2, [r3, #0]
     82a:	4770      	bx	lr
     82c:	40000c00 	.word	0x40000c00
     830:	00230002 	.word	0x00230002
     834:	00004204 	.word	0x00004204
     838:	40001400 	.word	0x40001400
     83c:	000003e6 	.word	0x000003e6
     840:	00004010 	.word	0x00004010
     844:	e000e100 	.word	0xe000e100

00000848 <RTC_Handler>:
     848:	21fa      	movs	r1, #250	; 0xfa
     84a:	4a04      	ldr	r2, [pc, #16]	; (85c <RTC_Handler+0x14>)
     84c:	0089      	lsls	r1, r1, #2
     84e:	6813      	ldr	r3, [r2, #0]
     850:	185b      	adds	r3, r3, r1
     852:	6013      	str	r3, [r2, #0]
     854:	22ff      	movs	r2, #255	; 0xff
     856:	4b02      	ldr	r3, [pc, #8]	; (860 <RTC_Handler+0x18>)
     858:	721a      	strb	r2, [r3, #8]
     85a:	4770      	bx	lr
     85c:	20000454 	.word	0x20000454
     860:	40001400 	.word	0x40001400

00000864 <millis>:
     864:	b530      	push	{r4, r5, lr}
     866:	f3ef 8110 	mrs	r1, PRIMASK
     86a:	b672      	cpsid	i
     86c:	4a08      	ldr	r2, [pc, #32]	; (890 <millis+0x2c>)
     86e:	4d09      	ldr	r5, [pc, #36]	; (894 <millis+0x30>)
     870:	682b      	ldr	r3, [r5, #0]
     872:	8a10      	ldrh	r0, [r2, #16]
     874:	7a14      	ldrb	r4, [r2, #8]
     876:	b280      	uxth	r0, r0
     878:	09e4      	lsrs	r4, r4, #7
     87a:	d004      	beq.n	886 <millis+0x22>
     87c:	6828      	ldr	r0, [r5, #0]
     87e:	8a13      	ldrh	r3, [r2, #16]
     880:	22fa      	movs	r2, #250	; 0xfa
     882:	0092      	lsls	r2, r2, #2
     884:	1880      	adds	r0, r0, r2
     886:	18c0      	adds	r0, r0, r3
     888:	f381 8810 	msr	PRIMASK, r1
     88c:	bd30      	pop	{r4, r5, pc}
     88e:	46c0      	nop			; (mov r8, r8)
     890:	40001400 	.word	0x40001400
     894:	20000454 	.word	0x20000454

00000898 <delay_cycles>:
     898:	2800      	cmp	r0, #0
     89a:	d006      	beq.n	8aa <delay_cycles+0x12>
     89c:	2200      	movs	r2, #0
     89e:	4b03      	ldr	r3, [pc, #12]	; (8ac <delay_cycles+0x14>)
     8a0:	6058      	str	r0, [r3, #4]
     8a2:	609a      	str	r2, [r3, #8]
     8a4:	681a      	ldr	r2, [r3, #0]
     8a6:	03d2      	lsls	r2, r2, #15
     8a8:	d5fc      	bpl.n	8a4 <delay_cycles+0xc>
     8aa:	4770      	bx	lr
     8ac:	e000e010 	.word	0xe000e010

000008b0 <SaLDelayInit>:
     8b0:	22fa      	movs	r2, #250	; 0xfa
     8b2:	4b04      	ldr	r3, [pc, #16]	; (8c4 <SaLDelayInit+0x14>)
     8b4:	01d2      	lsls	r2, r2, #7
     8b6:	601a      	str	r2, [r3, #0]
     8b8:	2220      	movs	r2, #32
     8ba:	605a      	str	r2, [r3, #4]
     8bc:	4b02      	ldr	r3, [pc, #8]	; (8c8 <SaLDelayInit+0x18>)
     8be:	3a1b      	subs	r2, #27
     8c0:	601a      	str	r2, [r3, #0]
     8c2:	4770      	bx	lr
     8c4:	20000000 	.word	0x20000000
     8c8:	e000e010 	.word	0xe000e010

000008cc <delay_us>:
     8cc:	b510      	push	{r4, lr}
     8ce:	1c04      	adds	r4, r0, #0
     8d0:	2c00      	cmp	r4, #0
     8d2:	d005      	beq.n	8e0 <delay_us+0x14>
     8d4:	4b03      	ldr	r3, [pc, #12]	; (8e4 <delay_us+0x18>)
     8d6:	3c01      	subs	r4, #1
     8d8:	6858      	ldr	r0, [r3, #4]
     8da:	4b03      	ldr	r3, [pc, #12]	; (8e8 <delay_us+0x1c>)
     8dc:	4798      	blx	r3
     8de:	e7f7      	b.n	8d0 <delay_us+0x4>
     8e0:	bd10      	pop	{r4, pc}
     8e2:	46c0      	nop			; (mov r8, r8)
     8e4:	20000000 	.word	0x20000000
     8e8:	00000899 	.word	0x00000899

000008ec <SaLPinMode>:
     8ec:	2300      	movs	r3, #0
     8ee:	b510      	push	{r4, lr}
     8f0:	0942      	lsrs	r2, r0, #5
     8f2:	09c4      	lsrs	r4, r0, #7
     8f4:	429c      	cmp	r4, r3
     8f6:	d102      	bne.n	8fe <SaLPinMode+0x12>
     8f8:	01d3      	lsls	r3, r2, #7
     8fa:	4a10      	ldr	r2, [pc, #64]	; (93c <SaLPinMode+0x50>)
     8fc:	189b      	adds	r3, r3, r2
     8fe:	221f      	movs	r2, #31
     900:	2401      	movs	r4, #1
     902:	4002      	ands	r2, r0
     904:	4094      	lsls	r4, r2
     906:	2901      	cmp	r1, #1
     908:	d104      	bne.n	914 <SaLPinMode+0x28>
     90a:	609c      	str	r4, [r3, #8]
     90c:	181b      	adds	r3, r3, r0
     90e:	3340      	adds	r3, #64	; 0x40
     910:	2200      	movs	r2, #0
     912:	e010      	b.n	936 <SaLPinMode+0x4a>
     914:	2900      	cmp	r1, #0
     916:	d108      	bne.n	92a <SaLPinMode+0x3e>
     918:	2202      	movs	r2, #2
     91a:	605c      	str	r4, [r3, #4]
     91c:	181b      	adds	r3, r3, r0
     91e:	3340      	adds	r3, #64	; 0x40
     920:	701a      	strb	r2, [r3, #0]
     922:	781a      	ldrb	r2, [r3, #0]
     924:	3104      	adds	r1, #4
     926:	430a      	orrs	r2, r1
     928:	e005      	b.n	936 <SaLPinMode+0x4a>
     92a:	2903      	cmp	r1, #3
     92c:	d104      	bne.n	938 <SaLPinMode+0x4c>
     92e:	2240      	movs	r2, #64	; 0x40
     930:	609c      	str	r4, [r3, #8]
     932:	181b      	adds	r3, r3, r0
     934:	3340      	adds	r3, #64	; 0x40
     936:	701a      	strb	r2, [r3, #0]
     938:	bd10      	pop	{r4, pc}
     93a:	46c0      	nop			; (mov r8, r8)
     93c:	41004400 	.word	0x41004400

00000940 <sampleTick>:
     940:	b5f7      	push	{r0, r1, r2, r4, r5, r6, r7, lr}
     942:	4d2e      	ldr	r5, [pc, #184]	; (9fc <sampleTick+0xbc>)
     944:	782b      	ldrb	r3, [r5, #0]
     946:	2b00      	cmp	r3, #0
     948:	d102      	bne.n	950 <sampleTick+0x10>
     94a:	4b2d      	ldr	r3, [pc, #180]	; (a00 <sampleTick+0xc0>)
     94c:	4798      	blx	r3
     94e:	7028      	strb	r0, [r5, #0]
     950:	4b2c      	ldr	r3, [pc, #176]	; (a04 <sampleTick+0xc4>)
     952:	781a      	ldrb	r2, [r3, #0]
     954:	9300      	str	r3, [sp, #0]
     956:	2a00      	cmp	r2, #0
     958:	d103      	bne.n	962 <sampleTick+0x22>
     95a:	4b2b      	ldr	r3, [pc, #172]	; (a08 <sampleTick+0xc8>)
     95c:	4798      	blx	r3
     95e:	9b00      	ldr	r3, [sp, #0]
     960:	7018      	strb	r0, [r3, #0]
     962:	782b      	ldrb	r3, [r5, #0]
     964:	2b00      	cmp	r3, #0
     966:	d048      	beq.n	9fa <sampleTick+0xba>
     968:	9b00      	ldr	r3, [sp, #0]
     96a:	781b      	ldrb	r3, [r3, #0]
     96c:	2b00      	cmp	r3, #0
     96e:	d044      	beq.n	9fa <sampleTick+0xba>
     970:	4b26      	ldr	r3, [pc, #152]	; (a0c <sampleTick+0xcc>)
     972:	4798      	blx	r3
     974:	4f26      	ldr	r7, [pc, #152]	; (a10 <sampleTick+0xd0>)
     976:	4c27      	ldr	r4, [pc, #156]	; (a14 <sampleTick+0xd4>)
     978:	6abb      	ldr	r3, [r7, #40]	; 0x28
     97a:	4e27      	ldr	r6, [pc, #156]	; (a18 <sampleTick+0xd8>)
     97c:	62a0      	str	r0, [r4, #40]	; 0x28
     97e:	1ac0      	subs	r0, r0, r3
     980:	62e0      	str	r0, [r4, #44]	; 0x2c
     982:	47b0      	blx	r6
     984:	4b25      	ldr	r3, [pc, #148]	; (a1c <sampleTick+0xdc>)
     986:	6060      	str	r0, [r4, #4]
     988:	4798      	blx	r3
     98a:	4b25      	ldr	r3, [pc, #148]	; (a20 <sampleTick+0xe0>)
     98c:	60e0      	str	r0, [r4, #12]
     98e:	4798      	blx	r3
     990:	4b24      	ldr	r3, [pc, #144]	; (a24 <sampleTick+0xe4>)
     992:	6120      	str	r0, [r4, #16]
     994:	4798      	blx	r3
     996:	6160      	str	r0, [r4, #20]
     998:	47b0      	blx	r6
     99a:	466a      	mov	r2, sp
     99c:	2600      	movs	r6, #0
     99e:	4b22      	ldr	r3, [pc, #136]	; (a28 <sampleTick+0xe8>)
     9a0:	63a0      	str	r0, [r4, #56]	; 0x38
     9a2:	881b      	ldrh	r3, [r3, #0]
     9a4:	1c38      	adds	r0, r7, #0
     9a6:	3301      	adds	r3, #1
     9a8:	b29b      	uxth	r3, r3
     9aa:	9301      	str	r3, [sp, #4]
     9ac:	8892      	ldrh	r2, [r2, #4]
     9ae:	4b1e      	ldr	r3, [pc, #120]	; (a28 <sampleTick+0xe8>)
     9b0:	1c21      	adds	r1, r4, #0
     9b2:	801a      	strh	r2, [r3, #0]
     9b4:	4b1d      	ldr	r3, [pc, #116]	; (a2c <sampleTick+0xec>)
     9b6:	2240      	movs	r2, #64	; 0x40
     9b8:	701e      	strb	r6, [r3, #0]
     9ba:	4b1d      	ldr	r3, [pc, #116]	; (a30 <sampleTick+0xf0>)
     9bc:	702e      	strb	r6, [r5, #0]
     9be:	701e      	strb	r6, [r3, #0]
     9c0:	9b00      	ldr	r3, [sp, #0]
     9c2:	701e      	strb	r6, [r3, #0]
     9c4:	4b1b      	ldr	r3, [pc, #108]	; (a34 <sampleTick+0xf4>)
     9c6:	4798      	blx	r3
     9c8:	466b      	mov	r3, sp
     9ca:	2204      	movs	r2, #4
     9cc:	5e9b      	ldrsh	r3, [r3, r2]
     9ce:	4a1a      	ldr	r2, [pc, #104]	; (a38 <sampleTick+0xf8>)
     9d0:	4293      	cmp	r3, r2
     9d2:	dd12      	ble.n	9fa <sampleTick+0xba>
     9d4:	4b14      	ldr	r3, [pc, #80]	; (a28 <sampleTick+0xe8>)
     9d6:	801e      	strh	r6, [r3, #0]
     9d8:	4b0c      	ldr	r3, [pc, #48]	; (a0c <sampleTick+0xcc>)
     9da:	4798      	blx	r3
     9dc:	4b17      	ldr	r3, [pc, #92]	; (a3c <sampleTick+0xfc>)
     9de:	4c18      	ldr	r4, [pc, #96]	; (a40 <sampleTick+0x100>)
     9e0:	b280      	uxth	r0, r0
     9e2:	8018      	strh	r0, [r3, #0]
     9e4:	8823      	ldrh	r3, [r4, #0]
     9e6:	1ac0      	subs	r0, r0, r3
     9e8:	4b16      	ldr	r3, [pc, #88]	; (a44 <sampleTick+0x104>)
     9ea:	8018      	strh	r0, [r3, #0]
     9ec:	4b07      	ldr	r3, [pc, #28]	; (a0c <sampleTick+0xcc>)
     9ee:	4798      	blx	r3
     9f0:	8020      	strh	r0, [r4, #0]
     9f2:	20c8      	movs	r0, #200	; 0xc8
     9f4:	4b14      	ldr	r3, [pc, #80]	; (a48 <sampleTick+0x108>)
     9f6:	0040      	lsls	r0, r0, #1
     9f8:	4798      	blx	r3
     9fa:	bdf7      	pop	{r0, r1, r2, r4, r5, r6, r7, pc}
     9fc:	200004f2 	.word	0x200004f2
     a00:	00000529 	.word	0x00000529
     a04:	200004f1 	.word	0x200004f1
     a08:	000002ed 	.word	0x000002ed
     a0c:	00000865 	.word	0x00000865
     a10:	200004fc 	.word	0x200004fc
     a14:	200004b0 	.word	0x200004b0
     a18:	000005e5 	.word	0x000005e5
     a1c:	0000047d 	.word	0x0000047d
     a20:	00000489 	.word	0x00000489
     a24:	00000495 	.word	0x00000495
     a28:	20000458 	.word	0x20000458
     a2c:	200004a0 	.word	0x200004a0
     a30:	2000048c 	.word	0x2000048c
     a34:	0000198d 	.word	0x0000198d
     a38:	00001388 	.word	0x00001388
     a3c:	200004fa 	.word	0x200004fa
     a40:	200004f8 	.word	0x200004f8
     a44:	200004ac 	.word	0x200004ac
     a48:	000006b9 	.word	0x000006b9

00000a4c <sampleInit>:
     a4c:	b508      	push	{r3, lr}
     a4e:	2300      	movs	r3, #0
     a50:	4a05      	ldr	r2, [pc, #20]	; (a68 <sampleInit+0x1c>)
     a52:	7013      	strb	r3, [r2, #0]
     a54:	4a05      	ldr	r2, [pc, #20]	; (a6c <sampleInit+0x20>)
     a56:	7013      	strb	r3, [r2, #0]
     a58:	4a05      	ldr	r2, [pc, #20]	; (a70 <sampleInit+0x24>)
     a5a:	7013      	strb	r3, [r2, #0]
     a5c:	4b05      	ldr	r3, [pc, #20]	; (a74 <sampleInit+0x28>)
     a5e:	4798      	blx	r3
     a60:	4b05      	ldr	r3, [pc, #20]	; (a78 <sampleInit+0x2c>)
     a62:	6298      	str	r0, [r3, #40]	; 0x28
     a64:	bd08      	pop	{r3, pc}
     a66:	46c0      	nop			; (mov r8, r8)
     a68:	200004f2 	.word	0x200004f2
     a6c:	200004f1 	.word	0x200004f1
     a70:	200004f0 	.word	0x200004f0
     a74:	00000865 	.word	0x00000865
     a78:	200004fc 	.word	0x200004fc

00000a7c <uart_init>:
     a7c:	4b27      	ldr	r3, [pc, #156]	; (b1c <uart_init+0xa0>)
     a7e:	0100      	lsls	r0, r0, #4
     a80:	1a18      	subs	r0, r3, r0
     a82:	b510      	push	{r4, lr}
     a84:	0c01      	lsrs	r1, r0, #16
     a86:	4a25      	ldr	r2, [pc, #148]	; (b1c <uart_init+0xa0>)
     a88:	2300      	movs	r3, #0
     a8a:	0400      	lsls	r0, r0, #16
     a8c:	4c24      	ldr	r4, [pc, #144]	; (b20 <uart_init+0xa4>)
     a8e:	47a0      	blx	r4
     a90:	4b24      	ldr	r3, [pc, #144]	; (b24 <uart_init+0xa8>)
     a92:	4925      	ldr	r1, [pc, #148]	; (b28 <uart_init+0xac>)
     a94:	6a1a      	ldr	r2, [r3, #32]
     a96:	3a02      	subs	r2, #2
     a98:	621a      	str	r2, [r3, #32]
     a9a:	6a1a      	ldr	r2, [r3, #32]
     a9c:	1852      	adds	r2, r2, r1
     a9e:	2102      	movs	r1, #2
     aa0:	621a      	str	r2, [r3, #32]
     aa2:	6a1a      	ldr	r2, [r3, #32]
     aa4:	430a      	orrs	r2, r1
     aa6:	621a      	str	r2, [r3, #32]
     aa8:	2341      	movs	r3, #65	; 0x41
     aaa:	4a20      	ldr	r2, [pc, #128]	; (b2c <uart_init+0xb0>)
     aac:	317e      	adds	r1, #126	; 0x7e
     aae:	7013      	strb	r3, [r2, #0]
     ab0:	4a1f      	ldr	r2, [pc, #124]	; (b30 <uart_init+0xb4>)
     ab2:	7013      	strb	r3, [r2, #0]
     ab4:	2232      	movs	r2, #50	; 0x32
     ab6:	4b1f      	ldr	r3, [pc, #124]	; (b34 <uart_init+0xb8>)
     ab8:	701a      	strb	r2, [r3, #0]
     aba:	4a1f      	ldr	r2, [pc, #124]	; (b38 <uart_init+0xbc>)
     abc:	6a13      	ldr	r3, [r2, #32]
     abe:	430b      	orrs	r3, r1
     ac0:	6213      	str	r3, [r2, #32]
     ac2:	2204      	movs	r2, #4
     ac4:	4b1d      	ldr	r3, [pc, #116]	; (b3c <uart_init+0xc0>)
     ac6:	32ff      	adds	r2, #255	; 0xff
     ac8:	609a      	str	r2, [r3, #8]
     aca:	4a1d      	ldr	r2, [pc, #116]	; (b40 <uart_init+0xc4>)
     acc:	605a      	str	r2, [r3, #4]
     ace:	4a1d      	ldr	r2, [pc, #116]	; (b44 <uart_init+0xc8>)
     ad0:	805a      	strh	r2, [r3, #2]
     ad2:	4a1d      	ldr	r2, [pc, #116]	; (b48 <uart_init+0xcc>)
     ad4:	805a      	strh	r2, [r3, #2]
     ad6:	4b1d      	ldr	r3, [pc, #116]	; (b4c <uart_init+0xd0>)
     ad8:	4a1d      	ldr	r2, [pc, #116]	; (b50 <uart_init+0xd4>)
     ada:	601a      	str	r2, [r3, #0]
     adc:	69da      	ldr	r2, [r3, #28]
     ade:	0752      	lsls	r2, r2, #29
     ae0:	d4fc      	bmi.n	adc <uart_init+0x60>
     ae2:	21c0      	movs	r1, #192	; 0xc0
     ae4:	4a19      	ldr	r2, [pc, #100]	; (b4c <uart_init+0xd0>)
     ae6:	0289      	lsls	r1, r1, #10
     ae8:	6051      	str	r1, [r2, #4]
     aea:	69da      	ldr	r2, [r3, #28]
     aec:	0752      	lsls	r2, r2, #29
     aee:	d4fc      	bmi.n	aea <uart_init+0x6e>
     af0:	4a16      	ldr	r2, [pc, #88]	; (b4c <uart_init+0xd0>)
     af2:	b280      	uxth	r0, r0
     af4:	8190      	strh	r0, [r2, #12]
     af6:	69da      	ldr	r2, [r3, #28]
     af8:	4914      	ldr	r1, [pc, #80]	; (b4c <uart_init+0xd0>)
     afa:	0752      	lsls	r2, r2, #29
     afc:	d4fb      	bmi.n	af6 <uart_init+0x7a>
     afe:	2002      	movs	r0, #2
     b00:	680a      	ldr	r2, [r1, #0]
     b02:	4302      	orrs	r2, r0
     b04:	600a      	str	r2, [r1, #0]
     b06:	69da      	ldr	r2, [r3, #28]
     b08:	0752      	lsls	r2, r2, #29
     b0a:	d4fc      	bmi.n	b06 <uart_init+0x8a>
     b0c:	4b11      	ldr	r3, [pc, #68]	; (b54 <uart_init+0xd8>)
     b0e:	4a0f      	ldr	r2, [pc, #60]	; (b4c <uart_init+0xd0>)
     b10:	609a      	str	r2, [r3, #8]
     b12:	4a11      	ldr	r2, [pc, #68]	; (b58 <uart_init+0xdc>)
     b14:	605a      	str	r2, [r3, #4]
     b16:	4a11      	ldr	r2, [pc, #68]	; (b5c <uart_init+0xe0>)
     b18:	601a      	str	r2, [r3, #0]
     b1a:	bd10      	pop	{r4, pc}
     b1c:	007a1200 	.word	0x007a1200
     b20:	00000ddd 	.word	0x00000ddd
     b24:	40000800 	.word	0x40000800
     b28:	fffffd00 	.word	0xfffffd00
     b2c:	410044d6 	.word	0x410044d6
     b30:	410044d7 	.word	0x410044d7
     b34:	410044bb 	.word	0x410044bb
     b38:	40000400 	.word	0x40000400
     b3c:	40000c00 	.word	0x40000c00
     b40:	00230603 	.word	0x00230603
     b44:	00004319 	.word	0x00004319
     b48:	00004317 	.word	0x00004317
     b4c:	42001c00 	.word	0x42001c00
     b50:	40310004 	.word	0x40310004
     b54:	2000053c 	.word	0x2000053c
     b58:	00000b71 	.word	0x00000b71
     b5c:	00000bad 	.word	0x00000bad

00000b60 <SaLSyncUsartIo>:
     b60:	6008      	str	r0, [r1, #0]
     b62:	4770      	bx	lr

00000b64 <_usartByteRecieved>:
     b64:	6803      	ldr	r3, [r0, #0]
     b66:	7e18      	ldrb	r0, [r3, #24]
     b68:	0740      	lsls	r0, r0, #29
     b6a:	0fc0      	lsrs	r0, r0, #31
     b6c:	4770      	bx	lr
	...

00000b70 <SaLUsartDataRead>:
     b70:	b5f8      	push	{r3, r4, r5, r6, r7, lr}
     b72:	1c07      	adds	r7, r0, #0
     b74:	1c0e      	adds	r6, r1, #0
     b76:	1c14      	adds	r4, r2, #0
     b78:	1c0d      	adds	r5, r1, #0
     b7a:	1c38      	adds	r0, r7, #0
     b7c:	4b07      	ldr	r3, [pc, #28]	; (b9c <SaLUsartDataRead+0x2c>)
     b7e:	3008      	adds	r0, #8
     b80:	4798      	blx	r3
     b82:	2800      	cmp	r0, #0
     b84:	d0f9      	beq.n	b7a <SaLUsartDataRead+0xa>
     b86:	68bb      	ldr	r3, [r7, #8]
     b88:	8d1b      	ldrh	r3, [r3, #40]	; 0x28
     b8a:	702b      	strb	r3, [r5, #0]
     b8c:	3501      	adds	r5, #1
     b8e:	1bab      	subs	r3, r5, r6
     b90:	42a3      	cmp	r3, r4
     b92:	dbf2      	blt.n	b7a <SaLUsartDataRead+0xa>
     b94:	1e20      	subs	r0, r4, #0
     b96:	dc00      	bgt.n	b9a <SaLUsartDataRead+0x2a>
     b98:	2001      	movs	r0, #1
     b9a:	bdf8      	pop	{r3, r4, r5, r6, r7, pc}
     b9c:	00000b65 	.word	0x00000b65

00000ba0 <_usartGetDreInterupt>:
     ba0:	6803      	ldr	r3, [r0, #0]
     ba2:	7e18      	ldrb	r0, [r3, #24]
     ba4:	2301      	movs	r3, #1
     ba6:	4018      	ands	r0, r3
     ba8:	4770      	bx	lr
	...

00000bac <SaLUsartDataWrite>:
     bac:	b5f7      	push	{r0, r1, r2, r4, r5, r6, r7, lr}
     bae:	1c07      	adds	r7, r0, #0
     bb0:	1c0d      	adds	r5, r1, #0
     bb2:	9200      	str	r2, [sp, #0]
     bb4:	1c3e      	adds	r6, r7, #0
     bb6:	3608      	adds	r6, #8
     bb8:	4c0d      	ldr	r4, [pc, #52]	; (bf0 <SaLUsartDataWrite+0x44>)
     bba:	1c30      	adds	r0, r6, #0
     bbc:	47a0      	blx	r4
     bbe:	9401      	str	r4, [sp, #4]
     bc0:	2800      	cmp	r0, #0
     bc2:	d0f7      	beq.n	bb4 <SaLUsartDataWrite+0x8>
     bc4:	1c2c      	adds	r4, r5, #0
     bc6:	f3ef 8310 	mrs	r3, PRIMASK
     bca:	b672      	cpsid	i
     bcc:	7822      	ldrb	r2, [r4, #0]
     bce:	863a      	strh	r2, [r7, #48]	; 0x30
     bd0:	f383 8810 	msr	PRIMASK, r3
     bd4:	1c30      	adds	r0, r6, #0
     bd6:	9b01      	ldr	r3, [sp, #4]
     bd8:	4798      	blx	r3
     bda:	2800      	cmp	r0, #0
     bdc:	d0fa      	beq.n	bd4 <SaLUsartDataWrite+0x28>
     bde:	9a00      	ldr	r2, [sp, #0]
     be0:	3401      	adds	r4, #1
     be2:	1b63      	subs	r3, r4, r5
     be4:	4293      	cmp	r3, r2
     be6:	dbee      	blt.n	bc6 <SaLUsartDataWrite+0x1a>
     be8:	1e10      	subs	r0, r2, #0
     bea:	dc00      	bgt.n	bee <SaLUsartDataWrite+0x42>
     bec:	2001      	movs	r0, #1
     bee:	bdfe      	pop	{r1, r2, r3, r4, r5, r6, r7, pc}
     bf0:	00000ba1 	.word	0x00000ba1

00000bf4 <Dummy_Handler>:
     bf4:	f3ef 8305 	mrs	r3, IPSR
     bf8:	e7fc      	b.n	bf4 <Dummy_Handler>
	...

00000bfc <Reset_Handler>:
     bfc:	4821      	ldr	r0, [pc, #132]	; (c84 <Reset_Handler+0x88>)
     bfe:	4922      	ldr	r1, [pc, #136]	; (c88 <Reset_Handler+0x8c>)
     c00:	b570      	push	{r4, r5, r6, lr}
     c02:	2300      	movs	r3, #0
     c04:	4288      	cmp	r0, r1
     c06:	d101      	bne.n	c0c <Reset_Handler+0x10>
     c08:	4b20      	ldr	r3, [pc, #128]	; (c8c <Reset_Handler+0x90>)
     c0a:	e007      	b.n	c1c <Reset_Handler+0x20>
     c0c:	4c20      	ldr	r4, [pc, #128]	; (c90 <Reset_Handler+0x94>)
     c0e:	18ca      	adds	r2, r1, r3
     c10:	42a2      	cmp	r2, r4
     c12:	d2f9      	bcs.n	c08 <Reset_Handler+0xc>
     c14:	58c4      	ldr	r4, [r0, r3]
     c16:	3304      	adds	r3, #4
     c18:	6014      	str	r4, [r2, #0]
     c1a:	e7f7      	b.n	c0c <Reset_Handler+0x10>
     c1c:	4a1d      	ldr	r2, [pc, #116]	; (c94 <Reset_Handler+0x98>)
     c1e:	4293      	cmp	r3, r2
     c20:	d202      	bcs.n	c28 <Reset_Handler+0x2c>
     c22:	2200      	movs	r2, #0
     c24:	c304      	stmia	r3!, {r2}
     c26:	e7f9      	b.n	c1c <Reset_Handler+0x20>
     c28:	21ff      	movs	r1, #255	; 0xff
     c2a:	2402      	movs	r4, #2
     c2c:	2503      	movs	r5, #3
     c2e:	4b1a      	ldr	r3, [pc, #104]	; (c98 <Reset_Handler+0x9c>)
     c30:	4a1a      	ldr	r2, [pc, #104]	; (c9c <Reset_Handler+0xa0>)
     c32:	438b      	bics	r3, r1
     c34:	260c      	movs	r6, #12
     c36:	6093      	str	r3, [r2, #8]
     c38:	2208      	movs	r2, #8
     c3a:	4b19      	ldr	r3, [pc, #100]	; (ca0 <Reset_Handler+0xa4>)
     c3c:	4919      	ldr	r1, [pc, #100]	; (ca4 <Reset_Handler+0xa8>)
     c3e:	625c      	str	r4, [r3, #36]	; 0x24
     c40:	78cb      	ldrb	r3, [r1, #3]
     c42:	43ab      	bics	r3, r5
     c44:	4323      	orrs	r3, r4
     c46:	70cb      	strb	r3, [r1, #3]
     c48:	78cb      	ldrb	r3, [r1, #3]
     c4a:	43b3      	bics	r3, r6
     c4c:	4313      	orrs	r3, r2
     c4e:	70cb      	strb	r3, [r1, #3]
     c50:	2130      	movs	r1, #48	; 0x30
     c52:	4b15      	ldr	r3, [pc, #84]	; (ca8 <Reset_Handler+0xac>)
     c54:	7b98      	ldrb	r0, [r3, #14]
     c56:	4388      	bics	r0, r1
     c58:	3910      	subs	r1, #16
     c5a:	4308      	orrs	r0, r1
     c5c:	7398      	strb	r0, [r3, #14]
     c5e:	7b99      	ldrb	r1, [r3, #14]
     c60:	43b1      	bics	r1, r6
     c62:	4311      	orrs	r1, r2
     c64:	7399      	strb	r1, [r3, #14]
     c66:	2180      	movs	r1, #128	; 0x80
     c68:	7b9a      	ldrb	r2, [r3, #14]
     c6a:	43aa      	bics	r2, r5
     c6c:	4322      	orrs	r2, r4
     c6e:	739a      	strb	r2, [r3, #14]
     c70:	4a0e      	ldr	r2, [pc, #56]	; (cac <Reset_Handler+0xb0>)
     c72:	6853      	ldr	r3, [r2, #4]
     c74:	430b      	orrs	r3, r1
     c76:	6053      	str	r3, [r2, #4]
     c78:	4b0d      	ldr	r3, [pc, #52]	; (cb0 <Reset_Handler+0xb4>)
     c7a:	4798      	blx	r3
     c7c:	4b0d      	ldr	r3, [pc, #52]	; (cb4 <Reset_Handler+0xb8>)
     c7e:	4798      	blx	r3
     c80:	e7fe      	b.n	c80 <Reset_Handler+0x84>
     c82:	46c0      	nop			; (mov r8, r8)
     c84:	00001ce0 	.word	0x00001ce0
     c88:	20000000 	.word	0x20000000
     c8c:	20000438 	.word	0x20000438
     c90:	20000438 	.word	0x20000438
     c94:	20000560 	.word	0x20000560
     c98:	00000000 	.word	0x00000000
     c9c:	e000ed00 	.word	0xe000ed00
     ca0:	410070fc 	.word	0x410070fc
     ca4:	41005000 	.word	0x41005000
     ca8:	41004800 	.word	0x41004800
     cac:	41004000 	.word	0x41004000
     cb0:	00001945 	.word	0x00001945
     cb4:	00000d21 	.word	0x00000d21

00000cb8 <SystemInit>:
     cb8:	4a01      	ldr	r2, [pc, #4]	; (cc0 <SystemInit+0x8>)
     cba:	4b02      	ldr	r3, [pc, #8]	; (cc4 <SystemInit+0xc>)
     cbc:	601a      	str	r2, [r3, #0]
     cbe:	4770      	bx	lr
     cc0:	000f4240 	.word	0x000f4240
     cc4:	20000008 	.word	0x20000008

00000cc8 <PinConfig>:
     cc8:	b538      	push	{r3, r4, r5, lr}
     cca:	2007      	movs	r0, #7
     ccc:	4c0c      	ldr	r4, [pc, #48]	; (d00 <PinConfig+0x38>)
     cce:	2100      	movs	r1, #0
     cd0:	47a0      	blx	r4
     cd2:	200a      	movs	r0, #10
     cd4:	2101      	movs	r1, #1
     cd6:	47a0      	blx	r4
     cd8:	2008      	movs	r0, #8
     cda:	2101      	movs	r1, #1
     cdc:	47a0      	blx	r4
     cde:	200c      	movs	r0, #12
     ce0:	2103      	movs	r1, #3
     ce2:	47a0      	blx	r4
     ce4:	2380      	movs	r3, #128	; 0x80
     ce6:	4d07      	ldr	r5, [pc, #28]	; (d04 <PinConfig+0x3c>)
     ce8:	00db      	lsls	r3, r3, #3
     cea:	61ab      	str	r3, [r5, #24]
     cec:	2380      	movs	r3, #128	; 0x80
     cee:	005b      	lsls	r3, r3, #1
     cf0:	61ab      	str	r3, [r5, #24]
     cf2:	2009      	movs	r0, #9
     cf4:	2101      	movs	r1, #1
     cf6:	47a0      	blx	r4
     cf8:	2380      	movs	r3, #128	; 0x80
     cfa:	009b      	lsls	r3, r3, #2
     cfc:	61ab      	str	r3, [r5, #24]
     cfe:	bd38      	pop	{r3, r4, r5, pc}
     d00:	000008ed 	.word	0x000008ed
     d04:	41004400 	.word	0x41004400

00000d08 <TC4_Handler>:
     d08:	2201      	movs	r2, #1
     d0a:	4b03      	ldr	r3, [pc, #12]	; (d18 <TC4_Handler+0x10>)
     d0c:	701a      	strb	r2, [r3, #0]
     d0e:	4b03      	ldr	r3, [pc, #12]	; (d1c <TC4_Handler+0x14>)
     d10:	32fe      	adds	r2, #254	; 0xfe
     d12:	739a      	strb	r2, [r3, #14]
     d14:	4770      	bx	lr
     d16:	46c0      	nop			; (mov r8, r8)
     d18:	20000558 	.word	0x20000558
     d1c:	42003000 	.word	0x42003000

00000d20 <main>:
     d20:	b510      	push	{r4, lr}
     d22:	4b18      	ldr	r3, [pc, #96]	; (d84 <main+0x64>)
     d24:	b08a      	sub	sp, #40	; 0x28
     d26:	4798      	blx	r3
     d28:	4b17      	ldr	r3, [pc, #92]	; (d88 <main+0x68>)
     d2a:	4798      	blx	r3
     d2c:	4b17      	ldr	r3, [pc, #92]	; (d8c <main+0x6c>)
     d2e:	4798      	blx	r3
     d30:	4b17      	ldr	r3, [pc, #92]	; (d90 <main+0x70>)
     d32:	4798      	blx	r3
     d34:	4b17      	ldr	r3, [pc, #92]	; (d94 <main+0x74>)
     d36:	4798      	blx	r3
     d38:	2096      	movs	r0, #150	; 0x96
     d3a:	4b17      	ldr	r3, [pc, #92]	; (d98 <main+0x78>)
     d3c:	0180      	lsls	r0, r0, #6
     d3e:	4798      	blx	r3
     d40:	4b16      	ldr	r3, [pc, #88]	; (d9c <main+0x7c>)
     d42:	4798      	blx	r3
     d44:	4b16      	ldr	r3, [pc, #88]	; (da0 <main+0x80>)
     d46:	4798      	blx	r3
     d48:	4c16      	ldr	r4, [pc, #88]	; (da4 <main+0x84>)
     d4a:	4817      	ldr	r0, [pc, #92]	; (da8 <main+0x88>)
     d4c:	a902      	add	r1, sp, #8
     d4e:	47a0      	blx	r4
     d50:	a903      	add	r1, sp, #12
     d52:	4816      	ldr	r0, [pc, #88]	; (dac <main+0x8c>)
     d54:	47a0      	blx	r4
     d56:	a804      	add	r0, sp, #16
     d58:	4b15      	ldr	r3, [pc, #84]	; (db0 <main+0x90>)
     d5a:	4798      	blx	r3
     d5c:	4b15      	ldr	r3, [pc, #84]	; (db4 <main+0x94>)
     d5e:	4798      	blx	r3
     d60:	466b      	mov	r3, sp
     d62:	1d9c      	adds	r4, r3, #6
     d64:	2300      	movs	r3, #0
     d66:	8023      	strh	r3, [r4, #0]
     d68:	8823      	ldrh	r3, [r4, #0]
     d6a:	4a13      	ldr	r2, [pc, #76]	; (db8 <main+0x98>)
     d6c:	3301      	adds	r3, #1
     d6e:	b29b      	uxth	r3, r3
     d70:	8023      	strh	r3, [r4, #0]
     d72:	6813      	ldr	r3, [r2, #0]
     d74:	3301      	adds	r3, #1
     d76:	6013      	str	r3, [r2, #0]
     d78:	4b10      	ldr	r3, [pc, #64]	; (dbc <main+0x9c>)
     d7a:	4798      	blx	r3
     d7c:	4b10      	ldr	r3, [pc, #64]	; (dc0 <main+0xa0>)
     d7e:	4798      	blx	r3
     d80:	e7f2      	b.n	d68 <main+0x48>
     d82:	46c0      	nop			; (mov r8, r8)
     d84:	00000cb9 	.word	0x00000cb9
     d88:	000008b1 	.word	0x000008b1
     d8c:	000006f5 	.word	0x000006f5
     d90:	000007d1 	.word	0x000007d1
     d94:	00000cc9 	.word	0x00000cc9
     d98:	00000a7d 	.word	0x00000a7d
     d9c:	00000799 	.word	0x00000799
     da0:	00000a4d 	.word	0x00000a4d
     da4:	00000b61 	.word	0x00000b61
     da8:	2000053c 	.word	0x2000053c
     dac:	20000548 	.word	0x20000548
     db0:	000003e5 	.word	0x000003e5
     db4:	000004a1 	.word	0x000004a1
     db8:	2000045c 	.word	0x2000045c
     dbc:	00000865 	.word	0x00000865
     dc0:	00000941 	.word	0x00000941

00000dc4 <__gnu_thumb1_case_uqi>:
     dc4:	b402      	push	{r1}
     dc6:	4671      	mov	r1, lr
     dc8:	0849      	lsrs	r1, r1, #1
     dca:	0049      	lsls	r1, r1, #1
     dcc:	5c09      	ldrb	r1, [r1, r0]
     dce:	0049      	lsls	r1, r1, #1
     dd0:	448e      	add	lr, r1
     dd2:	bc02      	pop	{r1}
     dd4:	4770      	bx	lr
     dd6:	46c0      	nop			; (mov r8, r8)

00000dd8 <__aeabi_idiv0>:
     dd8:	4770      	bx	lr
     dda:	46c0      	nop			; (mov r8, r8)

00000ddc <__aeabi_uldivmod>:
     ddc:	2b00      	cmp	r3, #0
     dde:	d111      	bne.n	e04 <__aeabi_uldivmod+0x28>
     de0:	2a00      	cmp	r2, #0
     de2:	d10f      	bne.n	e04 <__aeabi_uldivmod+0x28>
     de4:	2900      	cmp	r1, #0
     de6:	d100      	bne.n	dea <__aeabi_uldivmod+0xe>
     de8:	2800      	cmp	r0, #0
     dea:	d002      	beq.n	df2 <__aeabi_uldivmod+0x16>
     dec:	2100      	movs	r1, #0
     dee:	43c9      	mvns	r1, r1
     df0:	1c08      	adds	r0, r1, #0
     df2:	b407      	push	{r0, r1, r2}
     df4:	4802      	ldr	r0, [pc, #8]	; (e00 <__aeabi_uldivmod+0x24>)
     df6:	a102      	add	r1, pc, #8	; (adr r1, e00 <__aeabi_uldivmod+0x24>)
     df8:	1840      	adds	r0, r0, r1
     dfa:	9002      	str	r0, [sp, #8]
     dfc:	bd03      	pop	{r0, r1, pc}
     dfe:	46c0      	nop			; (mov r8, r8)
     e00:	ffffffd9 	.word	0xffffffd9
     e04:	b403      	push	{r0, r1}
     e06:	4668      	mov	r0, sp
     e08:	b501      	push	{r0, lr}
     e0a:	9802      	ldr	r0, [sp, #8]
     e0c:	f000 f84c 	bl	ea8 <__gnu_uldivmod_helper>
     e10:	9b01      	ldr	r3, [sp, #4]
     e12:	469e      	mov	lr, r3
     e14:	b002      	add	sp, #8
     e16:	bc0c      	pop	{r2, r3}
     e18:	4770      	bx	lr
     e1a:	46c0      	nop			; (mov r8, r8)

00000e1c <__aeabi_lmul>:
     e1c:	b5f0      	push	{r4, r5, r6, r7, lr}
     e1e:	464f      	mov	r7, r9
     e20:	4646      	mov	r6, r8
     e22:	0405      	lsls	r5, r0, #16
     e24:	0c2d      	lsrs	r5, r5, #16
     e26:	1c2c      	adds	r4, r5, #0
     e28:	b4c0      	push	{r6, r7}
     e2a:	0417      	lsls	r7, r2, #16
     e2c:	0c16      	lsrs	r6, r2, #16
     e2e:	0c3f      	lsrs	r7, r7, #16
     e30:	4699      	mov	r9, r3
     e32:	0c03      	lsrs	r3, r0, #16
     e34:	437c      	muls	r4, r7
     e36:	4375      	muls	r5, r6
     e38:	435f      	muls	r7, r3
     e3a:	4373      	muls	r3, r6
     e3c:	197d      	adds	r5, r7, r5
     e3e:	0c26      	lsrs	r6, r4, #16
     e40:	19ad      	adds	r5, r5, r6
     e42:	469c      	mov	ip, r3
     e44:	42af      	cmp	r7, r5
     e46:	d903      	bls.n	e50 <__aeabi_lmul+0x34>
     e48:	2380      	movs	r3, #128	; 0x80
     e4a:	025b      	lsls	r3, r3, #9
     e4c:	4698      	mov	r8, r3
     e4e:	44c4      	add	ip, r8
     e50:	464b      	mov	r3, r9
     e52:	4351      	muls	r1, r2
     e54:	4343      	muls	r3, r0
     e56:	0424      	lsls	r4, r4, #16
     e58:	0c2e      	lsrs	r6, r5, #16
     e5a:	0c24      	lsrs	r4, r4, #16
     e5c:	042d      	lsls	r5, r5, #16
     e5e:	4466      	add	r6, ip
     e60:	192c      	adds	r4, r5, r4
     e62:	1859      	adds	r1, r3, r1
     e64:	1989      	adds	r1, r1, r6
     e66:	1c20      	adds	r0, r4, #0
     e68:	bc0c      	pop	{r2, r3}
     e6a:	4690      	mov	r8, r2
     e6c:	4699      	mov	r9, r3
     e6e:	bdf0      	pop	{r4, r5, r6, r7, pc}

00000e70 <__gnu_ldivmod_helper>:
     e70:	b5f0      	push	{r4, r5, r6, r7, lr}
     e72:	b083      	sub	sp, #12
     e74:	1c16      	adds	r6, r2, #0
     e76:	1c1f      	adds	r7, r3, #0
     e78:	9000      	str	r0, [sp, #0]
     e7a:	9101      	str	r1, [sp, #4]
     e7c:	f000 fbb2 	bl	15e4 <__divdi3>
     e80:	1c04      	adds	r4, r0, #0
     e82:	1c0d      	adds	r5, r1, #0
     e84:	1c22      	adds	r2, r4, #0
     e86:	1c2b      	adds	r3, r5, #0
     e88:	1c30      	adds	r0, r6, #0
     e8a:	1c39      	adds	r1, r7, #0
     e8c:	f7ff ffc6 	bl	e1c <__aeabi_lmul>
     e90:	9a00      	ldr	r2, [sp, #0]
     e92:	9b01      	ldr	r3, [sp, #4]
     e94:	1a12      	subs	r2, r2, r0
     e96:	418b      	sbcs	r3, r1
     e98:	9908      	ldr	r1, [sp, #32]
     e9a:	1c20      	adds	r0, r4, #0
     e9c:	600a      	str	r2, [r1, #0]
     e9e:	604b      	str	r3, [r1, #4]
     ea0:	1c29      	adds	r1, r5, #0
     ea2:	b003      	add	sp, #12
     ea4:	bdf0      	pop	{r4, r5, r6, r7, pc}
     ea6:	46c0      	nop			; (mov r8, r8)

00000ea8 <__gnu_uldivmod_helper>:
     ea8:	b5f0      	push	{r4, r5, r6, r7, lr}
     eaa:	1c14      	adds	r4, r2, #0
     eac:	b083      	sub	sp, #12
     eae:	1c1d      	adds	r5, r3, #0
     eb0:	9000      	str	r0, [sp, #0]
     eb2:	9101      	str	r1, [sp, #4]
     eb4:	f000 fc8e 	bl	17d4 <__udivdi3>
     eb8:	1c22      	adds	r2, r4, #0
     eba:	1c2b      	adds	r3, r5, #0
     ebc:	1c06      	adds	r6, r0, #0
     ebe:	1c0f      	adds	r7, r1, #0
     ec0:	f7ff ffac 	bl	e1c <__aeabi_lmul>
     ec4:	9a00      	ldr	r2, [sp, #0]
     ec6:	9b01      	ldr	r3, [sp, #4]
     ec8:	1a12      	subs	r2, r2, r0
     eca:	418b      	sbcs	r3, r1
     ecc:	9908      	ldr	r1, [sp, #32]
     ece:	1c30      	adds	r0, r6, #0
     ed0:	600a      	str	r2, [r1, #0]
     ed2:	604b      	str	r3, [r1, #4]
     ed4:	1c39      	adds	r1, r7, #0
     ed6:	b003      	add	sp, #12
     ed8:	bdf0      	pop	{r4, r5, r6, r7, pc}
     eda:	46c0      	nop			; (mov r8, r8)

00000edc <__aeabi_dmul>:
     edc:	b5f0      	push	{r4, r5, r6, r7, lr}
     ede:	465f      	mov	r7, fp
     ee0:	4656      	mov	r6, sl
     ee2:	464d      	mov	r5, r9
     ee4:	4644      	mov	r4, r8
     ee6:	b4f0      	push	{r4, r5, r6, r7}
     ee8:	1c05      	adds	r5, r0, #0
     eea:	1c06      	adds	r6, r0, #0
     eec:	0308      	lsls	r0, r1, #12
     eee:	b087      	sub	sp, #28
     ef0:	4699      	mov	r9, r3
     ef2:	004f      	lsls	r7, r1, #1
     ef4:	0b03      	lsrs	r3, r0, #12
     ef6:	0fcc      	lsrs	r4, r1, #31
     ef8:	4692      	mov	sl, r2
     efa:	469b      	mov	fp, r3
     efc:	0d7f      	lsrs	r7, r7, #21
     efe:	9401      	str	r4, [sp, #4]
     f00:	d067      	beq.n	fd2 <__aeabi_dmul+0xf6>
     f02:	4b6c      	ldr	r3, [pc, #432]	; (10b4 <__aeabi_dmul+0x1d8>)
     f04:	429f      	cmp	r7, r3
     f06:	d036      	beq.n	f76 <__aeabi_dmul+0x9a>
     f08:	2080      	movs	r0, #128	; 0x80
     f0a:	465b      	mov	r3, fp
     f0c:	0340      	lsls	r0, r0, #13
     f0e:	4318      	orrs	r0, r3
     f10:	00c0      	lsls	r0, r0, #3
     f12:	0f6b      	lsrs	r3, r5, #29
     f14:	4318      	orrs	r0, r3
     f16:	4b68      	ldr	r3, [pc, #416]	; (10b8 <__aeabi_dmul+0x1dc>)
     f18:	4683      	mov	fp, r0
     f1a:	469c      	mov	ip, r3
     f1c:	2300      	movs	r3, #0
     f1e:	4698      	mov	r8, r3
     f20:	00ee      	lsls	r6, r5, #3
     f22:	4467      	add	r7, ip
     f24:	9300      	str	r3, [sp, #0]
     f26:	464b      	mov	r3, r9
     f28:	4649      	mov	r1, r9
     f2a:	031d      	lsls	r5, r3, #12
     f2c:	0fc9      	lsrs	r1, r1, #31
     f2e:	005b      	lsls	r3, r3, #1
     f30:	4652      	mov	r2, sl
     f32:	0b2d      	lsrs	r5, r5, #12
     f34:	0d5b      	lsrs	r3, r3, #21
     f36:	4689      	mov	r9, r1
     f38:	d100      	bne.n	f3c <__aeabi_dmul+0x60>
     f3a:	e06e      	b.n	101a <__aeabi_dmul+0x13e>
     f3c:	495d      	ldr	r1, [pc, #372]	; (10b4 <__aeabi_dmul+0x1d8>)
     f3e:	428b      	cmp	r3, r1
     f40:	d064      	beq.n	100c <__aeabi_dmul+0x130>
     f42:	2080      	movs	r0, #128	; 0x80
     f44:	495c      	ldr	r1, [pc, #368]	; (10b8 <__aeabi_dmul+0x1dc>)
     f46:	0340      	lsls	r0, r0, #13
     f48:	468c      	mov	ip, r1
     f4a:	2100      	movs	r1, #0
     f4c:	4305      	orrs	r5, r0
     f4e:	00ed      	lsls	r5, r5, #3
     f50:	0f50      	lsrs	r0, r2, #29
     f52:	4305      	orrs	r5, r0
     f54:	00d2      	lsls	r2, r2, #3
     f56:	4463      	add	r3, ip
     f58:	4648      	mov	r0, r9
     f5a:	18ff      	adds	r7, r7, r3
     f5c:	1c7b      	adds	r3, r7, #1
     f5e:	469a      	mov	sl, r3
     f60:	9b00      	ldr	r3, [sp, #0]
     f62:	4060      	eors	r0, r4
     f64:	9002      	str	r0, [sp, #8]
     f66:	430b      	orrs	r3, r1
     f68:	2b0f      	cmp	r3, #15
     f6a:	d900      	bls.n	f6e <__aeabi_dmul+0x92>
     f6c:	e0ac      	b.n	10c8 <__aeabi_dmul+0x1ec>
     f6e:	4853      	ldr	r0, [pc, #332]	; (10bc <__aeabi_dmul+0x1e0>)
     f70:	009b      	lsls	r3, r3, #2
     f72:	58c3      	ldr	r3, [r0, r3]
     f74:	469f      	mov	pc, r3
     f76:	465b      	mov	r3, fp
     f78:	431d      	orrs	r5, r3
     f7a:	d000      	beq.n	f7e <__aeabi_dmul+0xa2>
     f7c:	e082      	b.n	1084 <__aeabi_dmul+0x1a8>
     f7e:	2308      	movs	r3, #8
     f80:	9300      	str	r3, [sp, #0]
     f82:	2300      	movs	r3, #0
     f84:	469b      	mov	fp, r3
     f86:	3302      	adds	r3, #2
     f88:	2600      	movs	r6, #0
     f8a:	4698      	mov	r8, r3
     f8c:	e7cb      	b.n	f26 <__aeabi_dmul+0x4a>
     f8e:	9b02      	ldr	r3, [sp, #8]
     f90:	9301      	str	r3, [sp, #4]
     f92:	4643      	mov	r3, r8
     f94:	2b02      	cmp	r3, #2
     f96:	d159      	bne.n	104c <__aeabi_dmul+0x170>
     f98:	2401      	movs	r4, #1
     f9a:	2500      	movs	r5, #0
     f9c:	2600      	movs	r6, #0
     f9e:	9b01      	ldr	r3, [sp, #4]
     fa0:	401c      	ands	r4, r3
     fa2:	4b44      	ldr	r3, [pc, #272]	; (10b4 <__aeabi_dmul+0x1d8>)
     fa4:	2100      	movs	r1, #0
     fa6:	032d      	lsls	r5, r5, #12
     fa8:	0d0a      	lsrs	r2, r1, #20
     faa:	0512      	lsls	r2, r2, #20
     fac:	0b2d      	lsrs	r5, r5, #12
     fae:	4315      	orrs	r5, r2
     fb0:	4a43      	ldr	r2, [pc, #268]	; (10c0 <__aeabi_dmul+0x1e4>)
     fb2:	051b      	lsls	r3, r3, #20
     fb4:	4015      	ands	r5, r2
     fb6:	431d      	orrs	r5, r3
     fb8:	006d      	lsls	r5, r5, #1
     fba:	07e4      	lsls	r4, r4, #31
     fbc:	086d      	lsrs	r5, r5, #1
     fbe:	4325      	orrs	r5, r4
     fc0:	1c30      	adds	r0, r6, #0
     fc2:	1c29      	adds	r1, r5, #0
     fc4:	b007      	add	sp, #28
     fc6:	bc3c      	pop	{r2, r3, r4, r5}
     fc8:	4690      	mov	r8, r2
     fca:	4699      	mov	r9, r3
     fcc:	46a2      	mov	sl, r4
     fce:	46ab      	mov	fp, r5
     fd0:	bdf0      	pop	{r4, r5, r6, r7, pc}
     fd2:	432b      	orrs	r3, r5
     fd4:	d04e      	beq.n	1074 <__aeabi_dmul+0x198>
     fd6:	465b      	mov	r3, fp
     fd8:	2b00      	cmp	r3, #0
     fda:	d100      	bne.n	fde <__aeabi_dmul+0x102>
     fdc:	e185      	b.n	12ea <__aeabi_dmul+0x40e>
     fde:	4658      	mov	r0, fp
     fe0:	f000 fae2 	bl	15a8 <__clzsi2>
     fe4:	1c02      	adds	r2, r0, #0
     fe6:	2328      	movs	r3, #40	; 0x28
     fe8:	1c29      	adds	r1, r5, #0
     fea:	1a9b      	subs	r3, r3, r2
     fec:	1c16      	adds	r6, r2, #0
     fee:	4658      	mov	r0, fp
     ff0:	40d9      	lsrs	r1, r3
     ff2:	3e08      	subs	r6, #8
     ff4:	40b0      	lsls	r0, r6
     ff6:	1c0b      	adds	r3, r1, #0
     ff8:	40b5      	lsls	r5, r6
     ffa:	4303      	orrs	r3, r0
     ffc:	469b      	mov	fp, r3
     ffe:	1c2e      	adds	r6, r5, #0
    1000:	2300      	movs	r3, #0
    1002:	4f30      	ldr	r7, [pc, #192]	; (10c4 <__aeabi_dmul+0x1e8>)
    1004:	9300      	str	r3, [sp, #0]
    1006:	1abf      	subs	r7, r7, r2
    1008:	4698      	mov	r8, r3
    100a:	e78c      	b.n	f26 <__aeabi_dmul+0x4a>
    100c:	4651      	mov	r1, sl
    100e:	4329      	orrs	r1, r5
    1010:	d12e      	bne.n	1070 <__aeabi_dmul+0x194>
    1012:	2500      	movs	r5, #0
    1014:	2200      	movs	r2, #0
    1016:	2102      	movs	r1, #2
    1018:	e79e      	b.n	f58 <__aeabi_dmul+0x7c>
    101a:	4651      	mov	r1, sl
    101c:	4329      	orrs	r1, r5
    101e:	d023      	beq.n	1068 <__aeabi_dmul+0x18c>
    1020:	2d00      	cmp	r5, #0
    1022:	d100      	bne.n	1026 <__aeabi_dmul+0x14a>
    1024:	e154      	b.n	12d0 <__aeabi_dmul+0x3f4>
    1026:	1c28      	adds	r0, r5, #0
    1028:	f000 fabe 	bl	15a8 <__clzsi2>
    102c:	1c03      	adds	r3, r0, #0
    102e:	2128      	movs	r1, #40	; 0x28
    1030:	4650      	mov	r0, sl
    1032:	1ac9      	subs	r1, r1, r3
    1034:	1c1a      	adds	r2, r3, #0
    1036:	40c8      	lsrs	r0, r1
    1038:	4651      	mov	r1, sl
    103a:	3a08      	subs	r2, #8
    103c:	4091      	lsls	r1, r2
    103e:	4095      	lsls	r5, r2
    1040:	1c0a      	adds	r2, r1, #0
    1042:	4305      	orrs	r5, r0
    1044:	481f      	ldr	r0, [pc, #124]	; (10c4 <__aeabi_dmul+0x1e8>)
    1046:	2100      	movs	r1, #0
    1048:	1ac3      	subs	r3, r0, r3
    104a:	e785      	b.n	f58 <__aeabi_dmul+0x7c>
    104c:	2b03      	cmp	r3, #3
    104e:	d100      	bne.n	1052 <__aeabi_dmul+0x176>
    1050:	e1c2      	b.n	13d8 <__aeabi_dmul+0x4fc>
    1052:	2b01      	cmp	r3, #1
    1054:	d000      	beq.n	1058 <__aeabi_dmul+0x17c>
    1056:	e16d      	b.n	1334 <__aeabi_dmul+0x458>
    1058:	4644      	mov	r4, r8
    105a:	9b01      	ldr	r3, [sp, #4]
    105c:	2500      	movs	r5, #0
    105e:	401c      	ands	r4, r3
    1060:	b2e4      	uxtb	r4, r4
    1062:	2300      	movs	r3, #0
    1064:	2600      	movs	r6, #0
    1066:	e79d      	b.n	fa4 <__aeabi_dmul+0xc8>
    1068:	2500      	movs	r5, #0
    106a:	2200      	movs	r2, #0
    106c:	2101      	movs	r1, #1
    106e:	e773      	b.n	f58 <__aeabi_dmul+0x7c>
    1070:	2103      	movs	r1, #3
    1072:	e771      	b.n	f58 <__aeabi_dmul+0x7c>
    1074:	2304      	movs	r3, #4
    1076:	9300      	str	r3, [sp, #0]
    1078:	2300      	movs	r3, #0
    107a:	469b      	mov	fp, r3
    107c:	3301      	adds	r3, #1
    107e:	2600      	movs	r6, #0
    1080:	4698      	mov	r8, r3
    1082:	e750      	b.n	f26 <__aeabi_dmul+0x4a>
    1084:	230c      	movs	r3, #12
    1086:	9300      	str	r3, [sp, #0]
    1088:	3b09      	subs	r3, #9
    108a:	4698      	mov	r8, r3
    108c:	e74b      	b.n	f26 <__aeabi_dmul+0x4a>
    108e:	2580      	movs	r5, #128	; 0x80
    1090:	2400      	movs	r4, #0
    1092:	032d      	lsls	r5, r5, #12
    1094:	2600      	movs	r6, #0
    1096:	4b07      	ldr	r3, [pc, #28]	; (10b4 <__aeabi_dmul+0x1d8>)
    1098:	e784      	b.n	fa4 <__aeabi_dmul+0xc8>
    109a:	464b      	mov	r3, r9
    109c:	46ab      	mov	fp, r5
    109e:	1c16      	adds	r6, r2, #0
    10a0:	9301      	str	r3, [sp, #4]
    10a2:	4688      	mov	r8, r1
    10a4:	e775      	b.n	f92 <__aeabi_dmul+0xb6>
    10a6:	9b02      	ldr	r3, [sp, #8]
    10a8:	46ab      	mov	fp, r5
    10aa:	1c16      	adds	r6, r2, #0
    10ac:	9301      	str	r3, [sp, #4]
    10ae:	4688      	mov	r8, r1
    10b0:	e76f      	b.n	f92 <__aeabi_dmul+0xb6>
    10b2:	46c0      	nop			; (mov r8, r8)
    10b4:	000007ff 	.word	0x000007ff
    10b8:	fffffc01 	.word	0xfffffc01
    10bc:	00001c6c 	.word	0x00001c6c
    10c0:	800fffff 	.word	0x800fffff
    10c4:	fffffc0d 	.word	0xfffffc0d
    10c8:	0c33      	lsrs	r3, r6, #16
    10ca:	0436      	lsls	r6, r6, #16
    10cc:	0c36      	lsrs	r6, r6, #16
    10ce:	469c      	mov	ip, r3
    10d0:	1c33      	adds	r3, r6, #0
    10d2:	0c14      	lsrs	r4, r2, #16
    10d4:	0412      	lsls	r2, r2, #16
    10d6:	0c12      	lsrs	r2, r2, #16
    10d8:	4353      	muls	r3, r2
    10da:	4698      	mov	r8, r3
    10dc:	4663      	mov	r3, ip
    10de:	4353      	muls	r3, r2
    10e0:	4699      	mov	r9, r3
    10e2:	4663      	mov	r3, ip
    10e4:	4363      	muls	r3, r4
    10e6:	9301      	str	r3, [sp, #4]
    10e8:	1c33      	adds	r3, r6, #0
    10ea:	4641      	mov	r1, r8
    10ec:	4363      	muls	r3, r4
    10ee:	0c09      	lsrs	r1, r1, #16
    10f0:	444b      	add	r3, r9
    10f2:	185b      	adds	r3, r3, r1
    10f4:	4599      	cmp	r9, r3
    10f6:	d905      	bls.n	1104 <__aeabi_dmul+0x228>
    10f8:	2080      	movs	r0, #128	; 0x80
    10fa:	0240      	lsls	r0, r0, #9
    10fc:	4681      	mov	r9, r0
    10fe:	9901      	ldr	r1, [sp, #4]
    1100:	4449      	add	r1, r9
    1102:	9101      	str	r1, [sp, #4]
    1104:	0c19      	lsrs	r1, r3, #16
    1106:	9103      	str	r1, [sp, #12]
    1108:	4641      	mov	r1, r8
    110a:	0409      	lsls	r1, r1, #16
    110c:	0c09      	lsrs	r1, r1, #16
    110e:	041b      	lsls	r3, r3, #16
    1110:	185b      	adds	r3, r3, r1
    1112:	9304      	str	r3, [sp, #16]
    1114:	0c2b      	lsrs	r3, r5, #16
    1116:	4698      	mov	r8, r3
    1118:	1c33      	adds	r3, r6, #0
    111a:	042d      	lsls	r5, r5, #16
    111c:	0c29      	lsrs	r1, r5, #16
    111e:	434b      	muls	r3, r1
    1120:	4660      	mov	r0, ip
    1122:	9300      	str	r3, [sp, #0]
    1124:	4643      	mov	r3, r8
    1126:	4665      	mov	r5, ip
    1128:	4358      	muls	r0, r3
    112a:	435e      	muls	r6, r3
    112c:	9b00      	ldr	r3, [sp, #0]
    112e:	434d      	muls	r5, r1
    1130:	0c1b      	lsrs	r3, r3, #16
    1132:	4699      	mov	r9, r3
    1134:	19ae      	adds	r6, r5, r6
    1136:	444e      	add	r6, r9
    1138:	4684      	mov	ip, r0
    113a:	42b5      	cmp	r5, r6
    113c:	d903      	bls.n	1146 <__aeabi_dmul+0x26a>
    113e:	2380      	movs	r3, #128	; 0x80
    1140:	025b      	lsls	r3, r3, #9
    1142:	4699      	mov	r9, r3
    1144:	44cc      	add	ip, r9
    1146:	0c35      	lsrs	r5, r6, #16
    1148:	1c2b      	adds	r3, r5, #0
    114a:	9803      	ldr	r0, [sp, #12]
    114c:	4463      	add	r3, ip
    114e:	4684      	mov	ip, r0
    1150:	9305      	str	r3, [sp, #20]
    1152:	9b00      	ldr	r3, [sp, #0]
    1154:	0436      	lsls	r6, r6, #16
    1156:	041b      	lsls	r3, r3, #16
    1158:	0c1b      	lsrs	r3, r3, #16
    115a:	18f3      	adds	r3, r6, r3
    115c:	449c      	add	ip, r3
    115e:	4660      	mov	r0, ip
    1160:	9003      	str	r0, [sp, #12]
    1162:	4658      	mov	r0, fp
    1164:	0405      	lsls	r5, r0, #16
    1166:	0c06      	lsrs	r6, r0, #16
    1168:	0c28      	lsrs	r0, r5, #16
    116a:	4684      	mov	ip, r0
    116c:	4350      	muls	r0, r2
    116e:	1c35      	adds	r5, r6, #0
    1170:	4681      	mov	r9, r0
    1172:	4660      	mov	r0, ip
    1174:	4365      	muls	r5, r4
    1176:	4344      	muls	r4, r0
    1178:	4648      	mov	r0, r9
    117a:	0c00      	lsrs	r0, r0, #16
    117c:	4683      	mov	fp, r0
    117e:	4372      	muls	r2, r6
    1180:	1914      	adds	r4, r2, r4
    1182:	445c      	add	r4, fp
    1184:	42a2      	cmp	r2, r4
    1186:	d903      	bls.n	1190 <__aeabi_dmul+0x2b4>
    1188:	2280      	movs	r2, #128	; 0x80
    118a:	0252      	lsls	r2, r2, #9
    118c:	4693      	mov	fp, r2
    118e:	445d      	add	r5, fp
    1190:	0c22      	lsrs	r2, r4, #16
    1192:	18ad      	adds	r5, r5, r2
    1194:	464a      	mov	r2, r9
    1196:	0412      	lsls	r2, r2, #16
    1198:	0c12      	lsrs	r2, r2, #16
    119a:	0424      	lsls	r4, r4, #16
    119c:	4640      	mov	r0, r8
    119e:	18a4      	adds	r4, r4, r2
    11a0:	4662      	mov	r2, ip
    11a2:	434a      	muls	r2, r1
    11a4:	4371      	muls	r1, r6
    11a6:	4346      	muls	r6, r0
    11a8:	4660      	mov	r0, ip
    11aa:	9600      	str	r6, [sp, #0]
    11ac:	4646      	mov	r6, r8
    11ae:	4370      	muls	r0, r6
    11b0:	4680      	mov	r8, r0
    11b2:	0c10      	lsrs	r0, r2, #16
    11b4:	4684      	mov	ip, r0
    11b6:	4488      	add	r8, r1
    11b8:	44e0      	add	r8, ip
    11ba:	4541      	cmp	r1, r8
    11bc:	d905      	bls.n	11ca <__aeabi_dmul+0x2ee>
    11be:	2180      	movs	r1, #128	; 0x80
    11c0:	0249      	lsls	r1, r1, #9
    11c2:	468c      	mov	ip, r1
    11c4:	9900      	ldr	r1, [sp, #0]
    11c6:	4461      	add	r1, ip
    11c8:	9100      	str	r1, [sp, #0]
    11ca:	9801      	ldr	r0, [sp, #4]
    11cc:	9903      	ldr	r1, [sp, #12]
    11ce:	4684      	mov	ip, r0
    11d0:	4461      	add	r1, ip
    11d2:	4299      	cmp	r1, r3
    11d4:	419b      	sbcs	r3, r3
    11d6:	425b      	negs	r3, r3
    11d8:	4699      	mov	r9, r3
    11da:	9805      	ldr	r0, [sp, #20]
    11dc:	4643      	mov	r3, r8
    11de:	4684      	mov	ip, r0
    11e0:	0412      	lsls	r2, r2, #16
    11e2:	0c12      	lsrs	r2, r2, #16
    11e4:	041b      	lsls	r3, r3, #16
    11e6:	189b      	adds	r3, r3, r2
    11e8:	4463      	add	r3, ip
    11ea:	469c      	mov	ip, r3
    11ec:	46ab      	mov	fp, r5
    11ee:	4283      	cmp	r3, r0
    11f0:	419b      	sbcs	r3, r3
    11f2:	4640      	mov	r0, r8
    11f4:	190a      	adds	r2, r1, r4
    11f6:	44cc      	add	ip, r9
    11f8:	42a2      	cmp	r2, r4
    11fa:	4189      	sbcs	r1, r1
    11fc:	44e3      	add	fp, ip
    11fe:	45cc      	cmp	ip, r9
    1200:	41b6      	sbcs	r6, r6
    1202:	465c      	mov	r4, fp
    1204:	0c00      	lsrs	r0, r0, #16
    1206:	4680      	mov	r8, r0
    1208:	4249      	negs	r1, r1
    120a:	4276      	negs	r6, r6
    120c:	425b      	negs	r3, r3
    120e:	1864      	adds	r4, r4, r1
    1210:	4333      	orrs	r3, r6
    1212:	4498      	add	r8, r3
    1214:	428c      	cmp	r4, r1
    1216:	4189      	sbcs	r1, r1
    1218:	45ab      	cmp	fp, r5
    121a:	419b      	sbcs	r3, r3
    121c:	4249      	negs	r1, r1
    121e:	425b      	negs	r3, r3
    1220:	4319      	orrs	r1, r3
    1222:	1c0d      	adds	r5, r1, #0
    1224:	9b00      	ldr	r3, [sp, #0]
    1226:	4445      	add	r5, r8
    1228:	18ee      	adds	r6, r5, r3
    122a:	0276      	lsls	r6, r6, #9
    122c:	0de5      	lsrs	r5, r4, #23
    122e:	432e      	orrs	r6, r5
    1230:	46b3      	mov	fp, r6
    1232:	9b04      	ldr	r3, [sp, #16]
    1234:	0256      	lsls	r6, r2, #9
    1236:	431e      	orrs	r6, r3
    1238:	1e73      	subs	r3, r6, #1
    123a:	419e      	sbcs	r6, r3
    123c:	465b      	mov	r3, fp
    123e:	0dd2      	lsrs	r2, r2, #23
    1240:	4332      	orrs	r2, r6
    1242:	0266      	lsls	r6, r4, #9
    1244:	4316      	orrs	r6, r2
    1246:	01db      	lsls	r3, r3, #7
    1248:	d50a      	bpl.n	1260 <__aeabi_dmul+0x384>
    124a:	2301      	movs	r3, #1
    124c:	4033      	ands	r3, r6
    124e:	0876      	lsrs	r6, r6, #1
    1250:	431e      	orrs	r6, r3
    1252:	465b      	mov	r3, fp
    1254:	07db      	lsls	r3, r3, #31
    1256:	431e      	orrs	r6, r3
    1258:	465b      	mov	r3, fp
    125a:	085b      	lsrs	r3, r3, #1
    125c:	469b      	mov	fp, r3
    125e:	4657      	mov	r7, sl
    1260:	4b63      	ldr	r3, [pc, #396]	; (13f0 <__aeabi_dmul+0x514>)
    1262:	18fb      	adds	r3, r7, r3
    1264:	2b00      	cmp	r3, #0
    1266:	dd5a      	ble.n	131e <__aeabi_dmul+0x442>
    1268:	0772      	lsls	r2, r6, #29
    126a:	d009      	beq.n	1280 <__aeabi_dmul+0x3a4>
    126c:	220f      	movs	r2, #15
    126e:	4032      	ands	r2, r6
    1270:	2a04      	cmp	r2, #4
    1272:	d005      	beq.n	1280 <__aeabi_dmul+0x3a4>
    1274:	1d32      	adds	r2, r6, #4
    1276:	42b2      	cmp	r2, r6
    1278:	41b6      	sbcs	r6, r6
    127a:	4276      	negs	r6, r6
    127c:	44b3      	add	fp, r6
    127e:	1c16      	adds	r6, r2, #0
    1280:	465a      	mov	r2, fp
    1282:	01d2      	lsls	r2, r2, #7
    1284:	d506      	bpl.n	1294 <__aeabi_dmul+0x3b8>
    1286:	465a      	mov	r2, fp
    1288:	4b5a      	ldr	r3, [pc, #360]	; (13f4 <__aeabi_dmul+0x518>)
    128a:	401a      	ands	r2, r3
    128c:	2380      	movs	r3, #128	; 0x80
    128e:	4693      	mov	fp, r2
    1290:	00db      	lsls	r3, r3, #3
    1292:	18fb      	adds	r3, r7, r3
    1294:	4a58      	ldr	r2, [pc, #352]	; (13f8 <__aeabi_dmul+0x51c>)
    1296:	4293      	cmp	r3, r2
    1298:	dd34      	ble.n	1304 <__aeabi_dmul+0x428>
    129a:	2401      	movs	r4, #1
    129c:	9b02      	ldr	r3, [sp, #8]
    129e:	2500      	movs	r5, #0
    12a0:	401c      	ands	r4, r3
    12a2:	2600      	movs	r6, #0
    12a4:	4b55      	ldr	r3, [pc, #340]	; (13fc <__aeabi_dmul+0x520>)
    12a6:	e67d      	b.n	fa4 <__aeabi_dmul+0xc8>
    12a8:	2080      	movs	r0, #128	; 0x80
    12aa:	465b      	mov	r3, fp
    12ac:	0300      	lsls	r0, r0, #12
    12ae:	4203      	tst	r3, r0
    12b0:	d008      	beq.n	12c4 <__aeabi_dmul+0x3e8>
    12b2:	4205      	tst	r5, r0
    12b4:	d106      	bne.n	12c4 <__aeabi_dmul+0x3e8>
    12b6:	4305      	orrs	r5, r0
    12b8:	032d      	lsls	r5, r5, #12
    12ba:	0b2d      	lsrs	r5, r5, #12
    12bc:	464c      	mov	r4, r9
    12be:	1c16      	adds	r6, r2, #0
    12c0:	4b4e      	ldr	r3, [pc, #312]	; (13fc <__aeabi_dmul+0x520>)
    12c2:	e66f      	b.n	fa4 <__aeabi_dmul+0xc8>
    12c4:	465d      	mov	r5, fp
    12c6:	4305      	orrs	r5, r0
    12c8:	032d      	lsls	r5, r5, #12
    12ca:	0b2d      	lsrs	r5, r5, #12
    12cc:	4b4b      	ldr	r3, [pc, #300]	; (13fc <__aeabi_dmul+0x520>)
    12ce:	e669      	b.n	fa4 <__aeabi_dmul+0xc8>
    12d0:	4650      	mov	r0, sl
    12d2:	f000 f969 	bl	15a8 <__clzsi2>
    12d6:	1c03      	adds	r3, r0, #0
    12d8:	3320      	adds	r3, #32
    12da:	2b27      	cmp	r3, #39	; 0x27
    12dc:	dc00      	bgt.n	12e0 <__aeabi_dmul+0x404>
    12de:	e6a6      	b.n	102e <__aeabi_dmul+0x152>
    12e0:	4655      	mov	r5, sl
    12e2:	3808      	subs	r0, #8
    12e4:	4085      	lsls	r5, r0
    12e6:	2200      	movs	r2, #0
    12e8:	e6ac      	b.n	1044 <__aeabi_dmul+0x168>
    12ea:	1c28      	adds	r0, r5, #0
    12ec:	f000 f95c 	bl	15a8 <__clzsi2>
    12f0:	1c02      	adds	r2, r0, #0
    12f2:	3220      	adds	r2, #32
    12f4:	2a27      	cmp	r2, #39	; 0x27
    12f6:	dc00      	bgt.n	12fa <__aeabi_dmul+0x41e>
    12f8:	e675      	b.n	fe6 <__aeabi_dmul+0x10a>
    12fa:	3808      	subs	r0, #8
    12fc:	4085      	lsls	r5, r0
    12fe:	2600      	movs	r6, #0
    1300:	46ab      	mov	fp, r5
    1302:	e67d      	b.n	1000 <__aeabi_dmul+0x124>
    1304:	465a      	mov	r2, fp
    1306:	08f6      	lsrs	r6, r6, #3
    1308:	0752      	lsls	r2, r2, #29
    130a:	4316      	orrs	r6, r2
    130c:	465a      	mov	r2, fp
    130e:	2401      	movs	r4, #1
    1310:	0255      	lsls	r5, r2, #9
    1312:	9a02      	ldr	r2, [sp, #8]
    1314:	055b      	lsls	r3, r3, #21
    1316:	0b2d      	lsrs	r5, r5, #12
    1318:	0d5b      	lsrs	r3, r3, #21
    131a:	4014      	ands	r4, r2
    131c:	e642      	b.n	fa4 <__aeabi_dmul+0xc8>
    131e:	4d38      	ldr	r5, [pc, #224]	; (1400 <__aeabi_dmul+0x524>)
    1320:	1bed      	subs	r5, r5, r7
    1322:	2d38      	cmp	r5, #56	; 0x38
    1324:	dd0a      	ble.n	133c <__aeabi_dmul+0x460>
    1326:	2401      	movs	r4, #1
    1328:	9b02      	ldr	r3, [sp, #8]
    132a:	2500      	movs	r5, #0
    132c:	401c      	ands	r4, r3
    132e:	2600      	movs	r6, #0
    1330:	2300      	movs	r3, #0
    1332:	e637      	b.n	fa4 <__aeabi_dmul+0xc8>
    1334:	9b01      	ldr	r3, [sp, #4]
    1336:	4657      	mov	r7, sl
    1338:	9302      	str	r3, [sp, #8]
    133a:	e791      	b.n	1260 <__aeabi_dmul+0x384>
    133c:	2d1f      	cmp	r5, #31
    133e:	dc25      	bgt.n	138c <__aeabi_dmul+0x4b0>
    1340:	4b30      	ldr	r3, [pc, #192]	; (1404 <__aeabi_dmul+0x528>)
    1342:	1c32      	adds	r2, r6, #0
    1344:	469c      	mov	ip, r3
    1346:	4467      	add	r7, ip
    1348:	40be      	lsls	r6, r7
    134a:	465b      	mov	r3, fp
    134c:	40bb      	lsls	r3, r7
    134e:	1c37      	adds	r7, r6, #0
    1350:	40ea      	lsrs	r2, r5
    1352:	1e7e      	subs	r6, r7, #1
    1354:	41b7      	sbcs	r7, r6
    1356:	4313      	orrs	r3, r2
    1358:	433b      	orrs	r3, r7
    135a:	1c1e      	adds	r6, r3, #0
    135c:	465b      	mov	r3, fp
    135e:	40eb      	lsrs	r3, r5
    1360:	1c1d      	adds	r5, r3, #0
    1362:	0773      	lsls	r3, r6, #29
    1364:	d009      	beq.n	137a <__aeabi_dmul+0x49e>
    1366:	230f      	movs	r3, #15
    1368:	4033      	ands	r3, r6
    136a:	2b04      	cmp	r3, #4
    136c:	d005      	beq.n	137a <__aeabi_dmul+0x49e>
    136e:	1d33      	adds	r3, r6, #4
    1370:	42b3      	cmp	r3, r6
    1372:	41b6      	sbcs	r6, r6
    1374:	4276      	negs	r6, r6
    1376:	19ad      	adds	r5, r5, r6
    1378:	1c1e      	adds	r6, r3, #0
    137a:	022b      	lsls	r3, r5, #8
    137c:	d520      	bpl.n	13c0 <__aeabi_dmul+0x4e4>
    137e:	2401      	movs	r4, #1
    1380:	9b02      	ldr	r3, [sp, #8]
    1382:	2500      	movs	r5, #0
    1384:	401c      	ands	r4, r3
    1386:	2600      	movs	r6, #0
    1388:	2301      	movs	r3, #1
    138a:	e60b      	b.n	fa4 <__aeabi_dmul+0xc8>
    138c:	465a      	mov	r2, fp
    138e:	4b1e      	ldr	r3, [pc, #120]	; (1408 <__aeabi_dmul+0x52c>)
    1390:	1bdb      	subs	r3, r3, r7
    1392:	40da      	lsrs	r2, r3
    1394:	1c13      	adds	r3, r2, #0
    1396:	2d20      	cmp	r5, #32
    1398:	d01c      	beq.n	13d4 <__aeabi_dmul+0x4f8>
    139a:	4a1c      	ldr	r2, [pc, #112]	; (140c <__aeabi_dmul+0x530>)
    139c:	4694      	mov	ip, r2
    139e:	465a      	mov	r2, fp
    13a0:	4467      	add	r7, ip
    13a2:	40ba      	lsls	r2, r7
    13a4:	1c17      	adds	r7, r2, #0
    13a6:	433e      	orrs	r6, r7
    13a8:	1e72      	subs	r2, r6, #1
    13aa:	4196      	sbcs	r6, r2
    13ac:	431e      	orrs	r6, r3
    13ae:	2307      	movs	r3, #7
    13b0:	2500      	movs	r5, #0
    13b2:	4033      	ands	r3, r6
    13b4:	d007      	beq.n	13c6 <__aeabi_dmul+0x4ea>
    13b6:	230f      	movs	r3, #15
    13b8:	2500      	movs	r5, #0
    13ba:	4033      	ands	r3, r6
    13bc:	2b04      	cmp	r3, #4
    13be:	d1d6      	bne.n	136e <__aeabi_dmul+0x492>
    13c0:	076b      	lsls	r3, r5, #29
    13c2:	026d      	lsls	r5, r5, #9
    13c4:	0b2d      	lsrs	r5, r5, #12
    13c6:	2401      	movs	r4, #1
    13c8:	08f6      	lsrs	r6, r6, #3
    13ca:	431e      	orrs	r6, r3
    13cc:	9b02      	ldr	r3, [sp, #8]
    13ce:	401c      	ands	r4, r3
    13d0:	2300      	movs	r3, #0
    13d2:	e5e7      	b.n	fa4 <__aeabi_dmul+0xc8>
    13d4:	2700      	movs	r7, #0
    13d6:	e7e6      	b.n	13a6 <__aeabi_dmul+0x4ca>
    13d8:	2580      	movs	r5, #128	; 0x80
    13da:	465b      	mov	r3, fp
    13dc:	2401      	movs	r4, #1
    13de:	032d      	lsls	r5, r5, #12
    13e0:	431d      	orrs	r5, r3
    13e2:	9b01      	ldr	r3, [sp, #4]
    13e4:	032d      	lsls	r5, r5, #12
    13e6:	4023      	ands	r3, r4
    13e8:	1c1c      	adds	r4, r3, #0
    13ea:	0b2d      	lsrs	r5, r5, #12
    13ec:	4b03      	ldr	r3, [pc, #12]	; (13fc <__aeabi_dmul+0x520>)
    13ee:	e5d9      	b.n	fa4 <__aeabi_dmul+0xc8>
    13f0:	000003ff 	.word	0x000003ff
    13f4:	feffffff 	.word	0xfeffffff
    13f8:	000007fe 	.word	0x000007fe
    13fc:	000007ff 	.word	0x000007ff
    1400:	fffffc02 	.word	0xfffffc02
    1404:	0000041e 	.word	0x0000041e
    1408:	fffffbe2 	.word	0xfffffbe2
    140c:	0000043e 	.word	0x0000043e

00001410 <__aeabi_i2d>:
    1410:	b538      	push	{r3, r4, r5, lr}
    1412:	1e04      	subs	r4, r0, #0
    1414:	d016      	beq.n	1444 <__aeabi_i2d+0x34>
    1416:	0fc5      	lsrs	r5, r0, #31
    1418:	d000      	beq.n	141c <__aeabi_i2d+0xc>
    141a:	4244      	negs	r4, r0
    141c:	1c20      	adds	r0, r4, #0
    141e:	f000 f8c3 	bl	15a8 <__clzsi2>
    1422:	4b17      	ldr	r3, [pc, #92]	; (1480 <__aeabi_i2d+0x70>)
    1424:	1a1b      	subs	r3, r3, r0
    1426:	280a      	cmp	r0, #10
    1428:	dc21      	bgt.n	146e <__aeabi_i2d+0x5e>
    142a:	1c02      	adds	r2, r0, #0
    142c:	1c21      	adds	r1, r4, #0
    142e:	3215      	adds	r2, #21
    1430:	4091      	lsls	r1, r2
    1432:	1c0a      	adds	r2, r1, #0
    1434:	210b      	movs	r1, #11
    1436:	1a08      	subs	r0, r1, r0
    1438:	40c4      	lsrs	r4, r0
    143a:	055b      	lsls	r3, r3, #21
    143c:	0324      	lsls	r4, r4, #12
    143e:	0b24      	lsrs	r4, r4, #12
    1440:	0d5b      	lsrs	r3, r3, #21
    1442:	e003      	b.n	144c <__aeabi_i2d+0x3c>
    1444:	2500      	movs	r5, #0
    1446:	2300      	movs	r3, #0
    1448:	2400      	movs	r4, #0
    144a:	2200      	movs	r2, #0
    144c:	2100      	movs	r1, #0
    144e:	1c10      	adds	r0, r2, #0
    1450:	0324      	lsls	r4, r4, #12
    1452:	0d0a      	lsrs	r2, r1, #20
    1454:	0512      	lsls	r2, r2, #20
    1456:	0b24      	lsrs	r4, r4, #12
    1458:	4314      	orrs	r4, r2
    145a:	4a0a      	ldr	r2, [pc, #40]	; (1484 <__aeabi_i2d+0x74>)
    145c:	051b      	lsls	r3, r3, #20
    145e:	4014      	ands	r4, r2
    1460:	431c      	orrs	r4, r3
    1462:	0064      	lsls	r4, r4, #1
    1464:	07ed      	lsls	r5, r5, #31
    1466:	0864      	lsrs	r4, r4, #1
    1468:	432c      	orrs	r4, r5
    146a:	1c21      	adds	r1, r4, #0
    146c:	bd38      	pop	{r3, r4, r5, pc}
    146e:	380b      	subs	r0, #11
    1470:	4084      	lsls	r4, r0
    1472:	055b      	lsls	r3, r3, #21
    1474:	0324      	lsls	r4, r4, #12
    1476:	0b24      	lsrs	r4, r4, #12
    1478:	0d5b      	lsrs	r3, r3, #21
    147a:	2200      	movs	r2, #0
    147c:	e7e6      	b.n	144c <__aeabi_i2d+0x3c>
    147e:	46c0      	nop			; (mov r8, r8)
    1480:	0000041e 	.word	0x0000041e
    1484:	800fffff 	.word	0x800fffff

00001488 <__aeabi_d2f>:
    1488:	b570      	push	{r4, r5, r6, lr}
    148a:	030b      	lsls	r3, r1, #12
    148c:	004d      	lsls	r5, r1, #1
    148e:	0f44      	lsrs	r4, r0, #29
    1490:	0d6d      	lsrs	r5, r5, #21
    1492:	0a5b      	lsrs	r3, r3, #9
    1494:	4323      	orrs	r3, r4
    1496:	1c6c      	adds	r4, r5, #1
    1498:	0564      	lsls	r4, r4, #21
    149a:	0fc9      	lsrs	r1, r1, #31
    149c:	00c2      	lsls	r2, r0, #3
    149e:	0d64      	lsrs	r4, r4, #21
    14a0:	2c01      	cmp	r4, #1
    14a2:	dd2a      	ble.n	14fa <__aeabi_d2f+0x72>
    14a4:	4c3b      	ldr	r4, [pc, #236]	; (1594 <__aeabi_d2f+0x10c>)
    14a6:	192c      	adds	r4, r5, r4
    14a8:	2cfe      	cmp	r4, #254	; 0xfe
    14aa:	dc1a      	bgt.n	14e2 <__aeabi_d2f+0x5a>
    14ac:	2c00      	cmp	r4, #0
    14ae:	dd35      	ble.n	151c <__aeabi_d2f+0x94>
    14b0:	0180      	lsls	r0, r0, #6
    14b2:	1e45      	subs	r5, r0, #1
    14b4:	41a8      	sbcs	r0, r5
    14b6:	00db      	lsls	r3, r3, #3
    14b8:	4303      	orrs	r3, r0
    14ba:	0f52      	lsrs	r2, r2, #29
    14bc:	4313      	orrs	r3, r2
    14be:	075a      	lsls	r2, r3, #29
    14c0:	d004      	beq.n	14cc <__aeabi_d2f+0x44>
    14c2:	220f      	movs	r2, #15
    14c4:	401a      	ands	r2, r3
    14c6:	2a04      	cmp	r2, #4
    14c8:	d000      	beq.n	14cc <__aeabi_d2f+0x44>
    14ca:	3304      	adds	r3, #4
    14cc:	2280      	movs	r2, #128	; 0x80
    14ce:	04d2      	lsls	r2, r2, #19
    14d0:	401a      	ands	r2, r3
    14d2:	d027      	beq.n	1524 <__aeabi_d2f+0x9c>
    14d4:	3401      	adds	r4, #1
    14d6:	2cff      	cmp	r4, #255	; 0xff
    14d8:	d003      	beq.n	14e2 <__aeabi_d2f+0x5a>
    14da:	019b      	lsls	r3, r3, #6
    14dc:	0a5b      	lsrs	r3, r3, #9
    14de:	b2e4      	uxtb	r4, r4
    14e0:	e001      	b.n	14e6 <__aeabi_d2f+0x5e>
    14e2:	24ff      	movs	r4, #255	; 0xff
    14e4:	2300      	movs	r3, #0
    14e6:	025b      	lsls	r3, r3, #9
    14e8:	05e4      	lsls	r4, r4, #23
    14ea:	0a5b      	lsrs	r3, r3, #9
    14ec:	4323      	orrs	r3, r4
    14ee:	005b      	lsls	r3, r3, #1
    14f0:	07c9      	lsls	r1, r1, #31
    14f2:	085b      	lsrs	r3, r3, #1
    14f4:	430b      	orrs	r3, r1
    14f6:	1c18      	adds	r0, r3, #0
    14f8:	bd70      	pop	{r4, r5, r6, pc}
    14fa:	2d00      	cmp	r5, #0
    14fc:	d106      	bne.n	150c <__aeabi_d2f+0x84>
    14fe:	4313      	orrs	r3, r2
    1500:	d10e      	bne.n	1520 <__aeabi_d2f+0x98>
    1502:	2400      	movs	r4, #0
    1504:	025b      	lsls	r3, r3, #9
    1506:	0a5b      	lsrs	r3, r3, #9
    1508:	b2e4      	uxtb	r4, r4
    150a:	e7ec      	b.n	14e6 <__aeabi_d2f+0x5e>
    150c:	431a      	orrs	r2, r3
    150e:	d0e8      	beq.n	14e2 <__aeabi_d2f+0x5a>
    1510:	2080      	movs	r0, #128	; 0x80
    1512:	00db      	lsls	r3, r3, #3
    1514:	0480      	lsls	r0, r0, #18
    1516:	4303      	orrs	r3, r0
    1518:	24ff      	movs	r4, #255	; 0xff
    151a:	e7d0      	b.n	14be <__aeabi_d2f+0x36>
    151c:	3417      	adds	r4, #23
    151e:	da0c      	bge.n	153a <__aeabi_d2f+0xb2>
    1520:	2305      	movs	r3, #5
    1522:	2400      	movs	r4, #0
    1524:	08db      	lsrs	r3, r3, #3
    1526:	2cff      	cmp	r4, #255	; 0xff
    1528:	d1ec      	bne.n	1504 <__aeabi_d2f+0x7c>
    152a:	2b00      	cmp	r3, #0
    152c:	d02d      	beq.n	158a <__aeabi_d2f+0x102>
    152e:	2280      	movs	r2, #128	; 0x80
    1530:	03d2      	lsls	r2, r2, #15
    1532:	4313      	orrs	r3, r2
    1534:	025b      	lsls	r3, r3, #9
    1536:	0a5b      	lsrs	r3, r3, #9
    1538:	e7d5      	b.n	14e6 <__aeabi_d2f+0x5e>
    153a:	2480      	movs	r4, #128	; 0x80
    153c:	4816      	ldr	r0, [pc, #88]	; (1598 <__aeabi_d2f+0x110>)
    153e:	0424      	lsls	r4, r4, #16
    1540:	4323      	orrs	r3, r4
    1542:	1b40      	subs	r0, r0, r5
    1544:	281f      	cmp	r0, #31
    1546:	dc0d      	bgt.n	1564 <__aeabi_d2f+0xdc>
    1548:	4c14      	ldr	r4, [pc, #80]	; (159c <__aeabi_d2f+0x114>)
    154a:	46a4      	mov	ip, r4
    154c:	4465      	add	r5, ip
    154e:	40ab      	lsls	r3, r5
    1550:	1c1c      	adds	r4, r3, #0
    1552:	1c13      	adds	r3, r2, #0
    1554:	40ab      	lsls	r3, r5
    1556:	1e5d      	subs	r5, r3, #1
    1558:	41ab      	sbcs	r3, r5
    155a:	40c2      	lsrs	r2, r0
    155c:	4323      	orrs	r3, r4
    155e:	4313      	orrs	r3, r2
    1560:	2400      	movs	r4, #0
    1562:	e7ac      	b.n	14be <__aeabi_d2f+0x36>
    1564:	1c1e      	adds	r6, r3, #0
    1566:	4c0e      	ldr	r4, [pc, #56]	; (15a0 <__aeabi_d2f+0x118>)
    1568:	1b64      	subs	r4, r4, r5
    156a:	40e6      	lsrs	r6, r4
    156c:	1c34      	adds	r4, r6, #0
    156e:	2820      	cmp	r0, #32
    1570:	d00d      	beq.n	158e <__aeabi_d2f+0x106>
    1572:	480c      	ldr	r0, [pc, #48]	; (15a4 <__aeabi_d2f+0x11c>)
    1574:	4684      	mov	ip, r0
    1576:	4465      	add	r5, ip
    1578:	40ab      	lsls	r3, r5
    157a:	1c1d      	adds	r5, r3, #0
    157c:	432a      	orrs	r2, r5
    157e:	1e53      	subs	r3, r2, #1
    1580:	419a      	sbcs	r2, r3
    1582:	1c13      	adds	r3, r2, #0
    1584:	4323      	orrs	r3, r4
    1586:	2400      	movs	r4, #0
    1588:	e799      	b.n	14be <__aeabi_d2f+0x36>
    158a:	2300      	movs	r3, #0
    158c:	e7ab      	b.n	14e6 <__aeabi_d2f+0x5e>
    158e:	2500      	movs	r5, #0
    1590:	e7f4      	b.n	157c <__aeabi_d2f+0xf4>
    1592:	46c0      	nop			; (mov r8, r8)
    1594:	fffffc80 	.word	0xfffffc80
    1598:	0000039e 	.word	0x0000039e
    159c:	fffffc82 	.word	0xfffffc82
    15a0:	0000037e 	.word	0x0000037e
    15a4:	fffffca2 	.word	0xfffffca2

000015a8 <__clzsi2>:
    15a8:	211c      	movs	r1, #28
    15aa:	2301      	movs	r3, #1
    15ac:	041b      	lsls	r3, r3, #16
    15ae:	4298      	cmp	r0, r3
    15b0:	d301      	bcc.n	15b6 <__clzsi2+0xe>
    15b2:	0c00      	lsrs	r0, r0, #16
    15b4:	3910      	subs	r1, #16
    15b6:	0a1b      	lsrs	r3, r3, #8
    15b8:	4298      	cmp	r0, r3
    15ba:	d301      	bcc.n	15c0 <__clzsi2+0x18>
    15bc:	0a00      	lsrs	r0, r0, #8
    15be:	3908      	subs	r1, #8
    15c0:	091b      	lsrs	r3, r3, #4
    15c2:	4298      	cmp	r0, r3
    15c4:	d301      	bcc.n	15ca <__clzsi2+0x22>
    15c6:	0900      	lsrs	r0, r0, #4
    15c8:	3904      	subs	r1, #4
    15ca:	a202      	add	r2, pc, #8	; (adr r2, 15d4 <__clzsi2+0x2c>)
    15cc:	5c10      	ldrb	r0, [r2, r0]
    15ce:	1840      	adds	r0, r0, r1
    15d0:	4770      	bx	lr
    15d2:	46c0      	nop			; (mov r8, r8)
    15d4:	02020304 	.word	0x02020304
    15d8:	01010101 	.word	0x01010101
	...

000015e4 <__divdi3>:
    15e4:	b5f0      	push	{r4, r5, r6, r7, lr}
    15e6:	4644      	mov	r4, r8
    15e8:	465f      	mov	r7, fp
    15ea:	4656      	mov	r6, sl
    15ec:	464d      	mov	r5, r9
    15ee:	b4f0      	push	{r4, r5, r6, r7}
    15f0:	1c1c      	adds	r4, r3, #0
    15f2:	b085      	sub	sp, #20
    15f4:	2900      	cmp	r1, #0
    15f6:	da00      	bge.n	15fa <__divdi3+0x16>
    15f8:	e0a9      	b.n	174e <__divdi3+0x16a>
    15fa:	1c0f      	adds	r7, r1, #0
    15fc:	2100      	movs	r1, #0
    15fe:	1c06      	adds	r6, r0, #0
    1600:	4688      	mov	r8, r1
    1602:	1c10      	adds	r0, r2, #0
    1604:	1c19      	adds	r1, r3, #0
    1606:	2c00      	cmp	r4, #0
    1608:	da00      	bge.n	160c <__divdi3+0x28>
    160a:	e097      	b.n	173c <__divdi3+0x158>
    160c:	1c34      	adds	r4, r6, #0
    160e:	1c3d      	adds	r5, r7, #0
    1610:	4682      	mov	sl, r0
    1612:	4689      	mov	r9, r1
    1614:	42b9      	cmp	r1, r7
    1616:	d873      	bhi.n	1700 <__divdi3+0x11c>
    1618:	d070      	beq.n	16fc <__divdi3+0x118>
    161a:	4649      	mov	r1, r9
    161c:	4650      	mov	r0, sl
    161e:	f000 f985 	bl	192c <__clzdi2>
    1622:	4683      	mov	fp, r0
    1624:	1c39      	adds	r1, r7, #0
    1626:	1c30      	adds	r0, r6, #0
    1628:	f000 f980 	bl	192c <__clzdi2>
    162c:	465b      	mov	r3, fp
    162e:	1a18      	subs	r0, r3, r0
    1630:	1c03      	adds	r3, r0, #0
    1632:	4683      	mov	fp, r0
    1634:	3b20      	subs	r3, #32
    1636:	469c      	mov	ip, r3
    1638:	d500      	bpl.n	163c <__divdi3+0x58>
    163a:	e09c      	b.n	1776 <__divdi3+0x192>
    163c:	2300      	movs	r3, #0
    163e:	2200      	movs	r2, #0
    1640:	4651      	mov	r1, sl
    1642:	9200      	str	r2, [sp, #0]
    1644:	9301      	str	r3, [sp, #4]
    1646:	4663      	mov	r3, ip
    1648:	4099      	lsls	r1, r3
    164a:	9101      	str	r1, [sp, #4]
    164c:	4651      	mov	r1, sl
    164e:	4081      	lsls	r1, r0
    1650:	9b01      	ldr	r3, [sp, #4]
    1652:	9100      	str	r1, [sp, #0]
    1654:	42bb      	cmp	r3, r7
    1656:	d900      	bls.n	165a <__divdi3+0x76>
    1658:	e083      	b.n	1762 <__divdi3+0x17e>
    165a:	d100      	bne.n	165e <__divdi3+0x7a>
    165c:	e07e      	b.n	175c <__divdi3+0x178>
    165e:	9a00      	ldr	r2, [sp, #0]
    1660:	9b01      	ldr	r3, [sp, #4]
    1662:	1c34      	adds	r4, r6, #0
    1664:	1c3d      	adds	r5, r7, #0
    1666:	1aa4      	subs	r4, r4, r2
    1668:	419d      	sbcs	r5, r3
    166a:	4663      	mov	r3, ip
    166c:	2b00      	cmp	r3, #0
    166e:	da00      	bge.n	1672 <__divdi3+0x8e>
    1670:	e09a      	b.n	17a8 <__divdi3+0x1c4>
    1672:	2600      	movs	r6, #0
    1674:	2700      	movs	r7, #0
    1676:	9602      	str	r6, [sp, #8]
    1678:	9703      	str	r7, [sp, #12]
    167a:	3601      	adds	r6, #1
    167c:	409e      	lsls	r6, r3
    167e:	9603      	str	r6, [sp, #12]
    1680:	2601      	movs	r6, #1
    1682:	4086      	lsls	r6, r0
    1684:	9602      	str	r6, [sp, #8]
    1686:	2800      	cmp	r0, #0
    1688:	d100      	bne.n	168c <__divdi3+0xa8>
    168a:	e071      	b.n	1770 <__divdi3+0x18c>
    168c:	9900      	ldr	r1, [sp, #0]
    168e:	9a01      	ldr	r2, [sp, #4]
    1690:	07d3      	lsls	r3, r2, #31
    1692:	4699      	mov	r9, r3
    1694:	464b      	mov	r3, r9
    1696:	084e      	lsrs	r6, r1, #1
    1698:	431e      	orrs	r6, r3
    169a:	0857      	lsrs	r7, r2, #1
    169c:	2300      	movs	r3, #0
    169e:	2201      	movs	r2, #1
    16a0:	e00c      	b.n	16bc <__divdi3+0xd8>
    16a2:	42af      	cmp	r7, r5
    16a4:	d101      	bne.n	16aa <__divdi3+0xc6>
    16a6:	42a6      	cmp	r6, r4
    16a8:	d80a      	bhi.n	16c0 <__divdi3+0xdc>
    16aa:	1ba4      	subs	r4, r4, r6
    16ac:	41bd      	sbcs	r5, r7
    16ae:	1924      	adds	r4, r4, r4
    16b0:	416d      	adcs	r5, r5
    16b2:	3801      	subs	r0, #1
    16b4:	18a4      	adds	r4, r4, r2
    16b6:	415d      	adcs	r5, r3
    16b8:	2800      	cmp	r0, #0
    16ba:	d006      	beq.n	16ca <__divdi3+0xe6>
    16bc:	42af      	cmp	r7, r5
    16be:	d9f0      	bls.n	16a2 <__divdi3+0xbe>
    16c0:	3801      	subs	r0, #1
    16c2:	1924      	adds	r4, r4, r4
    16c4:	416d      	adcs	r5, r5
    16c6:	2800      	cmp	r0, #0
    16c8:	d1f8      	bne.n	16bc <__divdi3+0xd8>
    16ca:	2220      	movs	r2, #32
    16cc:	9e02      	ldr	r6, [sp, #8]
    16ce:	9f03      	ldr	r7, [sp, #12]
    16d0:	465b      	mov	r3, fp
    16d2:	4252      	negs	r2, r2
    16d4:	1936      	adds	r6, r6, r4
    16d6:	416f      	adcs	r7, r5
    16d8:	1899      	adds	r1, r3, r2
    16da:	d45a      	bmi.n	1792 <__divdi3+0x1ae>
    16dc:	1c28      	adds	r0, r5, #0
    16de:	40c8      	lsrs	r0, r1
    16e0:	1c2c      	adds	r4, r5, #0
    16e2:	465b      	mov	r3, fp
    16e4:	40dc      	lsrs	r4, r3
    16e6:	2900      	cmp	r1, #0
    16e8:	db68      	blt.n	17bc <__divdi3+0x1d8>
    16ea:	1c04      	adds	r4, r0, #0
    16ec:	408c      	lsls	r4, r1
    16ee:	1c23      	adds	r3, r4, #0
    16f0:	4659      	mov	r1, fp
    16f2:	4088      	lsls	r0, r1
    16f4:	1c02      	adds	r2, r0, #0
    16f6:	1ab6      	subs	r6, r6, r2
    16f8:	419f      	sbcs	r7, r3
    16fa:	e003      	b.n	1704 <__divdi3+0x120>
    16fc:	42b0      	cmp	r0, r6
    16fe:	d98c      	bls.n	161a <__divdi3+0x36>
    1700:	2600      	movs	r6, #0
    1702:	2700      	movs	r7, #0
    1704:	4641      	mov	r1, r8
    1706:	1e4b      	subs	r3, r1, #1
    1708:	4199      	sbcs	r1, r3
    170a:	2300      	movs	r3, #0
    170c:	9100      	str	r1, [sp, #0]
    170e:	9301      	str	r3, [sp, #4]
    1710:	9a00      	ldr	r2, [sp, #0]
    1712:	9b01      	ldr	r3, [sp, #4]
    1714:	2500      	movs	r5, #0
    1716:	4254      	negs	r4, r2
    1718:	419d      	sbcs	r5, r3
    171a:	1c33      	adds	r3, r6, #0
    171c:	4063      	eors	r3, r4
    171e:	1c18      	adds	r0, r3, #0
    1720:	1c3b      	adds	r3, r7, #0
    1722:	406b      	eors	r3, r5
    1724:	1c19      	adds	r1, r3, #0
    1726:	9b00      	ldr	r3, [sp, #0]
    1728:	9c01      	ldr	r4, [sp, #4]
    172a:	18c0      	adds	r0, r0, r3
    172c:	4161      	adcs	r1, r4
    172e:	b005      	add	sp, #20
    1730:	bc3c      	pop	{r2, r3, r4, r5}
    1732:	4690      	mov	r8, r2
    1734:	4699      	mov	r9, r3
    1736:	46a2      	mov	sl, r4
    1738:	46ab      	mov	fp, r5
    173a:	bdf0      	pop	{r4, r5, r6, r7, pc}
    173c:	4643      	mov	r3, r8
    173e:	43db      	mvns	r3, r3
    1740:	1c0c      	adds	r4, r1, #0
    1742:	4698      	mov	r8, r3
    1744:	1c13      	adds	r3, r2, #0
    1746:	2100      	movs	r1, #0
    1748:	4258      	negs	r0, r3
    174a:	41a1      	sbcs	r1, r4
    174c:	e75e      	b.n	160c <__divdi3+0x28>
    174e:	2700      	movs	r7, #0
    1750:	4246      	negs	r6, r0
    1752:	418f      	sbcs	r7, r1
    1754:	2101      	movs	r1, #1
    1756:	4249      	negs	r1, r1
    1758:	4688      	mov	r8, r1
    175a:	e752      	b.n	1602 <__divdi3+0x1e>
    175c:	42b1      	cmp	r1, r6
    175e:	d800      	bhi.n	1762 <__divdi3+0x17e>
    1760:	e77d      	b.n	165e <__divdi3+0x7a>
    1762:	2600      	movs	r6, #0
    1764:	2700      	movs	r7, #0
    1766:	9602      	str	r6, [sp, #8]
    1768:	9703      	str	r7, [sp, #12]
    176a:	2800      	cmp	r0, #0
    176c:	d000      	beq.n	1770 <__divdi3+0x18c>
    176e:	e78d      	b.n	168c <__divdi3+0xa8>
    1770:	9e02      	ldr	r6, [sp, #8]
    1772:	9f03      	ldr	r7, [sp, #12]
    1774:	e7c6      	b.n	1704 <__divdi3+0x120>
    1776:	2120      	movs	r1, #32
    1778:	4653      	mov	r3, sl
    177a:	1a09      	subs	r1, r1, r0
    177c:	40cb      	lsrs	r3, r1
    177e:	2200      	movs	r2, #0
    1780:	1c19      	adds	r1, r3, #0
    1782:	2300      	movs	r3, #0
    1784:	9200      	str	r2, [sp, #0]
    1786:	9301      	str	r3, [sp, #4]
    1788:	464b      	mov	r3, r9
    178a:	4083      	lsls	r3, r0
    178c:	430b      	orrs	r3, r1
    178e:	9301      	str	r3, [sp, #4]
    1790:	e75c      	b.n	164c <__divdi3+0x68>
    1792:	465a      	mov	r2, fp
    1794:	2320      	movs	r3, #32
    1796:	1a9b      	subs	r3, r3, r2
    1798:	1c2a      	adds	r2, r5, #0
    179a:	409a      	lsls	r2, r3
    179c:	1c20      	adds	r0, r4, #0
    179e:	1c13      	adds	r3, r2, #0
    17a0:	465a      	mov	r2, fp
    17a2:	40d0      	lsrs	r0, r2
    17a4:	4318      	orrs	r0, r3
    17a6:	e79b      	b.n	16e0 <__divdi3+0xfc>
    17a8:	2620      	movs	r6, #32
    17aa:	2700      	movs	r7, #0
    17ac:	1a33      	subs	r3, r6, r0
    17ae:	2600      	movs	r6, #0
    17b0:	9602      	str	r6, [sp, #8]
    17b2:	9703      	str	r7, [sp, #12]
    17b4:	2701      	movs	r7, #1
    17b6:	40df      	lsrs	r7, r3
    17b8:	9703      	str	r7, [sp, #12]
    17ba:	e761      	b.n	1680 <__divdi3+0x9c>
    17bc:	465b      	mov	r3, fp
    17be:	2120      	movs	r1, #32
    17c0:	465d      	mov	r5, fp
    17c2:	1ac9      	subs	r1, r1, r3
    17c4:	1c03      	adds	r3, r0, #0
    17c6:	40ac      	lsls	r4, r5
    17c8:	40cb      	lsrs	r3, r1
    17ca:	1c19      	adds	r1, r3, #0
    17cc:	1c23      	adds	r3, r4, #0
    17ce:	430b      	orrs	r3, r1
    17d0:	e78e      	b.n	16f0 <__divdi3+0x10c>
    17d2:	46c0      	nop			; (mov r8, r8)

000017d4 <__udivdi3>:
    17d4:	b5f0      	push	{r4, r5, r6, r7, lr}
    17d6:	4645      	mov	r5, r8
    17d8:	464e      	mov	r6, r9
    17da:	4657      	mov	r7, sl
    17dc:	b4e0      	push	{r5, r6, r7}
    17de:	1c04      	adds	r4, r0, #0
    17e0:	b082      	sub	sp, #8
    17e2:	1c0d      	adds	r5, r1, #0
    17e4:	4691      	mov	r9, r2
    17e6:	4698      	mov	r8, r3
    17e8:	428b      	cmp	r3, r1
    17ea:	d862      	bhi.n	18b2 <__udivdi3+0xde>
    17ec:	d05f      	beq.n	18ae <__udivdi3+0xda>
    17ee:	4641      	mov	r1, r8
    17f0:	4648      	mov	r0, r9
    17f2:	f000 f89b 	bl	192c <__clzdi2>
    17f6:	1c29      	adds	r1, r5, #0
    17f8:	1c06      	adds	r6, r0, #0
    17fa:	1c20      	adds	r0, r4, #0
    17fc:	f000 f896 	bl	192c <__clzdi2>
    1800:	2320      	movs	r3, #32
    1802:	1a31      	subs	r1, r6, r0
    1804:	425b      	negs	r3, r3
    1806:	468a      	mov	sl, r1
    1808:	18c8      	adds	r0, r1, r3
    180a:	d465      	bmi.n	18d8 <__udivdi3+0x104>
    180c:	464b      	mov	r3, r9
    180e:	4083      	lsls	r3, r0
    1810:	1c1f      	adds	r7, r3, #0
    1812:	464b      	mov	r3, r9
    1814:	408b      	lsls	r3, r1
    1816:	1c1e      	adds	r6, r3, #0
    1818:	42af      	cmp	r7, r5
    181a:	d858      	bhi.n	18ce <__udivdi3+0xfa>
    181c:	d055      	beq.n	18ca <__udivdi3+0xf6>
    181e:	1ba4      	subs	r4, r4, r6
    1820:	41bd      	sbcs	r5, r7
    1822:	2800      	cmp	r0, #0
    1824:	da00      	bge.n	1828 <__udivdi3+0x54>
    1826:	e077      	b.n	1918 <__udivdi3+0x144>
    1828:	2200      	movs	r2, #0
    182a:	2300      	movs	r3, #0
    182c:	9200      	str	r2, [sp, #0]
    182e:	9301      	str	r3, [sp, #4]
    1830:	3201      	adds	r2, #1
    1832:	4082      	lsls	r2, r0
    1834:	9201      	str	r2, [sp, #4]
    1836:	2301      	movs	r3, #1
    1838:	408b      	lsls	r3, r1
    183a:	9300      	str	r3, [sp, #0]
    183c:	2900      	cmp	r1, #0
    183e:	d03c      	beq.n	18ba <__udivdi3+0xe6>
    1840:	07fb      	lsls	r3, r7, #31
    1842:	4698      	mov	r8, r3
    1844:	4640      	mov	r0, r8
    1846:	0872      	lsrs	r2, r6, #1
    1848:	087b      	lsrs	r3, r7, #1
    184a:	4302      	orrs	r2, r0
    184c:	2601      	movs	r6, #1
    184e:	2700      	movs	r7, #0
    1850:	e00c      	b.n	186c <__udivdi3+0x98>
    1852:	42ab      	cmp	r3, r5
    1854:	d101      	bne.n	185a <__udivdi3+0x86>
    1856:	42a2      	cmp	r2, r4
    1858:	d80a      	bhi.n	1870 <__udivdi3+0x9c>
    185a:	1aa4      	subs	r4, r4, r2
    185c:	419d      	sbcs	r5, r3
    185e:	1924      	adds	r4, r4, r4
    1860:	416d      	adcs	r5, r5
    1862:	3901      	subs	r1, #1
    1864:	19a4      	adds	r4, r4, r6
    1866:	417d      	adcs	r5, r7
    1868:	2900      	cmp	r1, #0
    186a:	d006      	beq.n	187a <__udivdi3+0xa6>
    186c:	42ab      	cmp	r3, r5
    186e:	d9f0      	bls.n	1852 <__udivdi3+0x7e>
    1870:	3901      	subs	r1, #1
    1872:	1924      	adds	r4, r4, r4
    1874:	416d      	adcs	r5, r5
    1876:	2900      	cmp	r1, #0
    1878:	d1f8      	bne.n	186c <__udivdi3+0x98>
    187a:	2220      	movs	r2, #32
    187c:	9800      	ldr	r0, [sp, #0]
    187e:	9901      	ldr	r1, [sp, #4]
    1880:	4653      	mov	r3, sl
    1882:	4252      	negs	r2, r2
    1884:	1900      	adds	r0, r0, r4
    1886:	4169      	adcs	r1, r5
    1888:	189e      	adds	r6, r3, r2
    188a:	d43a      	bmi.n	1902 <__udivdi3+0x12e>
    188c:	1c2f      	adds	r7, r5, #0
    188e:	40f7      	lsrs	r7, r6
    1890:	4653      	mov	r3, sl
    1892:	40dd      	lsrs	r5, r3
    1894:	2e00      	cmp	r6, #0
    1896:	db29      	blt.n	18ec <__udivdi3+0x118>
    1898:	1c3c      	adds	r4, r7, #0
    189a:	40b4      	lsls	r4, r6
    189c:	1c23      	adds	r3, r4, #0
    189e:	4654      	mov	r4, sl
    18a0:	40a7      	lsls	r7, r4
    18a2:	1c3a      	adds	r2, r7, #0
    18a4:	1a80      	subs	r0, r0, r2
    18a6:	4199      	sbcs	r1, r3
    18a8:	9000      	str	r0, [sp, #0]
    18aa:	9101      	str	r1, [sp, #4]
    18ac:	e005      	b.n	18ba <__udivdi3+0xe6>
    18ae:	4282      	cmp	r2, r0
    18b0:	d99d      	bls.n	17ee <__udivdi3+0x1a>
    18b2:	2300      	movs	r3, #0
    18b4:	2400      	movs	r4, #0
    18b6:	9300      	str	r3, [sp, #0]
    18b8:	9401      	str	r4, [sp, #4]
    18ba:	9800      	ldr	r0, [sp, #0]
    18bc:	9901      	ldr	r1, [sp, #4]
    18be:	b002      	add	sp, #8
    18c0:	bc1c      	pop	{r2, r3, r4}
    18c2:	4690      	mov	r8, r2
    18c4:	4699      	mov	r9, r3
    18c6:	46a2      	mov	sl, r4
    18c8:	bdf0      	pop	{r4, r5, r6, r7, pc}
    18ca:	42a3      	cmp	r3, r4
    18cc:	d9a7      	bls.n	181e <__udivdi3+0x4a>
    18ce:	2200      	movs	r2, #0
    18d0:	2300      	movs	r3, #0
    18d2:	9200      	str	r2, [sp, #0]
    18d4:	9301      	str	r3, [sp, #4]
    18d6:	e7b1      	b.n	183c <__udivdi3+0x68>
    18d8:	2220      	movs	r2, #32
    18da:	464b      	mov	r3, r9
    18dc:	1a52      	subs	r2, r2, r1
    18de:	40d3      	lsrs	r3, r2
    18e0:	1c1a      	adds	r2, r3, #0
    18e2:	4643      	mov	r3, r8
    18e4:	408b      	lsls	r3, r1
    18e6:	1c1f      	adds	r7, r3, #0
    18e8:	4317      	orrs	r7, r2
    18ea:	e792      	b.n	1812 <__udivdi3+0x3e>
    18ec:	4653      	mov	r3, sl
    18ee:	2420      	movs	r4, #32
    18f0:	4656      	mov	r6, sl
    18f2:	1ae4      	subs	r4, r4, r3
    18f4:	1c3b      	adds	r3, r7, #0
    18f6:	40b5      	lsls	r5, r6
    18f8:	40e3      	lsrs	r3, r4
    18fa:	1c1c      	adds	r4, r3, #0
    18fc:	1c2b      	adds	r3, r5, #0
    18fe:	4323      	orrs	r3, r4
    1900:	e7cd      	b.n	189e <__udivdi3+0xca>
    1902:	4652      	mov	r2, sl
    1904:	2320      	movs	r3, #32
    1906:	1a9b      	subs	r3, r3, r2
    1908:	1c2a      	adds	r2, r5, #0
    190a:	409a      	lsls	r2, r3
    190c:	1c27      	adds	r7, r4, #0
    190e:	1c13      	adds	r3, r2, #0
    1910:	4652      	mov	r2, sl
    1912:	40d7      	lsrs	r7, r2
    1914:	431f      	orrs	r7, r3
    1916:	e7bb      	b.n	1890 <__udivdi3+0xbc>
    1918:	2320      	movs	r3, #32
    191a:	2200      	movs	r2, #0
    191c:	1a58      	subs	r0, r3, r1
    191e:	2300      	movs	r3, #0
    1920:	9200      	str	r2, [sp, #0]
    1922:	9301      	str	r3, [sp, #4]
    1924:	3201      	adds	r2, #1
    1926:	40c2      	lsrs	r2, r0
    1928:	9201      	str	r2, [sp, #4]
    192a:	e784      	b.n	1836 <__udivdi3+0x62>

0000192c <__clzdi2>:
    192c:	b510      	push	{r4, lr}
    192e:	2900      	cmp	r1, #0
    1930:	d103      	bne.n	193a <__clzdi2+0xe>
    1932:	f7ff fe39 	bl	15a8 <__clzsi2>
    1936:	3020      	adds	r0, #32
    1938:	e002      	b.n	1940 <__clzdi2+0x14>
    193a:	1c08      	adds	r0, r1, #0
    193c:	f7ff fe34 	bl	15a8 <__clzsi2>
    1940:	bd10      	pop	{r4, pc}
    1942:	46c0      	nop			; (mov r8, r8)

00001944 <__libc_init_array>:
    1944:	b570      	push	{r4, r5, r6, lr}
    1946:	4e0d      	ldr	r6, [pc, #52]	; (197c <__libc_init_array+0x38>)
    1948:	4d0d      	ldr	r5, [pc, #52]	; (1980 <__libc_init_array+0x3c>)
    194a:	2400      	movs	r4, #0
    194c:	1bad      	subs	r5, r5, r6
    194e:	10ad      	asrs	r5, r5, #2
    1950:	d005      	beq.n	195e <__libc_init_array+0x1a>
    1952:	00a3      	lsls	r3, r4, #2
    1954:	58f3      	ldr	r3, [r6, r3]
    1956:	3401      	adds	r4, #1
    1958:	4798      	blx	r3
    195a:	42a5      	cmp	r5, r4
    195c:	d1f9      	bne.n	1952 <__libc_init_array+0xe>
    195e:	f000 f9a9 	bl	1cb4 <_init>
    1962:	4e08      	ldr	r6, [pc, #32]	; (1984 <__libc_init_array+0x40>)
    1964:	4d08      	ldr	r5, [pc, #32]	; (1988 <__libc_init_array+0x44>)
    1966:	2400      	movs	r4, #0
    1968:	1bad      	subs	r5, r5, r6
    196a:	10ad      	asrs	r5, r5, #2
    196c:	d005      	beq.n	197a <__libc_init_array+0x36>
    196e:	00a3      	lsls	r3, r4, #2
    1970:	58f3      	ldr	r3, [r6, r3]
    1972:	3401      	adds	r4, #1
    1974:	4798      	blx	r3
    1976:	42a5      	cmp	r5, r4
    1978:	d1f9      	bne.n	196e <__libc_init_array+0x2a>
    197a:	bd70      	pop	{r4, r5, r6, pc}
    197c:	00001cc0 	.word	0x00001cc0
    1980:	00001cc0 	.word	0x00001cc0
    1984:	00001cc0 	.word	0x00001cc0
    1988:	00001cc8 	.word	0x00001cc8

0000198c <memcpy>:
    198c:	b570      	push	{r4, r5, r6, lr}
    198e:	2a0f      	cmp	r2, #15
    1990:	d932      	bls.n	19f8 <memcpy+0x6c>
    1992:	1c04      	adds	r4, r0, #0
    1994:	430c      	orrs	r4, r1
    1996:	1c0b      	adds	r3, r1, #0
    1998:	07a4      	lsls	r4, r4, #30
    199a:	d131      	bne.n	1a00 <memcpy+0x74>
    199c:	1c15      	adds	r5, r2, #0
    199e:	1c04      	adds	r4, r0, #0
    19a0:	3d10      	subs	r5, #16
    19a2:	092d      	lsrs	r5, r5, #4
    19a4:	3501      	adds	r5, #1
    19a6:	012d      	lsls	r5, r5, #4
    19a8:	1949      	adds	r1, r1, r5
    19aa:	681e      	ldr	r6, [r3, #0]
    19ac:	6026      	str	r6, [r4, #0]
    19ae:	685e      	ldr	r6, [r3, #4]
    19b0:	6066      	str	r6, [r4, #4]
    19b2:	689e      	ldr	r6, [r3, #8]
    19b4:	60a6      	str	r6, [r4, #8]
    19b6:	68de      	ldr	r6, [r3, #12]
    19b8:	3310      	adds	r3, #16
    19ba:	60e6      	str	r6, [r4, #12]
    19bc:	3410      	adds	r4, #16
    19be:	4299      	cmp	r1, r3
    19c0:	d1f3      	bne.n	19aa <memcpy+0x1e>
    19c2:	230f      	movs	r3, #15
    19c4:	1945      	adds	r5, r0, r5
    19c6:	4013      	ands	r3, r2
    19c8:	2b03      	cmp	r3, #3
    19ca:	d91b      	bls.n	1a04 <memcpy+0x78>
    19cc:	1f1c      	subs	r4, r3, #4
    19ce:	2300      	movs	r3, #0
    19d0:	08a4      	lsrs	r4, r4, #2
    19d2:	3401      	adds	r4, #1
    19d4:	00a4      	lsls	r4, r4, #2
    19d6:	58ce      	ldr	r6, [r1, r3]
    19d8:	50ee      	str	r6, [r5, r3]
    19da:	3304      	adds	r3, #4
    19dc:	42a3      	cmp	r3, r4
    19de:	d1fa      	bne.n	19d6 <memcpy+0x4a>
    19e0:	18ed      	adds	r5, r5, r3
    19e2:	18c9      	adds	r1, r1, r3
    19e4:	2303      	movs	r3, #3
    19e6:	401a      	ands	r2, r3
    19e8:	d005      	beq.n	19f6 <memcpy+0x6a>
    19ea:	2300      	movs	r3, #0
    19ec:	5ccc      	ldrb	r4, [r1, r3]
    19ee:	54ec      	strb	r4, [r5, r3]
    19f0:	3301      	adds	r3, #1
    19f2:	4293      	cmp	r3, r2
    19f4:	d1fa      	bne.n	19ec <memcpy+0x60>
    19f6:	bd70      	pop	{r4, r5, r6, pc}
    19f8:	1c05      	adds	r5, r0, #0
    19fa:	2a00      	cmp	r2, #0
    19fc:	d1f5      	bne.n	19ea <memcpy+0x5e>
    19fe:	e7fa      	b.n	19f6 <memcpy+0x6a>
    1a00:	1c05      	adds	r5, r0, #0
    1a02:	e7f2      	b.n	19ea <memcpy+0x5e>
    1a04:	1c1a      	adds	r2, r3, #0
    1a06:	e7f8      	b.n	19fa <memcpy+0x6e>

00001a08 <register_fini>:
    1a08:	b508      	push	{r3, lr}
    1a0a:	4b03      	ldr	r3, [pc, #12]	; (1a18 <register_fini+0x10>)
    1a0c:	2b00      	cmp	r3, #0
    1a0e:	d002      	beq.n	1a16 <register_fini+0xe>
    1a10:	4802      	ldr	r0, [pc, #8]	; (1a1c <register_fini+0x14>)
    1a12:	f000 f805 	bl	1a20 <atexit>
    1a16:	bd08      	pop	{r3, pc}
    1a18:	00000000 	.word	0x00000000
    1a1c:	00001a31 	.word	0x00001a31

00001a20 <atexit>:
    1a20:	b508      	push	{r3, lr}
    1a22:	1c01      	adds	r1, r0, #0
    1a24:	2200      	movs	r2, #0
    1a26:	2000      	movs	r0, #0
    1a28:	2300      	movs	r3, #0
    1a2a:	f000 f81b 	bl	1a64 <__register_exitproc>
    1a2e:	bd08      	pop	{r3, pc}

00001a30 <__libc_fini_array>:
    1a30:	b538      	push	{r3, r4, r5, lr}
    1a32:	4b09      	ldr	r3, [pc, #36]	; (1a58 <__libc_fini_array+0x28>)
    1a34:	4c09      	ldr	r4, [pc, #36]	; (1a5c <__libc_fini_array+0x2c>)
    1a36:	1ae4      	subs	r4, r4, r3
    1a38:	10a4      	asrs	r4, r4, #2
    1a3a:	d009      	beq.n	1a50 <__libc_fini_array+0x20>
    1a3c:	4a08      	ldr	r2, [pc, #32]	; (1a60 <__libc_fini_array+0x30>)
    1a3e:	18a5      	adds	r5, r4, r2
    1a40:	00ad      	lsls	r5, r5, #2
    1a42:	18ed      	adds	r5, r5, r3
    1a44:	682b      	ldr	r3, [r5, #0]
    1a46:	3c01      	subs	r4, #1
    1a48:	4798      	blx	r3
    1a4a:	3d04      	subs	r5, #4
    1a4c:	2c00      	cmp	r4, #0
    1a4e:	d1f9      	bne.n	1a44 <__libc_fini_array+0x14>
    1a50:	f000 f93a 	bl	1cc8 <_fini>
    1a54:	bd38      	pop	{r3, r4, r5, pc}
    1a56:	46c0      	nop			; (mov r8, r8)
    1a58:	00001cd4 	.word	0x00001cd4
    1a5c:	00001cd8 	.word	0x00001cd8
    1a60:	3fffffff 	.word	0x3fffffff

00001a64 <__register_exitproc>:
    1a64:	b5f8      	push	{r3, r4, r5, r6, r7, lr}
    1a66:	4644      	mov	r4, r8
    1a68:	465f      	mov	r7, fp
    1a6a:	4656      	mov	r6, sl
    1a6c:	464d      	mov	r5, r9
    1a6e:	469b      	mov	fp, r3
    1a70:	4b2f      	ldr	r3, [pc, #188]	; (1b30 <__register_exitproc+0xcc>)
    1a72:	b4f0      	push	{r4, r5, r6, r7}
    1a74:	681c      	ldr	r4, [r3, #0]
    1a76:	23a4      	movs	r3, #164	; 0xa4
    1a78:	005b      	lsls	r3, r3, #1
    1a7a:	1c05      	adds	r5, r0, #0
    1a7c:	58e0      	ldr	r0, [r4, r3]
    1a7e:	1c0e      	adds	r6, r1, #0
    1a80:	4690      	mov	r8, r2
    1a82:	2800      	cmp	r0, #0
    1a84:	d04b      	beq.n	1b1e <__register_exitproc+0xba>
    1a86:	6843      	ldr	r3, [r0, #4]
    1a88:	2b1f      	cmp	r3, #31
    1a8a:	dc0d      	bgt.n	1aa8 <__register_exitproc+0x44>
    1a8c:	1c5c      	adds	r4, r3, #1
    1a8e:	2d00      	cmp	r5, #0
    1a90:	d121      	bne.n	1ad6 <__register_exitproc+0x72>
    1a92:	3302      	adds	r3, #2
    1a94:	009b      	lsls	r3, r3, #2
    1a96:	6044      	str	r4, [r0, #4]
    1a98:	501e      	str	r6, [r3, r0]
    1a9a:	2000      	movs	r0, #0
    1a9c:	bc3c      	pop	{r2, r3, r4, r5}
    1a9e:	4690      	mov	r8, r2
    1aa0:	4699      	mov	r9, r3
    1aa2:	46a2      	mov	sl, r4
    1aa4:	46ab      	mov	fp, r5
    1aa6:	bdf8      	pop	{r3, r4, r5, r6, r7, pc}
    1aa8:	4b22      	ldr	r3, [pc, #136]	; (1b34 <__register_exitproc+0xd0>)
    1aaa:	2b00      	cmp	r3, #0
    1aac:	d03c      	beq.n	1b28 <__register_exitproc+0xc4>
    1aae:	20c8      	movs	r0, #200	; 0xc8
    1ab0:	0040      	lsls	r0, r0, #1
    1ab2:	e000      	b.n	1ab6 <__register_exitproc+0x52>
    1ab4:	bf00      	nop
    1ab6:	2800      	cmp	r0, #0
    1ab8:	d036      	beq.n	1b28 <__register_exitproc+0xc4>
    1aba:	22a4      	movs	r2, #164	; 0xa4
    1abc:	2300      	movs	r3, #0
    1abe:	0052      	lsls	r2, r2, #1
    1ac0:	58a1      	ldr	r1, [r4, r2]
    1ac2:	6043      	str	r3, [r0, #4]
    1ac4:	6001      	str	r1, [r0, #0]
    1ac6:	50a0      	str	r0, [r4, r2]
    1ac8:	3240      	adds	r2, #64	; 0x40
    1aca:	5083      	str	r3, [r0, r2]
    1acc:	3204      	adds	r2, #4
    1ace:	5083      	str	r3, [r0, r2]
    1ad0:	2401      	movs	r4, #1
    1ad2:	2d00      	cmp	r5, #0
    1ad4:	d0dd      	beq.n	1a92 <__register_exitproc+0x2e>
    1ad6:	009a      	lsls	r2, r3, #2
    1ad8:	4691      	mov	r9, r2
    1ada:	4481      	add	r9, r0
    1adc:	4642      	mov	r2, r8
    1ade:	2188      	movs	r1, #136	; 0x88
    1ae0:	464f      	mov	r7, r9
    1ae2:	507a      	str	r2, [r7, r1]
    1ae4:	22c4      	movs	r2, #196	; 0xc4
    1ae6:	0052      	lsls	r2, r2, #1
    1ae8:	4690      	mov	r8, r2
    1aea:	4480      	add	r8, r0
    1aec:	4642      	mov	r2, r8
    1aee:	3987      	subs	r1, #135	; 0x87
    1af0:	4099      	lsls	r1, r3
    1af2:	6812      	ldr	r2, [r2, #0]
    1af4:	468a      	mov	sl, r1
    1af6:	430a      	orrs	r2, r1
    1af8:	4694      	mov	ip, r2
    1afa:	4642      	mov	r2, r8
    1afc:	4661      	mov	r1, ip
    1afe:	6011      	str	r1, [r2, #0]
    1b00:	2284      	movs	r2, #132	; 0x84
    1b02:	4649      	mov	r1, r9
    1b04:	465f      	mov	r7, fp
    1b06:	0052      	lsls	r2, r2, #1
    1b08:	508f      	str	r7, [r1, r2]
    1b0a:	2d02      	cmp	r5, #2
    1b0c:	d1c1      	bne.n	1a92 <__register_exitproc+0x2e>
    1b0e:	1c02      	adds	r2, r0, #0
    1b10:	4655      	mov	r5, sl
    1b12:	328d      	adds	r2, #141	; 0x8d
    1b14:	32ff      	adds	r2, #255	; 0xff
    1b16:	6811      	ldr	r1, [r2, #0]
    1b18:	430d      	orrs	r5, r1
    1b1a:	6015      	str	r5, [r2, #0]
    1b1c:	e7b9      	b.n	1a92 <__register_exitproc+0x2e>
    1b1e:	1c20      	adds	r0, r4, #0
    1b20:	304d      	adds	r0, #77	; 0x4d
    1b22:	30ff      	adds	r0, #255	; 0xff
    1b24:	50e0      	str	r0, [r4, r3]
    1b26:	e7ae      	b.n	1a86 <__register_exitproc+0x22>
    1b28:	2001      	movs	r0, #1
    1b2a:	4240      	negs	r0, r0
    1b2c:	e7b6      	b.n	1a9c <__register_exitproc+0x38>
    1b2e:	46c0      	nop			; (mov r8, r8)
    1b30:	00001cb0 	.word	0x00001cb0
    1b34:	00000000 	.word	0x00000000

00001b38 <lookupTable.12169>:
    1b38:	ffff8d20 ffffada1 ffffce64 ffffef6c      .......d...l...
    1b48:	000010b7 0000324a 00005425 00007649     ....J2..%T..Iv..
    1b58:	000098b7 0000bb72 0000de79 000101d0     ....r...y.......
    1b68:	00012576 0001496f 00016dbc 0001925e     v%..oI...m..^...
    1b78:	0001b758 0001dcaa 00020258 00022862     X.......X...b(..
    1b88:	00024ecc 00027596 00029cc4 0002c457     .N...u......W...
    1b98:	0002ec52 000314b7 00033d89 000366ca     R........=...f..
    1ba8:	0003907d 0003baa4 0003e544 0004105e     }.......D...^...
    1bb8:	00043bf6 0004680e 000494ac 0004c1d1     .;...h..........
    1bc8:	0004ef81 00051dc1 00054c95 00057c00     .........L...|..
    1bd8:	0005ac07 0005dcae 00060dfb 00063ff2     .............?..
    1be8:	00067298 0006a5f4 0006da09 00070ee0     .r..............
    1bf8:	0007447d 00077ae8 0007b228 0007ea44     }D...z..(...D...
    1c08:	00082344 00085d30 00089810 0008d3ef     D#..0]..........
    1c18:	000910d6 00094ecf 00098de5 0009ce23     .....N......#...
    1c28:	000a0f98 000a524f 000a9657 000adbbf     ....OR..W.......
    1c38:	000b2298 000b6af3 000bb4e2 000c007b     ."...j......{...
    1c48:	000c4dd4 000c9d03 000cee23 000d4150     .M......#...PA..
    1c58:	000d96a9 000dee4e 000e4865 000ea516     ....N...eH......
    1c68:	000f048e 000010c8 000010a6 000010a6     ................
    1c78:	0000109a 00000f8e 00000f8e 0000108e     ................
    1c88:	0000109a 00000f8e 0000108e 00000f8e     ................
    1c98:	0000109a 00000f92 00000f92 00000f92     ................
    1ca8:	000012a8 00000043                       ....C...

00001cb0 <_global_impure_ptr>:
    1cb0:	20000010                                ... 

00001cb4 <_init>:
    1cb4:	b5f8      	push	{r3, r4, r5, r6, r7, lr}
    1cb6:	46c0      	nop			; (mov r8, r8)
    1cb8:	bcf8      	pop	{r3, r4, r5, r6, r7}
    1cba:	bc08      	pop	{r3}
    1cbc:	469e      	mov	lr, r3
    1cbe:	4770      	bx	lr

00001cc0 <__init_array_start>:
    1cc0:	00001a09 	.word	0x00001a09

00001cc4 <__frame_dummy_init_array_entry>:
    1cc4:	000000dd                                ....

00001cc8 <_fini>:
    1cc8:	b5f8      	push	{r3, r4, r5, r6, r7, lr}
    1cca:	46c0      	nop			; (mov r8, r8)
    1ccc:	bcf8      	pop	{r3, r4, r5, r6, r7}
    1cce:	bc08      	pop	{r3}
    1cd0:	469e      	mov	lr, r3
    1cd2:	4770      	bx	lr

00001cd4 <__fini_array_start>:
    1cd4:	000000b5 	.word	0x000000b5
